
LoraAmbulance.elf:     file format elf32-littlearm

Sections:
Idx Name          Size      VMA       LMA       File off  Algn
  0 .isr_vector   00000138  08000000  08000000  00010000  2**0
                  CONTENTS, ALLOC, LOAD, READONLY, DATA
  1 .text         000091e8  08000140  08000140  00010140  2**4
                  CONTENTS, ALLOC, LOAD, READONLY, CODE
  2 .rodata       00000658  08009328  08009328  00019328  2**2
                  CONTENTS, ALLOC, LOAD, READONLY, DATA
  3 .ARM.extab    00000000  08009980  08009980  00020098  2**0
                  CONTENTS
  4 .ARM          00000008  08009980  08009980  00019980  2**2
                  CONTENTS, ALLOC, LOAD, READONLY, DATA
  5 .preinit_array 00000000  08009988  08009988  00020098  2**0
                  CONTENTS, ALLOC, LOAD, DATA
  6 .init_array   00000008  08009988  08009988  00019988  2**2
                  CONTENTS, ALLOC, LOAD, DATA
  7 .fini_array   00000008  08009990  08009990  00019990  2**2
                  CONTENTS, ALLOC, LOAD, DATA
  8 .data         00000098  20000000  08009998  00020000  2**2
                  CONTENTS, ALLOC, LOAD, DATA
  9 .bss          00000a68  20000098  08009a30  00020098  2**2
                  ALLOC
 10 RAM1_region   00000000  20000b00  20000b00  00020098  2**0
                  CONTENTS
 11 RAM2_region   00000000  20008000  20008000  00020098  2**0
                  CONTENTS
 12 ._user_heap_stack 00000a00  20000b00  20000b00  00020b00  2**0
                  ALLOC
 13 .ARM.attributes 0000002a  00000000  00000000  00020098  2**0
                  CONTENTS, READONLY
 14 .comment      00000043  00000000  00000000  000200c2  2**0
                  CONTENTS, READONLY
 15 .debug_info   0002dd70  00000000  00000000  00020105  2**0
                  CONTENTS, READONLY, DEBUGGING, OCTETS
 16 .debug_abbrev 00006ee6  00000000  00000000  0004de75  2**0
                  CONTENTS, READONLY, DEBUGGING, OCTETS
 17 .debug_loclists 0000c74e  00000000  00000000  00054d5b  2**0
                  CONTENTS, READONLY, DEBUGGING, OCTETS
 18 .debug_aranges 00001a70  00000000  00000000  000614b0  2**3
                  CONTENTS, READONLY, DEBUGGING, OCTETS
 19 .debug_rnglists 00001436  00000000  00000000  00062f20  2**0
                  CONTENTS, READONLY, DEBUGGING, OCTETS
 20 .debug_macro  000245e4  00000000  00000000  00064356  2**0
                  CONTENTS, READONLY, DEBUGGING, OCTETS
 21 .debug_line   0002dc2b  00000000  00000000  0008893a  2**0
                  CONTENTS, READONLY, DEBUGGING, OCTETS
 22 .debug_str    000c72d0  00000000  00000000  000b6565  2**0
                  CONTENTS, READONLY, DEBUGGING, OCTETS
 23 .debug_frame  00004e50  00000000  00000000  0017d838  2**2
                  CONTENTS, READONLY, DEBUGGING, OCTETS
 24 .debug_line_str 00000076  00000000  00000000  00182688  2**0
                  CONTENTS, READONLY, DEBUGGING, OCTETS

Disassembly of section .text:

08000140 <__do_global_dtors_aux>:
 8000140:	b510      	push	{r4, lr}
 8000142:	4c05      	ldr	r4, [pc, #20]	; (8000158 <__do_global_dtors_aux+0x18>)
 8000144:	7823      	ldrb	r3, [r4, #0]
 8000146:	b933      	cbnz	r3, 8000156 <__do_global_dtors_aux+0x16>
 8000148:	4b04      	ldr	r3, [pc, #16]	; (800015c <__do_global_dtors_aux+0x1c>)
 800014a:	b113      	cbz	r3, 8000152 <__do_global_dtors_aux+0x12>
 800014c:	4804      	ldr	r0, [pc, #16]	; (8000160 <__do_global_dtors_aux+0x20>)
 800014e:	f3af 8000 	nop.w
 8000152:	2301      	movs	r3, #1
 8000154:	7023      	strb	r3, [r4, #0]
 8000156:	bd10      	pop	{r4, pc}
 8000158:	20000098 	.word	0x20000098
 800015c:	00000000 	.word	0x00000000
 8000160:	08009310 	.word	0x08009310

08000164 <frame_dummy>:
 8000164:	b508      	push	{r3, lr}
 8000166:	4b03      	ldr	r3, [pc, #12]	; (8000174 <frame_dummy+0x10>)
 8000168:	b11b      	cbz	r3, 8000172 <frame_dummy+0xe>
 800016a:	4903      	ldr	r1, [pc, #12]	; (8000178 <frame_dummy+0x14>)
 800016c:	4803      	ldr	r0, [pc, #12]	; (800017c <frame_dummy+0x18>)
 800016e:	f3af 8000 	nop.w
 8000172:	bd08      	pop	{r3, pc}
 8000174:	00000000 	.word	0x00000000
 8000178:	2000009c 	.word	0x2000009c
 800017c:	08009310 	.word	0x08009310

08000180 <strlen>:
 8000180:	4603      	mov	r3, r0
 8000182:	f813 2b01 	ldrb.w	r2, [r3], #1
 8000186:	2a00      	cmp	r2, #0
 8000188:	d1fb      	bne.n	8000182 <strlen+0x2>
 800018a:	1a18      	subs	r0, r3, r0
 800018c:	3801      	subs	r0, #1
 800018e:	4770      	bx	lr

08000190 <memchr>:
 8000190:	f001 01ff 	and.w	r1, r1, #255	; 0xff
 8000194:	2a10      	cmp	r2, #16
 8000196:	db2b      	blt.n	80001f0 <memchr+0x60>
 8000198:	f010 0f07 	tst.w	r0, #7
 800019c:	d008      	beq.n	80001b0 <memchr+0x20>
 800019e:	f810 3b01 	ldrb.w	r3, [r0], #1
 80001a2:	3a01      	subs	r2, #1
 80001a4:	428b      	cmp	r3, r1
 80001a6:	d02d      	beq.n	8000204 <memchr+0x74>
 80001a8:	f010 0f07 	tst.w	r0, #7
 80001ac:	b342      	cbz	r2, 8000200 <memchr+0x70>
 80001ae:	d1f6      	bne.n	800019e <memchr+0xe>
 80001b0:	b4f0      	push	{r4, r5, r6, r7}
 80001b2:	ea41 2101 	orr.w	r1, r1, r1, lsl #8
 80001b6:	ea41 4101 	orr.w	r1, r1, r1, lsl #16
 80001ba:	f022 0407 	bic.w	r4, r2, #7
 80001be:	f07f 0700 	mvns.w	r7, #0
 80001c2:	2300      	movs	r3, #0
 80001c4:	e8f0 5602 	ldrd	r5, r6, [r0], #8
 80001c8:	3c08      	subs	r4, #8
 80001ca:	ea85 0501 	eor.w	r5, r5, r1
 80001ce:	ea86 0601 	eor.w	r6, r6, r1
 80001d2:	fa85 f547 	uadd8	r5, r5, r7
 80001d6:	faa3 f587 	sel	r5, r3, r7
 80001da:	fa86 f647 	uadd8	r6, r6, r7
 80001de:	faa5 f687 	sel	r6, r5, r7
 80001e2:	b98e      	cbnz	r6, 8000208 <memchr+0x78>
 80001e4:	d1ee      	bne.n	80001c4 <memchr+0x34>
 80001e6:	bcf0      	pop	{r4, r5, r6, r7}
 80001e8:	f001 01ff 	and.w	r1, r1, #255	; 0xff
 80001ec:	f002 0207 	and.w	r2, r2, #7
 80001f0:	b132      	cbz	r2, 8000200 <memchr+0x70>
 80001f2:	f810 3b01 	ldrb.w	r3, [r0], #1
 80001f6:	3a01      	subs	r2, #1
 80001f8:	ea83 0301 	eor.w	r3, r3, r1
 80001fc:	b113      	cbz	r3, 8000204 <memchr+0x74>
 80001fe:	d1f8      	bne.n	80001f2 <memchr+0x62>
 8000200:	2000      	movs	r0, #0
 8000202:	4770      	bx	lr
 8000204:	3801      	subs	r0, #1
 8000206:	4770      	bx	lr
 8000208:	2d00      	cmp	r5, #0
 800020a:	bf06      	itte	eq
 800020c:	4635      	moveq	r5, r6
 800020e:	3803      	subeq	r0, #3
 8000210:	3807      	subne	r0, #7
 8000212:	f015 0f01 	tst.w	r5, #1
 8000216:	d107      	bne.n	8000228 <memchr+0x98>
 8000218:	3001      	adds	r0, #1
 800021a:	f415 7f80 	tst.w	r5, #256	; 0x100
 800021e:	bf02      	ittt	eq
 8000220:	3001      	addeq	r0, #1
 8000222:	f415 3fc0 	tsteq.w	r5, #98304	; 0x18000
 8000226:	3001      	addeq	r0, #1
 8000228:	bcf0      	pop	{r4, r5, r6, r7}
 800022a:	3801      	subs	r0, #1
 800022c:	4770      	bx	lr
 800022e:	bf00      	nop

08000230 <__aeabi_uldivmod>:
 8000230:	b953      	cbnz	r3, 8000248 <__aeabi_uldivmod+0x18>
 8000232:	b94a      	cbnz	r2, 8000248 <__aeabi_uldivmod+0x18>
 8000234:	2900      	cmp	r1, #0
 8000236:	bf08      	it	eq
 8000238:	2800      	cmpeq	r0, #0
 800023a:	bf1c      	itt	ne
 800023c:	f04f 31ff 	movne.w	r1, #4294967295
 8000240:	f04f 30ff 	movne.w	r0, #4294967295
 8000244:	f000 b970 	b.w	8000528 <__aeabi_idiv0>
 8000248:	f1ad 0c08 	sub.w	ip, sp, #8
 800024c:	e96d ce04 	strd	ip, lr, [sp, #-16]!
 8000250:	f000 f806 	bl	8000260 <__udivmoddi4>
 8000254:	f8dd e004 	ldr.w	lr, [sp, #4]
 8000258:	e9dd 2302 	ldrd	r2, r3, [sp, #8]
 800025c:	b004      	add	sp, #16
 800025e:	4770      	bx	lr

08000260 <__udivmoddi4>:
 8000260:	e92d 47f0 	stmdb	sp!, {r4, r5, r6, r7, r8, r9, sl, lr}
 8000264:	9e08      	ldr	r6, [sp, #32]
 8000266:	460d      	mov	r5, r1
 8000268:	4604      	mov	r4, r0
 800026a:	460f      	mov	r7, r1
 800026c:	2b00      	cmp	r3, #0
 800026e:	d14a      	bne.n	8000306 <__udivmoddi4+0xa6>
 8000270:	428a      	cmp	r2, r1
 8000272:	4694      	mov	ip, r2
 8000274:	d965      	bls.n	8000342 <__udivmoddi4+0xe2>
 8000276:	fab2 f382 	clz	r3, r2
 800027a:	b143      	cbz	r3, 800028e <__udivmoddi4+0x2e>
 800027c:	fa02 fc03 	lsl.w	ip, r2, r3
 8000280:	f1c3 0220 	rsb	r2, r3, #32
 8000284:	409f      	lsls	r7, r3
 8000286:	fa20 f202 	lsr.w	r2, r0, r2
 800028a:	4317      	orrs	r7, r2
 800028c:	409c      	lsls	r4, r3
 800028e:	ea4f 4e1c 	mov.w	lr, ip, lsr #16
 8000292:	fa1f f58c 	uxth.w	r5, ip
 8000296:	fbb7 f1fe 	udiv	r1, r7, lr
 800029a:	0c22      	lsrs	r2, r4, #16
 800029c:	fb0e 7711 	mls	r7, lr, r1, r7
 80002a0:	ea42 4207 	orr.w	r2, r2, r7, lsl #16
 80002a4:	fb01 f005 	mul.w	r0, r1, r5
 80002a8:	4290      	cmp	r0, r2
 80002aa:	d90a      	bls.n	80002c2 <__udivmoddi4+0x62>
 80002ac:	eb1c 0202 	adds.w	r2, ip, r2
 80002b0:	f101 37ff 	add.w	r7, r1, #4294967295
 80002b4:	f080 811b 	bcs.w	80004ee <__udivmoddi4+0x28e>
 80002b8:	4290      	cmp	r0, r2
 80002ba:	f240 8118 	bls.w	80004ee <__udivmoddi4+0x28e>
 80002be:	3902      	subs	r1, #2
 80002c0:	4462      	add	r2, ip
 80002c2:	1a12      	subs	r2, r2, r0
 80002c4:	b2a4      	uxth	r4, r4
 80002c6:	fbb2 f0fe 	udiv	r0, r2, lr
 80002ca:	fb0e 2210 	mls	r2, lr, r0, r2
 80002ce:	ea44 4402 	orr.w	r4, r4, r2, lsl #16
 80002d2:	fb00 f505 	mul.w	r5, r0, r5
 80002d6:	42a5      	cmp	r5, r4
 80002d8:	d90a      	bls.n	80002f0 <__udivmoddi4+0x90>
 80002da:	eb1c 0404 	adds.w	r4, ip, r4
 80002de:	f100 32ff 	add.w	r2, r0, #4294967295
 80002e2:	f080 8106 	bcs.w	80004f2 <__udivmoddi4+0x292>
 80002e6:	42a5      	cmp	r5, r4
 80002e8:	f240 8103 	bls.w	80004f2 <__udivmoddi4+0x292>
 80002ec:	4464      	add	r4, ip
 80002ee:	3802      	subs	r0, #2
 80002f0:	ea40 4001 	orr.w	r0, r0, r1, lsl #16
 80002f4:	1b64      	subs	r4, r4, r5
 80002f6:	2100      	movs	r1, #0
 80002f8:	b11e      	cbz	r6, 8000302 <__udivmoddi4+0xa2>
 80002fa:	40dc      	lsrs	r4, r3
 80002fc:	2300      	movs	r3, #0
 80002fe:	e9c6 4300 	strd	r4, r3, [r6]
 8000302:	e8bd 87f0 	ldmia.w	sp!, {r4, r5, r6, r7, r8, r9, sl, pc}
 8000306:	428b      	cmp	r3, r1
 8000308:	d908      	bls.n	800031c <__udivmoddi4+0xbc>
 800030a:	2e00      	cmp	r6, #0
 800030c:	f000 80ec 	beq.w	80004e8 <__udivmoddi4+0x288>
 8000310:	2100      	movs	r1, #0
 8000312:	e9c6 0500 	strd	r0, r5, [r6]
 8000316:	4608      	mov	r0, r1
 8000318:	e8bd 87f0 	ldmia.w	sp!, {r4, r5, r6, r7, r8, r9, sl, pc}
 800031c:	fab3 f183 	clz	r1, r3
 8000320:	2900      	cmp	r1, #0
 8000322:	d149      	bne.n	80003b8 <__udivmoddi4+0x158>
 8000324:	42ab      	cmp	r3, r5
 8000326:	d302      	bcc.n	800032e <__udivmoddi4+0xce>
 8000328:	4282      	cmp	r2, r0
 800032a:	f200 80f7 	bhi.w	800051c <__udivmoddi4+0x2bc>
 800032e:	1a84      	subs	r4, r0, r2
 8000330:	eb65 0203 	sbc.w	r2, r5, r3
 8000334:	2001      	movs	r0, #1
 8000336:	4617      	mov	r7, r2
 8000338:	2e00      	cmp	r6, #0
 800033a:	d0e2      	beq.n	8000302 <__udivmoddi4+0xa2>
 800033c:	e9c6 4700 	strd	r4, r7, [r6]
 8000340:	e7df      	b.n	8000302 <__udivmoddi4+0xa2>
 8000342:	b902      	cbnz	r2, 8000346 <__udivmoddi4+0xe6>
 8000344:	deff      	udf	#255	; 0xff
 8000346:	fab2 f382 	clz	r3, r2
 800034a:	2b00      	cmp	r3, #0
 800034c:	f040 808f 	bne.w	800046e <__udivmoddi4+0x20e>
 8000350:	1a8a      	subs	r2, r1, r2
 8000352:	ea4f 471c 	mov.w	r7, ip, lsr #16
 8000356:	fa1f fe8c 	uxth.w	lr, ip
 800035a:	2101      	movs	r1, #1
 800035c:	fbb2 f5f7 	udiv	r5, r2, r7
 8000360:	fb07 2015 	mls	r0, r7, r5, r2
 8000364:	0c22      	lsrs	r2, r4, #16
 8000366:	ea42 4200 	orr.w	r2, r2, r0, lsl #16
 800036a:	fb0e f005 	mul.w	r0, lr, r5
 800036e:	4290      	cmp	r0, r2
 8000370:	d908      	bls.n	8000384 <__udivmoddi4+0x124>
 8000372:	eb1c 0202 	adds.w	r2, ip, r2
 8000376:	f105 38ff 	add.w	r8, r5, #4294967295
 800037a:	d202      	bcs.n	8000382 <__udivmoddi4+0x122>
 800037c:	4290      	cmp	r0, r2
 800037e:	f200 80ca 	bhi.w	8000516 <__udivmoddi4+0x2b6>
 8000382:	4645      	mov	r5, r8
 8000384:	1a12      	subs	r2, r2, r0
 8000386:	b2a4      	uxth	r4, r4
 8000388:	fbb2 f0f7 	udiv	r0, r2, r7
 800038c:	fb07 2210 	mls	r2, r7, r0, r2
 8000390:	ea44 4402 	orr.w	r4, r4, r2, lsl #16
 8000394:	fb0e fe00 	mul.w	lr, lr, r0
 8000398:	45a6      	cmp	lr, r4
 800039a:	d908      	bls.n	80003ae <__udivmoddi4+0x14e>
 800039c:	eb1c 0404 	adds.w	r4, ip, r4
 80003a0:	f100 32ff 	add.w	r2, r0, #4294967295
 80003a4:	d202      	bcs.n	80003ac <__udivmoddi4+0x14c>
 80003a6:	45a6      	cmp	lr, r4
 80003a8:	f200 80ba 	bhi.w	8000520 <__udivmoddi4+0x2c0>
 80003ac:	4610      	mov	r0, r2
 80003ae:	eba4 040e 	sub.w	r4, r4, lr
 80003b2:	ea40 4005 	orr.w	r0, r0, r5, lsl #16
 80003b6:	e79f      	b.n	80002f8 <__udivmoddi4+0x98>
 80003b8:	f1c1 0720 	rsb	r7, r1, #32
 80003bc:	408b      	lsls	r3, r1
 80003be:	fa22 fc07 	lsr.w	ip, r2, r7
 80003c2:	ea4c 0c03 	orr.w	ip, ip, r3
 80003c6:	fa05 f401 	lsl.w	r4, r5, r1
 80003ca:	fa20 f307 	lsr.w	r3, r0, r7
 80003ce:	40fd      	lsrs	r5, r7
 80003d0:	4323      	orrs	r3, r4
 80003d2:	fa00 f901 	lsl.w	r9, r0, r1
 80003d6:	ea4f 401c 	mov.w	r0, ip, lsr #16
 80003da:	fa1f fe8c 	uxth.w	lr, ip
 80003de:	fbb5 f8f0 	udiv	r8, r5, r0
 80003e2:	0c1c      	lsrs	r4, r3, #16
 80003e4:	fb00 5518 	mls	r5, r0, r8, r5
 80003e8:	ea44 4405 	orr.w	r4, r4, r5, lsl #16
 80003ec:	fb08 f50e 	mul.w	r5, r8, lr
 80003f0:	42a5      	cmp	r5, r4
 80003f2:	fa02 f201 	lsl.w	r2, r2, r1
 80003f6:	d90b      	bls.n	8000410 <__udivmoddi4+0x1b0>
 80003f8:	eb1c 0404 	adds.w	r4, ip, r4
 80003fc:	f108 3aff 	add.w	sl, r8, #4294967295
 8000400:	f080 8087 	bcs.w	8000512 <__udivmoddi4+0x2b2>
 8000404:	42a5      	cmp	r5, r4
 8000406:	f240 8084 	bls.w	8000512 <__udivmoddi4+0x2b2>
 800040a:	f1a8 0802 	sub.w	r8, r8, #2
 800040e:	4464      	add	r4, ip
 8000410:	1b64      	subs	r4, r4, r5
 8000412:	b29d      	uxth	r5, r3
 8000414:	fbb4 f3f0 	udiv	r3, r4, r0
 8000418:	fb00 4413 	mls	r4, r0, r3, r4
 800041c:	ea45 4404 	orr.w	r4, r5, r4, lsl #16
 8000420:	fb03 fe0e 	mul.w	lr, r3, lr
 8000424:	45a6      	cmp	lr, r4
 8000426:	d908      	bls.n	800043a <__udivmoddi4+0x1da>
 8000428:	eb1c 0404 	adds.w	r4, ip, r4
 800042c:	f103 30ff 	add.w	r0, r3, #4294967295
 8000430:	d26b      	bcs.n	800050a <__udivmoddi4+0x2aa>
 8000432:	45a6      	cmp	lr, r4
 8000434:	d969      	bls.n	800050a <__udivmoddi4+0x2aa>
 8000436:	3b02      	subs	r3, #2
 8000438:	4464      	add	r4, ip
 800043a:	ea43 4008 	orr.w	r0, r3, r8, lsl #16
 800043e:	fba0 8302 	umull	r8, r3, r0, r2
 8000442:	eba4 040e 	sub.w	r4, r4, lr
 8000446:	429c      	cmp	r4, r3
 8000448:	46c6      	mov	lr, r8
 800044a:	461d      	mov	r5, r3
 800044c:	d355      	bcc.n	80004fa <__udivmoddi4+0x29a>
 800044e:	d052      	beq.n	80004f6 <__udivmoddi4+0x296>
 8000450:	b156      	cbz	r6, 8000468 <__udivmoddi4+0x208>
 8000452:	ebb9 030e 	subs.w	r3, r9, lr
 8000456:	eb64 0405 	sbc.w	r4, r4, r5
 800045a:	fa04 f707 	lsl.w	r7, r4, r7
 800045e:	40cb      	lsrs	r3, r1
 8000460:	40cc      	lsrs	r4, r1
 8000462:	431f      	orrs	r7, r3
 8000464:	e9c6 7400 	strd	r7, r4, [r6]
 8000468:	2100      	movs	r1, #0
 800046a:	e8bd 87f0 	ldmia.w	sp!, {r4, r5, r6, r7, r8, r9, sl, pc}
 800046e:	f1c3 0120 	rsb	r1, r3, #32
 8000472:	fa02 fc03 	lsl.w	ip, r2, r3
 8000476:	fa20 f201 	lsr.w	r2, r0, r1
 800047a:	fa25 f101 	lsr.w	r1, r5, r1
 800047e:	409d      	lsls	r5, r3
 8000480:	432a      	orrs	r2, r5
 8000482:	ea4f 471c 	mov.w	r7, ip, lsr #16
 8000486:	fa1f fe8c 	uxth.w	lr, ip
 800048a:	fbb1 f0f7 	udiv	r0, r1, r7
 800048e:	fb07 1510 	mls	r5, r7, r0, r1
 8000492:	0c11      	lsrs	r1, r2, #16
 8000494:	ea41 4105 	orr.w	r1, r1, r5, lsl #16
 8000498:	fb00 f50e 	mul.w	r5, r0, lr
 800049c:	428d      	cmp	r5, r1
 800049e:	fa04 f403 	lsl.w	r4, r4, r3
 80004a2:	d908      	bls.n	80004b6 <__udivmoddi4+0x256>
 80004a4:	eb1c 0101 	adds.w	r1, ip, r1
 80004a8:	f100 38ff 	add.w	r8, r0, #4294967295
 80004ac:	d22f      	bcs.n	800050e <__udivmoddi4+0x2ae>
 80004ae:	428d      	cmp	r5, r1
 80004b0:	d92d      	bls.n	800050e <__udivmoddi4+0x2ae>
 80004b2:	3802      	subs	r0, #2
 80004b4:	4461      	add	r1, ip
 80004b6:	1b49      	subs	r1, r1, r5
 80004b8:	b292      	uxth	r2, r2
 80004ba:	fbb1 f5f7 	udiv	r5, r1, r7
 80004be:	fb07 1115 	mls	r1, r7, r5, r1
 80004c2:	ea42 4201 	orr.w	r2, r2, r1, lsl #16
 80004c6:	fb05 f10e 	mul.w	r1, r5, lr
 80004ca:	4291      	cmp	r1, r2
 80004cc:	d908      	bls.n	80004e0 <__udivmoddi4+0x280>
 80004ce:	eb1c 0202 	adds.w	r2, ip, r2
 80004d2:	f105 38ff 	add.w	r8, r5, #4294967295
 80004d6:	d216      	bcs.n	8000506 <__udivmoddi4+0x2a6>
 80004d8:	4291      	cmp	r1, r2
 80004da:	d914      	bls.n	8000506 <__udivmoddi4+0x2a6>
 80004dc:	3d02      	subs	r5, #2
 80004de:	4462      	add	r2, ip
 80004e0:	1a52      	subs	r2, r2, r1
 80004e2:	ea45 4100 	orr.w	r1, r5, r0, lsl #16
 80004e6:	e739      	b.n	800035c <__udivmoddi4+0xfc>
 80004e8:	4631      	mov	r1, r6
 80004ea:	4630      	mov	r0, r6
 80004ec:	e709      	b.n	8000302 <__udivmoddi4+0xa2>
 80004ee:	4639      	mov	r1, r7
 80004f0:	e6e7      	b.n	80002c2 <__udivmoddi4+0x62>
 80004f2:	4610      	mov	r0, r2
 80004f4:	e6fc      	b.n	80002f0 <__udivmoddi4+0x90>
 80004f6:	45c1      	cmp	r9, r8
 80004f8:	d2aa      	bcs.n	8000450 <__udivmoddi4+0x1f0>
 80004fa:	ebb8 0e02 	subs.w	lr, r8, r2
 80004fe:	eb63 050c 	sbc.w	r5, r3, ip
 8000502:	3801      	subs	r0, #1
 8000504:	e7a4      	b.n	8000450 <__udivmoddi4+0x1f0>
 8000506:	4645      	mov	r5, r8
 8000508:	e7ea      	b.n	80004e0 <__udivmoddi4+0x280>
 800050a:	4603      	mov	r3, r0
 800050c:	e795      	b.n	800043a <__udivmoddi4+0x1da>
 800050e:	4640      	mov	r0, r8
 8000510:	e7d1      	b.n	80004b6 <__udivmoddi4+0x256>
 8000512:	46d0      	mov	r8, sl
 8000514:	e77c      	b.n	8000410 <__udivmoddi4+0x1b0>
 8000516:	3d02      	subs	r5, #2
 8000518:	4462      	add	r2, ip
 800051a:	e733      	b.n	8000384 <__udivmoddi4+0x124>
 800051c:	4608      	mov	r0, r1
 800051e:	e70b      	b.n	8000338 <__udivmoddi4+0xd8>
 8000520:	4464      	add	r4, ip
 8000522:	3802      	subs	r0, #2
 8000524:	e743      	b.n	80003ae <__udivmoddi4+0x14e>
 8000526:	bf00      	nop

08000528 <__aeabi_idiv0>:
 8000528:	4770      	bx	lr
 800052a:	bf00      	nop

0800052c <MX_DMA_Init>:

/**
  * Enable DMA controller clock
  */
void MX_DMA_Init(void)
{
 800052c:	b500      	push	{lr}
 800052e:	b083      	sub	sp, #12
  * @retval None
  */
__STATIC_INLINE void LL_AHB1_GRP1_EnableClock(uint32_t Periphs)
{
  __IO uint32_t tmpreg;
  SET_BIT(RCC->AHB1ENR, Periphs);
 8000530:	f04f 43b0 	mov.w	r3, #1476395008	; 0x58000000
 8000534:	6c9a      	ldr	r2, [r3, #72]	; 0x48
 8000536:	f042 0204 	orr.w	r2, r2, #4
 800053a:	649a      	str	r2, [r3, #72]	; 0x48
  /* Delay after an RCC peripheral clock enabling */
  tmpreg = READ_BIT(RCC->AHB1ENR, Periphs);
 800053c:	6c9a      	ldr	r2, [r3, #72]	; 0x48
 800053e:	f002 0204 	and.w	r2, r2, #4
 8000542:	9201      	str	r2, [sp, #4]
  (void)tmpreg;
 8000544:	9a01      	ldr	r2, [sp, #4]
  SET_BIT(RCC->AHB1ENR, Periphs);
 8000546:	6c9a      	ldr	r2, [r3, #72]	; 0x48
 8000548:	f042 0201 	orr.w	r2, r2, #1
 800054c:	649a      	str	r2, [r3, #72]	; 0x48
  tmpreg = READ_BIT(RCC->AHB1ENR, Periphs);
 800054e:	6c9b      	ldr	r3, [r3, #72]	; 0x48
 8000550:	f003 0301 	and.w	r3, r3, #1
 8000554:	9300      	str	r3, [sp, #0]
  (void)tmpreg;
 8000556:	9b00      	ldr	r3, [sp, #0]
  __HAL_RCC_DMAMUX1_CLK_ENABLE();
  __HAL_RCC_DMA1_CLK_ENABLE();

  /* DMA interrupt init */
  /* DMA1_Channel1_IRQn interrupt configuration */
  HAL_NVIC_SetPriority(DMA1_Channel1_IRQn, 0, 0);
 8000558:	2200      	movs	r2, #0
 800055a:	4611      	mov	r1, r2
 800055c:	200b      	movs	r0, #11
 800055e:	f001 fa15 	bl	800198c <HAL_NVIC_SetPriority>
  HAL_NVIC_EnableIRQ(DMA1_Channel1_IRQn);
 8000562:	200b      	movs	r0, #11
 8000564:	f001 fa4a 	bl	80019fc <HAL_NVIC_EnableIRQ>
  /* DMA1_Channel5_IRQn interrupt configuration */
  HAL_NVIC_SetPriority(DMA1_Channel5_IRQn, 2, 0);
 8000568:	2200      	movs	r2, #0
 800056a:	2102      	movs	r1, #2
 800056c:	200f      	movs	r0, #15
 800056e:	f001 fa0d 	bl	800198c <HAL_NVIC_SetPriority>
  HAL_NVIC_EnableIRQ(DMA1_Channel5_IRQn);
 8000572:	200f      	movs	r0, #15
 8000574:	f001 fa42 	bl	80019fc <HAL_NVIC_EnableIRQ>

}
 8000578:	b003      	add	sp, #12
 800057a:	f85d fb04 	ldr.w	pc, [sp], #4
	...

08000580 <MX_GPIO_Init>:
        * Output
        * EVENT_OUT
        * EXTI
*/
void MX_GPIO_Init(void)
{
 8000580:	e92d 41f0 	stmdb	sp!, {r4, r5, r6, r7, r8, lr}
 8000584:	b088      	sub	sp, #32

  GPIO_InitTypeDef GPIO_InitStruct = {0};
 8000586:	2400      	movs	r4, #0
 8000588:	9403      	str	r4, [sp, #12]
 800058a:	9404      	str	r4, [sp, #16]
 800058c:	9405      	str	r4, [sp, #20]
 800058e:	9406      	str	r4, [sp, #24]
 8000590:	9407      	str	r4, [sp, #28]
  * @retval None
  */
__STATIC_INLINE void LL_AHB2_GRP1_EnableClock(uint32_t Periphs)
{
  __IO uint32_t tmpreg;
  SET_BIT(RCC->AHB2ENR, Periphs);
 8000592:	f04f 43b0 	mov.w	r3, #1476395008	; 0x58000000
 8000596:	6cda      	ldr	r2, [r3, #76]	; 0x4c
 8000598:	f042 0202 	orr.w	r2, r2, #2
 800059c:	64da      	str	r2, [r3, #76]	; 0x4c
  /* Delay after an RCC peripheral clock enabling */
  tmpreg = READ_BIT(RCC->AHB2ENR, Periphs);
 800059e:	6cda      	ldr	r2, [r3, #76]	; 0x4c
 80005a0:	f002 0202 	and.w	r2, r2, #2
 80005a4:	9202      	str	r2, [sp, #8]
  (void)tmpreg;
 80005a6:	9a02      	ldr	r2, [sp, #8]
  SET_BIT(RCC->AHB2ENR, Periphs);
 80005a8:	6cda      	ldr	r2, [r3, #76]	; 0x4c
 80005aa:	f042 0204 	orr.w	r2, r2, #4
 80005ae:	64da      	str	r2, [r3, #76]	; 0x4c
  tmpreg = READ_BIT(RCC->AHB2ENR, Periphs);
 80005b0:	6cda      	ldr	r2, [r3, #76]	; 0x4c
 80005b2:	f002 0204 	and.w	r2, r2, #4
 80005b6:	9201      	str	r2, [sp, #4]
  (void)tmpreg;
 80005b8:	9a01      	ldr	r2, [sp, #4]
  SET_BIT(RCC->AHB2ENR, Periphs);
 80005ba:	6cda      	ldr	r2, [r3, #76]	; 0x4c
 80005bc:	f042 0201 	orr.w	r2, r2, #1
 80005c0:	64da      	str	r2, [r3, #76]	; 0x4c
  tmpreg = READ_BIT(RCC->AHB2ENR, Periphs);
 80005c2:	6cdb      	ldr	r3, [r3, #76]	; 0x4c
 80005c4:	f003 0301 	and.w	r3, r3, #1
 80005c8:	9300      	str	r3, [sp, #0]
  (void)tmpreg;
 80005ca:	9b00      	ldr	r3, [sp, #0]
  __HAL_RCC_GPIOB_CLK_ENABLE();
  __HAL_RCC_GPIOC_CLK_ENABLE();
  __HAL_RCC_GPIOA_CLK_ENABLE();

  /*Configure GPIO pin Output Level */
  HAL_GPIO_WritePin(GPIOB, LED1_Pin|LED2_Pin|PROB2_Pin|PROB1_Pin
 80005cc:	4e1a      	ldr	r6, [pc, #104]	; (8000638 <MX_GPIO_Init+0xb8>)
 80005ce:	4622      	mov	r2, r4
 80005d0:	f44f 413a 	mov.w	r1, #47616	; 0xba00
 80005d4:	4630      	mov	r0, r6
 80005d6:	f001 fe07 	bl	80021e8 <HAL_GPIO_WritePin>
                          |LED3_Pin, GPIO_PIN_RESET);

  /*Configure GPIO pins : PBPin PBPin PBPin */
  GPIO_InitStruct.Pin = LED1_Pin|LED2_Pin|LED3_Pin;
 80005da:	f44f 430a 	mov.w	r3, #35328	; 0x8a00
 80005de:	9303      	str	r3, [sp, #12]
  GPIO_InitStruct.Mode = GPIO_MODE_OUTPUT_PP;
 80005e0:	2501      	movs	r5, #1
 80005e2:	9504      	str	r5, [sp, #16]
  GPIO_InitStruct.Pull = GPIO_NOPULL;
 80005e4:	9405      	str	r4, [sp, #20]
  GPIO_InitStruct.Speed = GPIO_SPEED_FREQ_HIGH;
 80005e6:	2302      	movs	r3, #2
 80005e8:	9306      	str	r3, [sp, #24]
  HAL_GPIO_Init(GPIOB, &GPIO_InitStruct);
 80005ea:	a903      	add	r1, sp, #12
 80005ec:	4630      	mov	r0, r6
 80005ee:	f001 fcab 	bl	8001f48 <HAL_GPIO_Init>

  /*Configure GPIO pins : PAPin PAPin */
  GPIO_InitStruct.Pin = BUT1_Pin|BUT2_Pin;
 80005f2:	f04f 0803 	mov.w	r8, #3
 80005f6:	f8cd 800c 	str.w	r8, [sp, #12]
  GPIO_InitStruct.Mode = GPIO_MODE_IT_FALLING;
 80005fa:	f44f 1704 	mov.w	r7, #2162688	; 0x210000
 80005fe:	9704      	str	r7, [sp, #16]
  GPIO_InitStruct.Pull = GPIO_PULLUP;
 8000600:	9505      	str	r5, [sp, #20]
  HAL_GPIO_Init(GPIOA, &GPIO_InitStruct);
 8000602:	a903      	add	r1, sp, #12
 8000604:	f04f 4090 	mov.w	r0, #1207959552	; 0x48000000
 8000608:	f001 fc9e 	bl	8001f48 <HAL_GPIO_Init>

  /*Configure GPIO pins : PBPin PBPin */
  GPIO_InitStruct.Pin = PROB2_Pin|PROB1_Pin;
 800060c:	f44f 5340 	mov.w	r3, #12288	; 0x3000
 8000610:	9303      	str	r3, [sp, #12]
  GPIO_InitStruct.Mode = GPIO_MODE_OUTPUT_PP;
 8000612:	9504      	str	r5, [sp, #16]
  GPIO_InitStruct.Pull = GPIO_NOPULL;
 8000614:	9405      	str	r4, [sp, #20]
  GPIO_InitStruct.Speed = GPIO_SPEED_FREQ_VERY_HIGH;
 8000616:	f8cd 8018 	str.w	r8, [sp, #24]
  HAL_GPIO_Init(GPIOB, &GPIO_InitStruct);
 800061a:	a903      	add	r1, sp, #12
 800061c:	4630      	mov	r0, r6
 800061e:	f001 fc93 	bl	8001f48 <HAL_GPIO_Init>

  /*Configure GPIO pin : PtPin */
  GPIO_InitStruct.Pin = BUT3_Pin;
 8000622:	2340      	movs	r3, #64	; 0x40
 8000624:	9303      	str	r3, [sp, #12]
  GPIO_InitStruct.Mode = GPIO_MODE_IT_FALLING;
 8000626:	9704      	str	r7, [sp, #16]
  GPIO_InitStruct.Pull = GPIO_PULLUP;
 8000628:	9505      	str	r5, [sp, #20]
  HAL_GPIO_Init(BUT3_GPIO_Port, &GPIO_InitStruct);
 800062a:	a903      	add	r1, sp, #12
 800062c:	4803      	ldr	r0, [pc, #12]	; (800063c <MX_GPIO_Init+0xbc>)
 800062e:	f001 fc8b 	bl	8001f48 <HAL_GPIO_Init>

}
 8000632:	b008      	add	sp, #32
 8000634:	e8bd 81f0 	ldmia.w	sp!, {r4, r5, r6, r7, r8, pc}
 8000638:	48000400 	.word	0x48000400
 800063c:	48000800 	.word	0x48000800

08000640 <Error_Handler>:
  \details Disables IRQ interrupts by setting the I-bit in the CPSR.
           Can only be executed in Privileged modes.
 */
__STATIC_FORCEINLINE void __disable_irq(void)
{
  __ASM volatile ("cpsid i" : : : "memory");
 8000640:	b672      	cpsid	i
void Error_Handler(void)
{
  /* USER CODE BEGIN Error_Handler_Debug */
  /* User can add his own implementation to report the HAL error return state */
  __disable_irq();
  while (1)
 8000642:	e7fe      	b.n	8000642 <Error_Handler+0x2>

08000644 <SystemClock_Config>:
{
 8000644:	b510      	push	{r4, lr}
 8000646:	b09a      	sub	sp, #104	; 0x68
  RCC_OscInitTypeDef RCC_OscInitStruct = {0};
 8000648:	2248      	movs	r2, #72	; 0x48
 800064a:	2100      	movs	r1, #0
 800064c:	a808      	add	r0, sp, #32
 800064e:	f007 fdec 	bl	800822a <memset>
  RCC_ClkInitTypeDef RCC_ClkInitStruct = {0};
 8000652:	2400      	movs	r4, #0
 8000654:	9401      	str	r4, [sp, #4]
 8000656:	9402      	str	r4, [sp, #8]
 8000658:	9403      	str	r4, [sp, #12]
 800065a:	9404      	str	r4, [sp, #16]
 800065c:	9405      	str	r4, [sp, #20]
 800065e:	9406      	str	r4, [sp, #24]
 8000660:	9407      	str	r4, [sp, #28]
  HAL_PWR_EnableBkUpAccess();
 8000662:	f001 fdcf 	bl	8002204 <HAL_PWR_EnableBkUpAccess>
  *         @arg @ref LL_RCC_LSEDRIVE_HIGH
  * @retval None
  */
__STATIC_INLINE void LL_RCC_LSE_SetDriveCapability(uint32_t LSEDrive)
{
  MODIFY_REG(RCC->BDCR, RCC_BDCR_LSEDRV, LSEDrive);
 8000666:	f04f 42b0 	mov.w	r2, #1476395008	; 0x58000000
 800066a:	f8d2 3090 	ldr.w	r3, [r2, #144]	; 0x90
 800066e:	f023 0318 	bic.w	r3, r3, #24
 8000672:	f8c2 3090 	str.w	r3, [r2, #144]	; 0x90
  __HAL_PWR_VOLTAGESCALING_CONFIG(PWR_REGULATOR_VOLTAGE_SCALE1);
 8000676:	f502 6280 	add.w	r2, r2, #1024	; 0x400
 800067a:	6813      	ldr	r3, [r2, #0]
 800067c:	f423 63c0 	bic.w	r3, r3, #1536	; 0x600
 8000680:	f443 7300 	orr.w	r3, r3, #512	; 0x200
 8000684:	6013      	str	r3, [r2, #0]
 8000686:	6813      	ldr	r3, [r2, #0]
 8000688:	f403 63c0 	and.w	r3, r3, #1536	; 0x600
 800068c:	9300      	str	r3, [sp, #0]
 800068e:	9b00      	ldr	r3, [sp, #0]
  RCC_OscInitStruct.OscillatorType = RCC_OSCILLATORTYPE_LSE|RCC_OSCILLATORTYPE_MSI;
 8000690:	2324      	movs	r3, #36	; 0x24
 8000692:	9308      	str	r3, [sp, #32]
  RCC_OscInitStruct.LSEState = RCC_LSE_ON;
 8000694:	2381      	movs	r3, #129	; 0x81
 8000696:	930b      	str	r3, [sp, #44]	; 0x2c
  RCC_OscInitStruct.MSIState = RCC_MSI_ON;
 8000698:	2301      	movs	r3, #1
 800069a:	9310      	str	r3, [sp, #64]	; 0x40
  RCC_OscInitStruct.MSICalibrationValue = RCC_MSICALIBRATION_DEFAULT;
 800069c:	9411      	str	r4, [sp, #68]	; 0x44
  RCC_OscInitStruct.MSIClockRange = RCC_MSIRANGE_11;
 800069e:	23b0      	movs	r3, #176	; 0xb0
 80006a0:	9312      	str	r3, [sp, #72]	; 0x48
  RCC_OscInitStruct.PLL.PLLState = RCC_PLL_NONE;
 80006a2:	9413      	str	r4, [sp, #76]	; 0x4c
  if (HAL_RCC_OscConfig(&RCC_OscInitStruct) != HAL_OK)
 80006a4:	a808      	add	r0, sp, #32
 80006a6:	f001 ff47 	bl	8002538 <HAL_RCC_OscConfig>
 80006aa:	b970      	cbnz	r0, 80006ca <SystemClock_Config+0x86>
  RCC_ClkInitStruct.ClockType = RCC_CLOCKTYPE_HCLK3|RCC_CLOCKTYPE_HCLK
 80006ac:	234f      	movs	r3, #79	; 0x4f
 80006ae:	9301      	str	r3, [sp, #4]
  RCC_ClkInitStruct.SYSCLKSource = RCC_SYSCLKSOURCE_MSI;
 80006b0:	2300      	movs	r3, #0
 80006b2:	9302      	str	r3, [sp, #8]
  RCC_ClkInitStruct.AHBCLKDivider = RCC_SYSCLK_DIV1;
 80006b4:	9303      	str	r3, [sp, #12]
  RCC_ClkInitStruct.APB1CLKDivider = RCC_HCLK_DIV1;
 80006b6:	9304      	str	r3, [sp, #16]
  RCC_ClkInitStruct.APB2CLKDivider = RCC_HCLK_DIV1;
 80006b8:	9305      	str	r3, [sp, #20]
  RCC_ClkInitStruct.AHBCLK3Divider = RCC_SYSCLK_DIV1;
 80006ba:	9307      	str	r3, [sp, #28]
  if (HAL_RCC_ClockConfig(&RCC_ClkInitStruct, FLASH_LATENCY_2) != HAL_OK)
 80006bc:	2102      	movs	r1, #2
 80006be:	a801      	add	r0, sp, #4
 80006c0:	f002 fa6c 	bl	8002b9c <HAL_RCC_ClockConfig>
 80006c4:	b918      	cbnz	r0, 80006ce <SystemClock_Config+0x8a>
}
 80006c6:	b01a      	add	sp, #104	; 0x68
 80006c8:	bd10      	pop	{r4, pc}
    Error_Handler();
 80006ca:	f7ff ffb9 	bl	8000640 <Error_Handler>
    Error_Handler();
 80006ce:	f7ff ffb7 	bl	8000640 <Error_Handler>

080006d2 <main>:
{
 80006d2:	b508      	push	{r3, lr}
  HAL_Init();
 80006d4:	f001 f90c 	bl	80018f0 <HAL_Init>
  SystemClock_Config();
 80006d8:	f7ff ffb4 	bl	8000644 <SystemClock_Config>
  MX_GPIO_Init();
 80006dc:	f7ff ff50 	bl	8000580 <MX_GPIO_Init>
  MX_SubGHz_Phy_Init();
 80006e0:	f000 fd05 	bl	80010ee <MX_SubGHz_Phy_Init>
    MX_SubGHz_Phy_Process();
 80006e4:	f000 fd09 	bl	80010fa <MX_SubGHz_Phy_Process>
  while (1)
 80006e8:	e7fc      	b.n	80006e4 <main+0x12>
	...

080006ec <MX_RTC_Init>:

RTC_HandleTypeDef hrtc;

/* RTC init function */
void MX_RTC_Init(void)
{
 80006ec:	b500      	push	{lr}
 80006ee:	b08d      	sub	sp, #52	; 0x34

  /* USER CODE BEGIN RTC_Init 0 */

  /* USER CODE END RTC_Init 0 */

  RTC_AlarmTypeDef sAlarm = {0};
 80006f0:	222c      	movs	r2, #44	; 0x2c
 80006f2:	2100      	movs	r1, #0
 80006f4:	a801      	add	r0, sp, #4
 80006f6:	f007 fd98 	bl	800822a <memset>

  /* USER CODE END RTC_Init 1 */

  /** Initialize RTC Only
  */
  hrtc.Instance = RTC;
 80006fa:	4819      	ldr	r0, [pc, #100]	; (8000760 <MX_RTC_Init+0x74>)
 80006fc:	4b19      	ldr	r3, [pc, #100]	; (8000764 <MX_RTC_Init+0x78>)
 80006fe:	6003      	str	r3, [r0, #0]
  hrtc.Init.AsynchPrediv = RTC_PREDIV_A;
 8000700:	231f      	movs	r3, #31
 8000702:	6083      	str	r3, [r0, #8]
  hrtc.Init.OutPut = RTC_OUTPUT_DISABLE;
 8000704:	2300      	movs	r3, #0
 8000706:	6103      	str	r3, [r0, #16]
  hrtc.Init.OutPutRemap = RTC_OUTPUT_REMAP_NONE;
 8000708:	6143      	str	r3, [r0, #20]
  hrtc.Init.OutPutPolarity = RTC_OUTPUT_POLARITY_HIGH;
 800070a:	6183      	str	r3, [r0, #24]
  hrtc.Init.OutPutType = RTC_OUTPUT_TYPE_OPENDRAIN;
 800070c:	f04f 4280 	mov.w	r2, #1073741824	; 0x40000000
 8000710:	61c2      	str	r2, [r0, #28]
  hrtc.Init.OutPutPullUp = RTC_OUTPUT_PULLUP_NONE;
 8000712:	6203      	str	r3, [r0, #32]
  hrtc.Init.BinMode = RTC_BINARY_ONLY;
 8000714:	f44f 7380 	mov.w	r3, #256	; 0x100
 8000718:	6243      	str	r3, [r0, #36]	; 0x24
  if (HAL_RTC_Init(&hrtc) != HAL_OK)
 800071a:	f002 fda3 	bl	8003264 <HAL_RTC_Init>
 800071e:	b9a8      	cbnz	r0, 800074c <MX_RTC_Init+0x60>

  /* USER CODE END Check_RTC_BKUP */

  /** Initialize RTC and set the Time and Date
  */
  if (HAL_RTCEx_SetSSRU_IT(&hrtc) != HAL_OK)
 8000720:	480f      	ldr	r0, [pc, #60]	; (8000760 <MX_RTC_Init+0x74>)
 8000722:	f002 fee1 	bl	80034e8 <HAL_RTCEx_SetSSRU_IT>
 8000726:	b9a0      	cbnz	r0, 8000752 <MX_RTC_Init+0x66>
    Error_Handler();
  }

  /** Enable the Alarm A
  */
  sAlarm.BinaryAutoClr = RTC_ALARMSUBSECONDBIN_AUTOCLR_NO;
 8000728:	2200      	movs	r2, #0
 800072a:	9208      	str	r2, [sp, #32]
  sAlarm.AlarmTime.SubSeconds = 0x0;
 800072c:	9202      	str	r2, [sp, #8]
  sAlarm.AlarmMask = RTC_ALARMMASK_NONE;
 800072e:	9206      	str	r2, [sp, #24]
  sAlarm.AlarmSubSecondMask = RTC_ALARMSUBSECONDBINMASK_NONE;
 8000730:	f04f 5300 	mov.w	r3, #536870912	; 0x20000000
 8000734:	9307      	str	r3, [sp, #28]
  sAlarm.Alarm = RTC_ALARM_A;
 8000736:	f44f 7380 	mov.w	r3, #256	; 0x100
 800073a:	930b      	str	r3, [sp, #44]	; 0x2c
  if (HAL_RTC_SetAlarm_IT(&hrtc, &sAlarm, 0) != HAL_OK)
 800073c:	a901      	add	r1, sp, #4
 800073e:	4808      	ldr	r0, [pc, #32]	; (8000760 <MX_RTC_Init+0x74>)
 8000740:	f002 fdf6 	bl	8003330 <HAL_RTC_SetAlarm_IT>
 8000744:	b940      	cbnz	r0, 8000758 <MX_RTC_Init+0x6c>
  }
  /* USER CODE BEGIN RTC_Init 2 */

  /* USER CODE END RTC_Init 2 */

}
 8000746:	b00d      	add	sp, #52	; 0x34
 8000748:	f85d fb04 	ldr.w	pc, [sp], #4
    Error_Handler();
 800074c:	f7ff ff78 	bl	8000640 <Error_Handler>
 8000750:	e7e6      	b.n	8000720 <MX_RTC_Init+0x34>
    Error_Handler();
 8000752:	f7ff ff75 	bl	8000640 <Error_Handler>
 8000756:	e7e7      	b.n	8000728 <MX_RTC_Init+0x3c>
    Error_Handler();
 8000758:	f7ff ff72 	bl	8000640 <Error_Handler>
}
 800075c:	e7f3      	b.n	8000746 <MX_RTC_Init+0x5a>
 800075e:	bf00      	nop
 8000760:	200000b4 	.word	0x200000b4
 8000764:	40002800 	.word	0x40002800

08000768 <HAL_RTC_MspInit>:

void HAL_RTC_MspInit(RTC_HandleTypeDef* rtcHandle)
{
 8000768:	b510      	push	{r4, lr}
 800076a:	b090      	sub	sp, #64	; 0x40
 800076c:	4604      	mov	r4, r0

  RCC_PeriphCLKInitTypeDef PeriphClkInitStruct = {0};
 800076e:	2238      	movs	r2, #56	; 0x38
 8000770:	2100      	movs	r1, #0
 8000772:	a802      	add	r0, sp, #8
 8000774:	f007 fd59 	bl	800822a <memset>
  if(rtcHandle->Instance==RTC)
 8000778:	6822      	ldr	r2, [r4, #0]
 800077a:	4b1a      	ldr	r3, [pc, #104]	; (80007e4 <HAL_RTC_MspInit+0x7c>)
 800077c:	429a      	cmp	r2, r3
 800077e:	d001      	beq.n	8000784 <HAL_RTC_MspInit+0x1c>
    HAL_NVIC_EnableIRQ(RTC_Alarm_IRQn);
  /* USER CODE BEGIN RTC_MspInit 1 */

  /* USER CODE END RTC_MspInit 1 */
  }
}
 8000780:	b010      	add	sp, #64	; 0x40
 8000782:	bd10      	pop	{r4, pc}
    PeriphClkInitStruct.PeriphClockSelection = RCC_PERIPHCLK_RTC;
 8000784:	f44f 3380 	mov.w	r3, #65536	; 0x10000
 8000788:	9302      	str	r3, [sp, #8]
    PeriphClkInitStruct.RTCClockSelection = RCC_RTCCLKSOURCE_LSE;
 800078a:	f44f 7380 	mov.w	r3, #256	; 0x100
 800078e:	930f      	str	r3, [sp, #60]	; 0x3c
    if (HAL_RCCEx_PeriphCLKConfig(&PeriphClkInitStruct) != HAL_OK)
 8000790:	a802      	add	r0, sp, #8
 8000792:	f002 fb57 	bl	8002e44 <HAL_RCCEx_PeriphCLKConfig>
 8000796:	bb08      	cbnz	r0, 80007dc <HAL_RTC_MspInit+0x74>
  * @rmtoll BDCR         RTCEN         LL_RCC_EnableRTC
  * @retval None
  */
__STATIC_INLINE void LL_RCC_EnableRTC(void)
{
  SET_BIT(RCC->BDCR, RCC_BDCR_RTCEN);
 8000798:	f04f 43b0 	mov.w	r3, #1476395008	; 0x58000000
 800079c:	f8d3 2090 	ldr.w	r2, [r3, #144]	; 0x90
 80007a0:	f442 4200 	orr.w	r2, r2, #32768	; 0x8000
 80007a4:	f8c3 2090 	str.w	r2, [r3, #144]	; 0x90
  * @retval None
  */
__STATIC_INLINE void LL_APB1_GRP1_EnableClock(uint32_t Periphs)
{
  __IO uint32_t tmpreg;
  SET_BIT(RCC->APB1ENR1, Periphs);
 80007a8:	6d9a      	ldr	r2, [r3, #88]	; 0x58
 80007aa:	f442 6280 	orr.w	r2, r2, #1024	; 0x400
 80007ae:	659a      	str	r2, [r3, #88]	; 0x58
  /* Delay after an RCC peripheral clock enabling */
  tmpreg = READ_BIT(RCC->APB1ENR1, Periphs);
 80007b0:	6d9b      	ldr	r3, [r3, #88]	; 0x58
 80007b2:	f403 6380 	and.w	r3, r3, #1024	; 0x400
 80007b6:	9301      	str	r3, [sp, #4]
  (void)tmpreg;
 80007b8:	9b01      	ldr	r3, [sp, #4]
    HAL_NVIC_SetPriority(TAMP_STAMP_LSECSS_SSRU_IRQn, 0, 0);
 80007ba:	2200      	movs	r2, #0
 80007bc:	4611      	mov	r1, r2
 80007be:	2002      	movs	r0, #2
 80007c0:	f001 f8e4 	bl	800198c <HAL_NVIC_SetPriority>
    HAL_NVIC_EnableIRQ(TAMP_STAMP_LSECSS_SSRU_IRQn);
 80007c4:	2002      	movs	r0, #2
 80007c6:	f001 f919 	bl	80019fc <HAL_NVIC_EnableIRQ>
    HAL_NVIC_SetPriority(RTC_Alarm_IRQn, 0, 0);
 80007ca:	2200      	movs	r2, #0
 80007cc:	4611      	mov	r1, r2
 80007ce:	202a      	movs	r0, #42	; 0x2a
 80007d0:	f001 f8dc 	bl	800198c <HAL_NVIC_SetPriority>
    HAL_NVIC_EnableIRQ(RTC_Alarm_IRQn);
 80007d4:	202a      	movs	r0, #42	; 0x2a
 80007d6:	f001 f911 	bl	80019fc <HAL_NVIC_EnableIRQ>
}
 80007da:	e7d1      	b.n	8000780 <HAL_RTC_MspInit+0x18>
      Error_Handler();
 80007dc:	f7ff ff30 	bl	8000640 <Error_Handler>
 80007e0:	e7da      	b.n	8000798 <HAL_RTC_MspInit+0x30>
 80007e2:	bf00      	nop
 80007e4:	40002800 	.word	0x40002800

080007e8 <PWR_EnterOffMode>:
void PWR_EnterOffMode(void)
{
  /* USER CODE BEGIN EnterOffMode_1 */

  /* USER CODE END EnterOffMode_1 */
}
 80007e8:	4770      	bx	lr

080007ea <PWR_ExitOffMode>:
void PWR_ExitOffMode(void)
{
  /* USER CODE BEGIN ExitOffMode_1 */

  /* USER CODE END ExitOffMode_1 */
}
 80007ea:	4770      	bx	lr

080007ec <PWR_EnterStopMode>:

void PWR_EnterStopMode(void)
{
 80007ec:	b508      	push	{r3, lr}
  /* USER CODE BEGIN EnterStopMode_1 */

  /* USER CODE END EnterStopMode_1 */
  HAL_SuspendTick();
 80007ee:	f001 f895 	bl	800191c <HAL_SuspendTick>
  * @rmtoll EXTSCR       C1CSSF        LL_PWR_ClearFlag_C1STOP_C1STB
  * @retval None
  */
__STATIC_INLINE void LL_PWR_ClearFlag_C1STOP_C1STB(void)
{
  WRITE_REG(PWR->EXTSCR, PWR_EXTSCR_C1CSSF);
 80007f2:	2001      	movs	r0, #1
 80007f4:	4b02      	ldr	r3, [pc, #8]	; (8000800 <PWR_EnterStopMode+0x14>)
 80007f6:	f8c3 0088 	str.w	r0, [r3, #136]	; 0x88
  LL_PWR_ClearFlag_C1STOP_C1STB();

  /* USER CODE BEGIN EnterStopMode_2 */

  /* USER CODE END EnterStopMode_2 */
  HAL_PWREx_EnterSTOP2Mode(PWR_STOPENTRY_WFI);
 80007fa:	f001 fd67 	bl	80022cc <HAL_PWREx_EnterSTOP2Mode>
  /* USER CODE BEGIN EnterStopMode_3 */

  /* USER CODE END EnterStopMode_3 */
}
 80007fe:	bd08      	pop	{r3, pc}
 8000800:	58000400 	.word	0x58000400

08000804 <PWR_ExitSleepMode>:

  /* USER CODE END EnterSleepMode_3 */
}

void PWR_ExitSleepMode(void)
{
 8000804:	b508      	push	{r3, lr}
  /* USER CODE BEGIN ExitSleepMode_1 */

  /* USER CODE END ExitSleepMode_1 */
  /* Resume sysTick */
  HAL_ResumeTick();
 8000806:	f001 f890 	bl	800192a <HAL_ResumeTick>

  /* USER CODE BEGIN ExitSleepMode_2 */

  /* USER CODE END ExitSleepMode_2 */
}
 800080a:	bd08      	pop	{r3, pc}

0800080c <PWR_ExitStopMode>:
{
 800080c:	b508      	push	{r3, lr}
  HAL_ResumeTick();
 800080e:	f001 f88c 	bl	800192a <HAL_ResumeTick>
  vcom_Resume();
 8000812:	f000 fc03 	bl	800101c <vcom_Resume>
}
 8000816:	bd08      	pop	{r3, pc}

08000818 <PWR_EnterSleepMode>:
{
 8000818:	b508      	push	{r3, lr}
  HAL_SuspendTick();
 800081a:	f001 f87f 	bl	800191c <HAL_SuspendTick>
  HAL_PWR_EnterSLEEPMode(PWR_MAINREGULATOR_ON, PWR_SLEEPENTRY_WFI);
 800081e:	2101      	movs	r1, #1
 8000820:	2000      	movs	r0, #0
 8000822:	f001 fcf7 	bl	8002214 <HAL_PWR_EnterSLEEPMode>
}
 8000826:	bd08      	pop	{r3, pc}

08000828 <HAL_MspInit>:
  /* System interrupt init*/

  /* USER CODE BEGIN MspInit 1 */

  /* USER CODE END MspInit 1 */
}
 8000828:	4770      	bx	lr

0800082a <NMI_Handler>:
{
  /* USER CODE BEGIN NonMaskableInt_IRQn 0 */

  /* USER CODE END NonMaskableInt_IRQn 0 */
  /* USER CODE BEGIN NonMaskableInt_IRQn 1 */
  while (1)
 800082a:	e7fe      	b.n	800082a <NMI_Handler>

0800082c <HardFault_Handler>:
void HardFault_Handler(void)
{
  /* USER CODE BEGIN HardFault_IRQn 0 */

  /* USER CODE END HardFault_IRQn 0 */
  while (1)
 800082c:	e7fe      	b.n	800082c <HardFault_Handler>

0800082e <MemManage_Handler>:
void MemManage_Handler(void)
{
  /* USER CODE BEGIN MemoryManagement_IRQn 0 */

  /* USER CODE END MemoryManagement_IRQn 0 */
  while (1)
 800082e:	e7fe      	b.n	800082e <MemManage_Handler>

08000830 <BusFault_Handler>:
void BusFault_Handler(void)
{
  /* USER CODE BEGIN BusFault_IRQn 0 */

  /* USER CODE END BusFault_IRQn 0 */
  while (1)
 8000830:	e7fe      	b.n	8000830 <BusFault_Handler>

08000832 <UsageFault_Handler>:
void UsageFault_Handler(void)
{
  /* USER CODE BEGIN UsageFault_IRQn 0 */

  /* USER CODE END UsageFault_IRQn 0 */
  while (1)
 8000832:	e7fe      	b.n	8000832 <UsageFault_Handler>

08000834 <SVC_Handler>:

  /* USER CODE END SVCall_IRQn 0 */
  /* USER CODE BEGIN SVCall_IRQn 1 */

  /* USER CODE END SVCall_IRQn 1 */
}
 8000834:	4770      	bx	lr

08000836 <DebugMon_Handler>:

  /* USER CODE END DebugMonitor_IRQn 0 */
  /* USER CODE BEGIN DebugMonitor_IRQn 1 */

  /* USER CODE END DebugMonitor_IRQn 1 */
}
 8000836:	4770      	bx	lr

08000838 <PendSV_Handler>:

  /* USER CODE END PendSV_IRQn 0 */
  /* USER CODE BEGIN PendSV_IRQn 1 */

  /* USER CODE END PendSV_IRQn 1 */
}
 8000838:	4770      	bx	lr

0800083a <SysTick_Handler>:

  /* USER CODE END SysTick_IRQn 0 */
  /* USER CODE BEGIN SysTick_IRQn 1 */

  /* USER CODE END SysTick_IRQn 1 */
}
 800083a:	4770      	bx	lr

0800083c <TAMP_STAMP_LSECSS_SSRU_IRQHandler>:

/**
  * @brief This function handles RTC Tamper, RTC TimeStamp, LSECSS and RTC SSRU Interrupts.
  */
void TAMP_STAMP_LSECSS_SSRU_IRQHandler(void)
{
 800083c:	b508      	push	{r3, lr}
  /* USER CODE BEGIN TAMP_STAMP_LSECSS_SSRU_IRQn 0 */

  /* USER CODE END TAMP_STAMP_LSECSS_SSRU_IRQn 0 */
  HAL_RTCEx_SSRUIRQHandler(&hrtc);
 800083e:	4802      	ldr	r0, [pc, #8]	; (8000848 <TAMP_STAMP_LSECSS_SSRU_IRQHandler+0xc>)
 8000840:	f002 fe7e 	bl	8003540 <HAL_RTCEx_SSRUIRQHandler>
  /* USER CODE BEGIN TAMP_STAMP_LSECSS_SSRU_IRQn 1 */

  /* USER CODE END TAMP_STAMP_LSECSS_SSRU_IRQn 1 */
}
 8000844:	bd08      	pop	{r3, pc}
 8000846:	bf00      	nop
 8000848:	200000b4 	.word	0x200000b4

0800084c <DMA1_Channel1_IRQHandler>:

/**
  * @brief This function handles DMA1 Channel 1 Interrupt.
  */
void DMA1_Channel1_IRQHandler(void)
{
 800084c:	b508      	push	{r3, lr}
  /* USER CODE BEGIN DMA1_Channel1_IRQn 0 */

  /* USER CODE END DMA1_Channel1_IRQn 0 */
  HAL_DMA_IRQHandler(&hdma_usart2_rx);
 800084e:	4802      	ldr	r0, [pc, #8]	; (8000858 <DMA1_Channel1_IRQHandler+0xc>)
 8000850:	f001 faf2 	bl	8001e38 <HAL_DMA_IRQHandler>
  /* USER CODE BEGIN DMA1_Channel1_IRQn 1 */

  /* USER CODE END DMA1_Channel1_IRQn 1 */
}
 8000854:	bd08      	pop	{r3, pc}
 8000856:	bf00      	nop
 8000858:	20000108 	.word	0x20000108

0800085c <DMA1_Channel5_IRQHandler>:

/**
  * @brief This function handles DMA1 Channel 5 Interrupt.
  */
void DMA1_Channel5_IRQHandler(void)
{
 800085c:	b508      	push	{r3, lr}
  /* USER CODE BEGIN DMA1_Channel5_IRQn 0 */

  /* USER CODE END DMA1_Channel5_IRQn 0 */
  HAL_DMA_IRQHandler(&hdma_usart2_tx);
 800085e:	4802      	ldr	r0, [pc, #8]	; (8000868 <DMA1_Channel5_IRQHandler+0xc>)
 8000860:	f001 faea 	bl	8001e38 <HAL_DMA_IRQHandler>
  /* USER CODE BEGIN DMA1_Channel5_IRQn 1 */

  /* USER CODE END DMA1_Channel5_IRQn 1 */
}
 8000864:	bd08      	pop	{r3, pc}
 8000866:	bf00      	nop
 8000868:	20000168 	.word	0x20000168

0800086c <USART2_IRQHandler>:

/**
  * @brief This function handles USART2 Interrupt.
  */
void USART2_IRQHandler(void)
{
 800086c:	b508      	push	{r3, lr}
  /* USER CODE BEGIN USART2_IRQn 0 */

  /* USER CODE END USART2_IRQn 0 */
  HAL_UART_IRQHandler(&huart2);
 800086e:	4802      	ldr	r0, [pc, #8]	; (8000878 <USART2_IRQHandler+0xc>)
 8000870:	f003 fb24 	bl	8003ebc <HAL_UART_IRQHandler>
  /* USER CODE BEGIN USART2_IRQn 1 */

  /* USER CODE END USART2_IRQn 1 */
}
 8000874:	bd08      	pop	{r3, pc}
 8000876:	bf00      	nop
 8000878:	200001c8 	.word	0x200001c8

0800087c <RTC_Alarm_IRQHandler>:

/**
  * @brief This function handles RTC Alarms (A and B) Interrupt.
  */
void RTC_Alarm_IRQHandler(void)
{
 800087c:	b508      	push	{r3, lr}
  /* USER CODE BEGIN RTC_Alarm_IRQn 0 */

  /* USER CODE END RTC_Alarm_IRQn 0 */
  HAL_RTC_AlarmIRQHandler(&hrtc);
 800087e:	4802      	ldr	r0, [pc, #8]	; (8000888 <RTC_Alarm_IRQHandler+0xc>)
 8000880:	f002 fc6a 	bl	8003158 <HAL_RTC_AlarmIRQHandler>
  /* USER CODE BEGIN RTC_Alarm_IRQn 1 */

  /* USER CODE END RTC_Alarm_IRQn 1 */
}
 8000884:	bd08      	pop	{r3, pc}
 8000886:	bf00      	nop
 8000888:	200000b4 	.word	0x200000b4

0800088c <SUBGHZ_Radio_IRQHandler>:

/**
  * @brief This function handles SUBGHZ Radio Interrupt.
  */
void SUBGHZ_Radio_IRQHandler(void)
{
 800088c:	b508      	push	{r3, lr}
  /* USER CODE BEGIN SUBGHZ_Radio_IRQn 0 */

  /* USER CODE END SUBGHZ_Radio_IRQn 0 */
  HAL_SUBGHZ_IRQHandler(&hsubghz);
 800088e:	4802      	ldr	r0, [pc, #8]	; (8000898 <SUBGHZ_Radio_IRQHandler+0xc>)
 8000890:	f003 f90a 	bl	8003aa8 <HAL_SUBGHZ_IRQHandler>
  /* USER CODE BEGIN SUBGHZ_Radio_IRQn 1 */

  /* USER CODE END SUBGHZ_Radio_IRQn 1 */
}
 8000894:	bd08      	pop	{r3, pc}
 8000896:	bf00      	nop
 8000898:	200000ec 	.word	0x200000ec

0800089c <MX_SUBGHZ_Init>:

SUBGHZ_HandleTypeDef hsubghz;

/* SUBGHZ init function */
void MX_SUBGHZ_Init(void)
{
 800089c:	b508      	push	{r3, lr}
  /* USER CODE END SUBGHZ_Init 0 */

  /* USER CODE BEGIN SUBGHZ_Init 1 */

  /* USER CODE END SUBGHZ_Init 1 */
  hsubghz.Init.BaudratePrescaler = SUBGHZSPI_BAUDRATEPRESCALER_4;
 800089e:	4805      	ldr	r0, [pc, #20]	; (80008b4 <MX_SUBGHZ_Init+0x18>)
 80008a0:	2308      	movs	r3, #8
 80008a2:	6003      	str	r3, [r0, #0]
  if (HAL_SUBGHZ_Init(&hsubghz) != HAL_OK)
 80008a4:	f002 fe82 	bl	80035ac <HAL_SUBGHZ_Init>
 80008a8:	b900      	cbnz	r0, 80008ac <MX_SUBGHZ_Init+0x10>
  }
  /* USER CODE BEGIN SUBGHZ_Init 2 */

  /* USER CODE END SUBGHZ_Init 2 */

}
 80008aa:	bd08      	pop	{r3, pc}
    Error_Handler();
 80008ac:	f7ff fec8 	bl	8000640 <Error_Handler>
}
 80008b0:	e7fb      	b.n	80008aa <MX_SUBGHZ_Init+0xe>
 80008b2:	bf00      	nop
 80008b4:	200000ec 	.word	0x200000ec

080008b8 <HAL_SUBGHZ_MspInit>:

void HAL_SUBGHZ_MspInit(SUBGHZ_HandleTypeDef* subghzHandle)
{
 80008b8:	b500      	push	{lr}
 80008ba:	b083      	sub	sp, #12
  * @retval None
  */
__STATIC_INLINE void LL_APB3_GRP1_EnableClock(uint32_t Periphs)
{
  __IO uint32_t tmpreg;
  SET_BIT(RCC->APB3ENR, Periphs);
 80008bc:	f04f 43b0 	mov.w	r3, #1476395008	; 0x58000000
 80008c0:	6e5a      	ldr	r2, [r3, #100]	; 0x64
 80008c2:	f042 0201 	orr.w	r2, r2, #1
 80008c6:	665a      	str	r2, [r3, #100]	; 0x64
  /* Delay after an RCC peripheral clock enabling */
  tmpreg = READ_BIT(RCC->APB3ENR, Periphs);
 80008c8:	6e5b      	ldr	r3, [r3, #100]	; 0x64
 80008ca:	f003 0301 	and.w	r3, r3, #1
 80008ce:	9301      	str	r3, [sp, #4]
  (void)tmpreg;
 80008d0:	9b01      	ldr	r3, [sp, #4]
  /* USER CODE END SUBGHZ_MspInit 0 */
    /* SUBGHZ clock enable */
    __HAL_RCC_SUBGHZSPI_CLK_ENABLE();

    /* SUBGHZ interrupt Init */
    HAL_NVIC_SetPriority(SUBGHZ_Radio_IRQn, 0, 0);
 80008d2:	2200      	movs	r2, #0
 80008d4:	4611      	mov	r1, r2
 80008d6:	2032      	movs	r0, #50	; 0x32
 80008d8:	f001 f858 	bl	800198c <HAL_NVIC_SetPriority>
    HAL_NVIC_EnableIRQ(SUBGHZ_Radio_IRQn);
 80008dc:	2032      	movs	r0, #50	; 0x32
 80008de:	f001 f88d 	bl	80019fc <HAL_NVIC_EnableIRQ>
  /* USER CODE BEGIN SUBGHZ_MspInit 1 */

  /* USER CODE END SUBGHZ_MspInit 1 */
}
 80008e2:	b003      	add	sp, #12
 80008e4:	f85d fb04 	ldr.w	pc, [sp], #4

080008e8 <tiny_snprintf_like>:

  /* USER CODE END UTIL_LPM_SetStopMode_2 */
}

static void tiny_snprintf_like(char *buf, uint32_t maxsize, const char *strFormat, ...)
{
 80008e8:	b40c      	push	{r2, r3}
 80008ea:	b500      	push	{lr}
 80008ec:	b083      	sub	sp, #12
 80008ee:	ab04      	add	r3, sp, #16
 80008f0:	f853 2b04 	ldr.w	r2, [r3], #4
  /* USER CODE BEGIN tiny_snprintf_like_1 */

  /* USER CODE END tiny_snprintf_like_1 */
  va_list vaArgs;
  va_start(vaArgs, strFormat);
 80008f4:	9301      	str	r3, [sp, #4]
  UTIL_ADV_TRACE_VSNPRINTF(buf, maxsize, strFormat, vaArgs);
 80008f6:	f007 fa71 	bl	8007ddc <tiny_vsnprintf_like>
  va_end(vaArgs);
  /* USER CODE BEGIN tiny_snprintf_like_2 */

  /* USER CODE END tiny_snprintf_like_2 */
}
 80008fa:	b003      	add	sp, #12
 80008fc:	f85d eb04 	ldr.w	lr, [sp], #4
 8000900:	b002      	add	sp, #8
 8000902:	4770      	bx	lr

08000904 <TimestampNow>:
{
 8000904:	b530      	push	{r4, r5, lr}
 8000906:	b085      	sub	sp, #20
 8000908:	4604      	mov	r4, r0
 800090a:	460d      	mov	r5, r1
  SysTime_t curtime = SysTimeGet();
 800090c:	a802      	add	r0, sp, #8
 800090e:	f007 f83b 	bl	8007988 <SysTimeGet>
  tiny_snprintf_like((char *)buff, MAX_TS_SIZE, "%ds%03d:", curtime.Seconds, curtime.SubSeconds);
 8000912:	f9bd 300c 	ldrsh.w	r3, [sp, #12]
 8000916:	9300      	str	r3, [sp, #0]
 8000918:	9b02      	ldr	r3, [sp, #8]
 800091a:	4a05      	ldr	r2, [pc, #20]	; (8000930 <TimestampNow+0x2c>)
 800091c:	2110      	movs	r1, #16
 800091e:	4620      	mov	r0, r4
 8000920:	f7ff ffe2 	bl	80008e8 <tiny_snprintf_like>
  *size = strlen((char *)buff);
 8000924:	4620      	mov	r0, r4
 8000926:	f7ff fc2b 	bl	8000180 <strlen>
 800092a:	8028      	strh	r0, [r5, #0]
}
 800092c:	b005      	add	sp, #20
 800092e:	bd30      	pop	{r4, r5, pc}
 8000930:	08009380 	.word	0x08009380

08000934 <SystemApp_Init>:
{
 8000934:	b510      	push	{r4, lr}
  MODIFY_REG(RCC->CFGR, RCC_CFGR_STOPWUCK, Clock);
 8000936:	f04f 42b0 	mov.w	r2, #1476395008	; 0x58000000
 800093a:	6893      	ldr	r3, [r2, #8]
 800093c:	f423 4300 	bic.w	r3, r3, #32768	; 0x8000
 8000940:	6093      	str	r3, [r2, #8]
  UTIL_TIMER_Init();
 8000942:	f007 f843 	bl	80079cc <UTIL_TIMER_Init>
  SYS_TimerInitialisedFlag = 1;
 8000946:	2401      	movs	r4, #1
 8000948:	4b09      	ldr	r3, [pc, #36]	; (8000970 <SystemApp_Init+0x3c>)
 800094a:	701c      	strb	r4, [r3, #0]
  DBG_Init();
 800094c:	f000 f83c 	bl	80009c8 <DBG_Init>
  UTIL_ADV_TRACE_Init();
 8000950:	f006 fd82 	bl	8007458 <UTIL_ADV_TRACE_Init>
  UTIL_ADV_TRACE_RegisterTimeStampFunction(TimestampNow);
 8000954:	4807      	ldr	r0, [pc, #28]	; (8000974 <SystemApp_Init+0x40>)
 8000956:	f006 fd99 	bl	800748c <UTIL_ADV_TRACE_RegisterTimeStampFunction>
  UTIL_ADV_TRACE_SetVerboseLevel(VERBOSE_LEVEL);
 800095a:	2002      	movs	r0, #2
 800095c:	f006 fd9c 	bl	8007498 <UTIL_ADV_TRACE_SetVerboseLevel>
  UTIL_LPM_Init();
 8000960:	f006 feaa 	bl	80076b8 <UTIL_LPM_Init>
  UTIL_LPM_SetOffMode((1 << CFG_LPM_APPLI_Id), UTIL_LPM_DISABLE);
 8000964:	4621      	mov	r1, r4
 8000966:	4620      	mov	r0, r4
 8000968:	f006 fec6 	bl	80076f8 <UTIL_LPM_SetOffMode>
}
 800096c:	bd10      	pop	{r4, pc}
 800096e:	bf00      	nop
 8000970:	200000f8 	.word	0x200000f8
 8000974:	08000905 	.word	0x08000905

08000978 <UTIL_SEQ_Idle>:
{
 8000978:	b508      	push	{r3, lr}
  UTIL_LPM_EnterLowPower();
 800097a:	f006 fed3 	bl	8007724 <UTIL_LPM_EnterLowPower>
}
 800097e:	bd08      	pop	{r3, pc}

08000980 <UTIL_ADV_TRACE_PreSendHook>:
{
 8000980:	b508      	push	{r3, lr}
  UTIL_LPM_SetStopMode((1 << CFG_LPM_UART_TX_Id), UTIL_LPM_DISABLE);
 8000982:	2101      	movs	r1, #1
 8000984:	2002      	movs	r0, #2
 8000986:	f006 fea1 	bl	80076cc <UTIL_LPM_SetStopMode>
}
 800098a:	bd08      	pop	{r3, pc}

0800098c <UTIL_ADV_TRACE_PostSendHook>:
{
 800098c:	b508      	push	{r3, lr}
  UTIL_LPM_SetStopMode((1 << CFG_LPM_UART_TX_Id), UTIL_LPM_ENABLE);
 800098e:	2100      	movs	r1, #0
 8000990:	2002      	movs	r0, #2
 8000992:	f006 fe9b 	bl	80076cc <UTIL_LPM_SetStopMode>
}
 8000996:	bd08      	pop	{r3, pc}

08000998 <HAL_InitTick>:
  /* USER CODE END HAL_InitTick_1 */
  return HAL_OK;
  /* USER CODE BEGIN HAL_InitTick_2 */

  /* USER CODE END HAL_InitTick_2 */
}
 8000998:	2000      	movs	r0, #0
 800099a:	4770      	bx	lr

0800099c <HAL_GetTick>:

/**
  * @note This function overwrites the __weak one from HAL
  */
uint32_t HAL_GetTick(void)
{
 800099c:	b508      	push	{r3, lr}
  uint32_t ret = 0;
  /* TIMER_IF can be based on other counter the SysTick e.g. RTC */
  /* USER CODE BEGIN HAL_GetTick_1 */

  /* USER CODE END HAL_GetTick_1 */
  if (SYS_TimerInitialisedFlag == 0)
 800099e:	4b04      	ldr	r3, [pc, #16]	; (80009b0 <HAL_GetTick+0x14>)
 80009a0:	781b      	ldrb	r3, [r3, #0]
 80009a2:	b90b      	cbnz	r3, 80009a8 <HAL_GetTick+0xc>
  uint32_t ret = 0;
 80009a4:	2000      	movs	r0, #0
  }
  /* USER CODE BEGIN HAL_GetTick_2 */

  /* USER CODE END HAL_GetTick_2 */
  return ret;
}
 80009a6:	bd08      	pop	{r3, pc}
    ret = TIMER_IF_GetTimerValue();
 80009a8:	f000 f8da 	bl	8000b60 <TIMER_IF_GetTimerValue>
 80009ac:	e7fb      	b.n	80009a6 <HAL_GetTick+0xa>
 80009ae:	bf00      	nop
 80009b0:	200000f8 	.word	0x200000f8

080009b4 <HAL_Delay>:

/**
  * @note This function overwrites the __weak one from HAL
  */
void HAL_Delay(__IO uint32_t Delay)
{
 80009b4:	b500      	push	{lr}
 80009b6:	b083      	sub	sp, #12
 80009b8:	9001      	str	r0, [sp, #4]
  /* TIMER_IF can be based on other counter the SysTick e.g. RTC */
  /* USER CODE BEGIN HAL_Delay_1 */

  /* USER CODE END HAL_Delay_1 */
  TIMER_IF_DelayMs(Delay);
 80009ba:	9801      	ldr	r0, [sp, #4]
 80009bc:	f000 f9b6 	bl	8000d2c <TIMER_IF_DelayMs>
  /* USER CODE BEGIN HAL_Delay_2 */

  /* USER CODE END HAL_Delay_2 */
}
 80009c0:	b003      	add	sp, #12
 80009c2:	f85d fb04 	ldr.w	pc, [sp], #4
	...

080009c8 <DBG_Init>:

/**
  * @brief Initializes the SW probes pins and the monitor RF pins via Alternate Function
  */
void DBG_Init(void)
{
 80009c8:	b5f0      	push	{r4, r5, r6, r7, lr}
 80009ca:	b089      	sub	sp, #36	; 0x24

  /* USER CODE END DBG_Init_1 */

  /* SW probes */
#if defined (DEBUGGER_ENABLED) && ( DEBUGGER_ENABLED == 0 )
  HAL_DBGMCU_DisableDBGSleepMode();
 80009cc:	f000 ffb4 	bl	8001938 <HAL_DBGMCU_DisableDBGSleepMode>
  HAL_DBGMCU_DisableDBGStopMode();
 80009d0:	f000 ffba 	bl	8001948 <HAL_DBGMCU_DisableDBGStopMode>
  HAL_DBGMCU_DisableDBGStandbyMode();
 80009d4:	f000 ffc0 	bl	8001958 <HAL_DBGMCU_DisableDBGStandbyMode>
  HAL_DBGMCU_EnableDBGStandbyMode();
#elif !defined (DEBUGGER_ENABLED)
#error "DEBUGGER_ENABLED not defined or out of range <0,1>"
#endif /* DEBUGGER_OFF */

  GPIO_InitTypeDef  GPIO_InitStruct = {0};
 80009d8:	2400      	movs	r4, #0
 80009da:	9403      	str	r4, [sp, #12]
 80009dc:	9404      	str	r4, [sp, #16]
 80009de:	9405      	str	r4, [sp, #20]
 80009e0:	9406      	str	r4, [sp, #24]
 80009e2:	9407      	str	r4, [sp, #28]

  /* Configure the GPIO pin */
  GPIO_InitStruct.Mode   = GPIO_MODE_OUTPUT_PP;
 80009e4:	2301      	movs	r3, #1
 80009e6:	9304      	str	r3, [sp, #16]
  GPIO_InitStruct.Pull   = GPIO_NOPULL;
  GPIO_InitStruct.Speed  = GPIO_SPEED_FREQ_VERY_HIGH;
 80009e8:	2303      	movs	r3, #3
 80009ea:	9306      	str	r3, [sp, #24]
  SET_BIT(RCC->AHB2ENR, Periphs);
 80009ec:	f04f 43b0 	mov.w	r3, #1476395008	; 0x58000000
 80009f0:	6cda      	ldr	r2, [r3, #76]	; 0x4c
 80009f2:	f042 0202 	orr.w	r2, r2, #2
 80009f6:	64da      	str	r2, [r3, #76]	; 0x4c
  tmpreg = READ_BIT(RCC->AHB2ENR, Periphs);
 80009f8:	6cda      	ldr	r2, [r3, #76]	; 0x4c
 80009fa:	f002 0202 	and.w	r2, r2, #2
 80009fe:	9202      	str	r2, [sp, #8]
  (void)tmpreg;
 8000a00:	9a02      	ldr	r2, [sp, #8]
  SET_BIT(RCC->AHB2ENR, Periphs);
 8000a02:	6cda      	ldr	r2, [r3, #76]	; 0x4c
 8000a04:	f042 0202 	orr.w	r2, r2, #2
 8000a08:	64da      	str	r2, [r3, #76]	; 0x4c
  tmpreg = READ_BIT(RCC->AHB2ENR, Periphs);
 8000a0a:	6cdb      	ldr	r3, [r3, #76]	; 0x4c
 8000a0c:	f003 0302 	and.w	r3, r3, #2
 8000a10:	9301      	str	r3, [sp, #4]
  (void)tmpreg;
 8000a12:	9b01      	ldr	r3, [sp, #4]

  /* Enable the GPIO Clock */
  PROBE_LINE1_CLK_ENABLE();
  PROBE_LINE2_CLK_ENABLE();

  GPIO_InitStruct.Pin    = PROBE_LINE1_PIN;
 8000a14:	f44f 5780 	mov.w	r7, #4096	; 0x1000
 8000a18:	9703      	str	r7, [sp, #12]
  HAL_GPIO_Init(PROBE_LINE1_PORT, &GPIO_InitStruct);
 8000a1a:	4d0c      	ldr	r5, [pc, #48]	; (8000a4c <DBG_Init+0x84>)
 8000a1c:	a903      	add	r1, sp, #12
 8000a1e:	4628      	mov	r0, r5
 8000a20:	f001 fa92 	bl	8001f48 <HAL_GPIO_Init>
  GPIO_InitStruct.Pin    = PROBE_LINE2_PIN;
 8000a24:	f44f 5600 	mov.w	r6, #8192	; 0x2000
 8000a28:	9603      	str	r6, [sp, #12]
  HAL_GPIO_Init(PROBE_LINE2_PORT, &GPIO_InitStruct);
 8000a2a:	a903      	add	r1, sp, #12
 8000a2c:	4628      	mov	r0, r5
 8000a2e:	f001 fa8b 	bl	8001f48 <HAL_GPIO_Init>

  /* Reset probe Pins */
  HAL_GPIO_WritePin(PROBE_LINE1_PORT, PROBE_LINE1_PIN, GPIO_PIN_RESET);
 8000a32:	4622      	mov	r2, r4
 8000a34:	4639      	mov	r1, r7
 8000a36:	4628      	mov	r0, r5
 8000a38:	f001 fbd6 	bl	80021e8 <HAL_GPIO_WritePin>
  HAL_GPIO_WritePin(PROBE_LINE2_PORT, PROBE_LINE2_PIN, GPIO_PIN_RESET);
 8000a3c:	4622      	mov	r2, r4
 8000a3e:	4631      	mov	r1, r6
 8000a40:	4628      	mov	r0, r5
 8000a42:	f001 fbd1 	bl	80021e8 <HAL_GPIO_WritePin>
#endif /* DEBUG_RF_BUSY_ENABLED */

  /* USER CODE BEGIN DBG_Init_3 */

  /* USER CODE END DBG_Init_3 */
}
 8000a46:	b009      	add	sp, #36	; 0x24
 8000a48:	bdf0      	pop	{r4, r5, r6, r7, pc}
 8000a4a:	bf00      	nop
 8000a4c:	48000400 	.word	0x48000400

08000a50 <_getpid>:
}

int _getpid(void)
{
  return 1;
}
 8000a50:	2001      	movs	r0, #1
 8000a52:	4770      	bx	lr

08000a54 <_kill>:

int _kill(int pid, int sig)
{
 8000a54:	b508      	push	{r3, lr}
  (void)pid;
  (void)sig;
  errno = EINVAL;
 8000a56:	f007 fc57 	bl	8008308 <__errno>
 8000a5a:	2316      	movs	r3, #22
 8000a5c:	6003      	str	r3, [r0, #0]
  return -1;
}
 8000a5e:	f04f 30ff 	mov.w	r0, #4294967295
 8000a62:	bd08      	pop	{r3, pc}

08000a64 <_exit>:

void _exit (int status)
{
 8000a64:	b508      	push	{r3, lr}
  _kill(status, -1);
 8000a66:	f04f 31ff 	mov.w	r1, #4294967295
 8000a6a:	f7ff fff3 	bl	8000a54 <_kill>
  while (1) {}    /* Make sure we hang here */
 8000a6e:	e7fe      	b.n	8000a6e <_exit+0xa>

08000a70 <_read>:
}

__attribute__((weak)) int _read(int file, char *ptr, int len)
{
 8000a70:	b570      	push	{r4, r5, r6, lr}
 8000a72:	460c      	mov	r4, r1
 8000a74:	4616      	mov	r6, r2
  (void)file;
  int DataIdx;

  for (DataIdx = 0; DataIdx < len; DataIdx++)
 8000a76:	2500      	movs	r5, #0
 8000a78:	e006      	b.n	8000a88 <_read+0x18>
  {
    *ptr++ = __io_getchar();
 8000a7a:	f3af 8000 	nop.w
 8000a7e:	4621      	mov	r1, r4
 8000a80:	f801 0b01 	strb.w	r0, [r1], #1
  for (DataIdx = 0; DataIdx < len; DataIdx++)
 8000a84:	3501      	adds	r5, #1
    *ptr++ = __io_getchar();
 8000a86:	460c      	mov	r4, r1
  for (DataIdx = 0; DataIdx < len; DataIdx++)
 8000a88:	42b5      	cmp	r5, r6
 8000a8a:	dbf6      	blt.n	8000a7a <_read+0xa>
  }

  return len;
}
 8000a8c:	4630      	mov	r0, r6
 8000a8e:	bd70      	pop	{r4, r5, r6, pc}

08000a90 <_write>:

__attribute__((weak)) int _write(int file, char *ptr, int len)
{
 8000a90:	b570      	push	{r4, r5, r6, lr}
 8000a92:	460c      	mov	r4, r1
 8000a94:	4616      	mov	r6, r2
  (void)file;
  int DataIdx;

  for (DataIdx = 0; DataIdx < len; DataIdx++)
 8000a96:	2500      	movs	r5, #0
 8000a98:	e004      	b.n	8000aa4 <_write+0x14>
  {
    __io_putchar(*ptr++);
 8000a9a:	f814 0b01 	ldrb.w	r0, [r4], #1
 8000a9e:	f3af 8000 	nop.w
  for (DataIdx = 0; DataIdx < len; DataIdx++)
 8000aa2:	3501      	adds	r5, #1
 8000aa4:	42b5      	cmp	r5, r6
 8000aa6:	dbf8      	blt.n	8000a9a <_write+0xa>
  }
  return len;
}
 8000aa8:	4630      	mov	r0, r6
 8000aaa:	bd70      	pop	{r4, r5, r6, pc}

08000aac <_close>:

int _close(int file)
{
  (void)file;
  return -1;
}
 8000aac:	f04f 30ff 	mov.w	r0, #4294967295
 8000ab0:	4770      	bx	lr

08000ab2 <_fstat>:


int _fstat(int file, struct stat *st)
{
  (void)file;
  st->st_mode = S_IFCHR;
 8000ab2:	f44f 5300 	mov.w	r3, #8192	; 0x2000
 8000ab6:	604b      	str	r3, [r1, #4]
  return 0;
}
 8000ab8:	2000      	movs	r0, #0
 8000aba:	4770      	bx	lr

08000abc <_isatty>:

int _isatty(int file)
{
  (void)file;
  return 1;
}
 8000abc:	2001      	movs	r0, #1
 8000abe:	4770      	bx	lr

08000ac0 <_lseek>:
{
  (void)file;
  (void)ptr;
  (void)dir;
  return 0;
}
 8000ac0:	2000      	movs	r0, #0
 8000ac2:	4770      	bx	lr

08000ac4 <_sbrk>:
 *
 * @param incr Memory size
 * @return Pointer to allocated memory
 */
void *_sbrk(ptrdiff_t incr)
{
 8000ac4:	b510      	push	{r4, lr}
 8000ac6:	4603      	mov	r3, r0
  extern uint8_t _end; /* Symbol defined in the linker script */
  extern uint8_t _estack; /* Symbol defined in the linker script */
  extern uint32_t _Min_Stack_Size; /* Symbol defined in the linker script */
  const uint32_t stack_limit = (uint32_t)&_estack - (uint32_t)&_Min_Stack_Size;
 8000ac8:	4a0c      	ldr	r2, [pc, #48]	; (8000afc <_sbrk+0x38>)
 8000aca:	490d      	ldr	r1, [pc, #52]	; (8000b00 <_sbrk+0x3c>)
  const uint8_t *max_heap = (uint8_t *)stack_limit;
  uint8_t *prev_heap_end;

  /* Initialize heap end at first call */
  if (NULL == __sbrk_heap_end)
 8000acc:	480d      	ldr	r0, [pc, #52]	; (8000b04 <_sbrk+0x40>)
 8000ace:	6800      	ldr	r0, [r0, #0]
 8000ad0:	b140      	cbz	r0, 8000ae4 <_sbrk+0x20>
  {
    __sbrk_heap_end = &_end;
  }

  /* Protect heap from growing into the reserved MSP stack */
  if (__sbrk_heap_end + incr > max_heap)
 8000ad2:	480c      	ldr	r0, [pc, #48]	; (8000b04 <_sbrk+0x40>)
 8000ad4:	6800      	ldr	r0, [r0, #0]
 8000ad6:	4403      	add	r3, r0
 8000ad8:	1a52      	subs	r2, r2, r1
 8000ada:	4293      	cmp	r3, r2
 8000adc:	d806      	bhi.n	8000aec <_sbrk+0x28>
    errno = ENOMEM;
    return (void *)-1;
  }

  prev_heap_end = __sbrk_heap_end;
  __sbrk_heap_end += incr;
 8000ade:	4a09      	ldr	r2, [pc, #36]	; (8000b04 <_sbrk+0x40>)
 8000ae0:	6013      	str	r3, [r2, #0]

  return (void *)prev_heap_end;
}
 8000ae2:	bd10      	pop	{r4, pc}
    __sbrk_heap_end = &_end;
 8000ae4:	4807      	ldr	r0, [pc, #28]	; (8000b04 <_sbrk+0x40>)
 8000ae6:	4c08      	ldr	r4, [pc, #32]	; (8000b08 <_sbrk+0x44>)
 8000ae8:	6004      	str	r4, [r0, #0]
 8000aea:	e7f2      	b.n	8000ad2 <_sbrk+0xe>
    errno = ENOMEM;
 8000aec:	f007 fc0c 	bl	8008308 <__errno>
 8000af0:	230c      	movs	r3, #12
 8000af2:	6003      	str	r3, [r0, #0]
    return (void *)-1;
 8000af4:	f04f 30ff 	mov.w	r0, #4294967295
 8000af8:	e7f3      	b.n	8000ae2 <_sbrk+0x1e>
 8000afa:	bf00      	nop
 8000afc:	20008000 	.word	0x20008000
 8000b00:	00000800 	.word	0x00000800
 8000b04:	200000fc 	.word	0x200000fc
 8000b08:	20000b00 	.word	0x20000b00

08000b0c <TIMER_IF_SetTimerContext>:
  * @retval If binary mode is none, Value between Min_Data=0x0 and Max_Data=0x7FFF
  *         else Value between Min_Data=0x0 and Max_Data=0xFFFFFFFF
  */
__STATIC_INLINE uint32_t LL_RTC_TIME_GetSubSecond(RTC_TypeDef *RTCx)
{
  return (uint32_t)(READ_BIT(RTCx->SSR, RTC_SSR_SS));
 8000b0c:	4b06      	ldr	r3, [pc, #24]	; (8000b28 <TIMER_IF_SetTimerContext+0x1c>)
 8000b0e:	6898      	ldr	r0, [r3, #8]
  /* USER CODE BEGIN GetTimerTicks */

  /* USER CODE END GetTimerTicks */
  uint32_t ssr = LL_RTC_TIME_GetSubSecond(RTC);
  /* read twice to make sure value it valid*/
  while (ssr != LL_RTC_TIME_GetSubSecond(RTC))
 8000b10:	e001      	b.n	8000b16 <TIMER_IF_SetTimerContext+0xa>
 8000b12:	4b05      	ldr	r3, [pc, #20]	; (8000b28 <TIMER_IF_SetTimerContext+0x1c>)
 8000b14:	6898      	ldr	r0, [r3, #8]
 8000b16:	4b04      	ldr	r3, [pc, #16]	; (8000b28 <TIMER_IF_SetTimerContext+0x1c>)
 8000b18:	689b      	ldr	r3, [r3, #8]
 8000b1a:	4283      	cmp	r3, r0
 8000b1c:	d1f9      	bne.n	8000b12 <TIMER_IF_SetTimerContext+0x6>
  {
    ssr = LL_RTC_TIME_GetSubSecond(RTC);
  }
  return UINT32_MAX - ssr;
 8000b1e:	43c0      	mvns	r0, r0
  RtcTimerContext = GetTimerTicks();
 8000b20:	4b02      	ldr	r3, [pc, #8]	; (8000b2c <TIMER_IF_SetTimerContext+0x20>)
 8000b22:	6018      	str	r0, [r3, #0]
}
 8000b24:	4770      	bx	lr
 8000b26:	bf00      	nop
 8000b28:	40002800 	.word	0x40002800
 8000b2c:	20000104 	.word	0x20000104

08000b30 <TIMER_IF_GetTimerContext>:
}
 8000b30:	4b01      	ldr	r3, [pc, #4]	; (8000b38 <TIMER_IF_GetTimerContext+0x8>)
 8000b32:	6818      	ldr	r0, [r3, #0]
 8000b34:	4770      	bx	lr
 8000b36:	bf00      	nop
 8000b38:	20000104 	.word	0x20000104

08000b3c <TIMER_IF_GetTimerElapsedTime>:
 8000b3c:	4b06      	ldr	r3, [pc, #24]	; (8000b58 <TIMER_IF_GetTimerElapsedTime+0x1c>)
 8000b3e:	6898      	ldr	r0, [r3, #8]
  while (ssr != LL_RTC_TIME_GetSubSecond(RTC))
 8000b40:	e001      	b.n	8000b46 <TIMER_IF_GetTimerElapsedTime+0xa>
 8000b42:	4b05      	ldr	r3, [pc, #20]	; (8000b58 <TIMER_IF_GetTimerElapsedTime+0x1c>)
 8000b44:	6898      	ldr	r0, [r3, #8]
 8000b46:	4b04      	ldr	r3, [pc, #16]	; (8000b58 <TIMER_IF_GetTimerElapsedTime+0x1c>)
 8000b48:	689b      	ldr	r3, [r3, #8]
 8000b4a:	4283      	cmp	r3, r0
 8000b4c:	d1f9      	bne.n	8000b42 <TIMER_IF_GetTimerElapsedTime+0x6>
  return UINT32_MAX - ssr;
 8000b4e:	43c0      	mvns	r0, r0
  ret = ((uint32_t)(GetTimerTicks() - RtcTimerContext));
 8000b50:	4b02      	ldr	r3, [pc, #8]	; (8000b5c <TIMER_IF_GetTimerElapsedTime+0x20>)
 8000b52:	681b      	ldr	r3, [r3, #0]
}
 8000b54:	1ac0      	subs	r0, r0, r3
 8000b56:	4770      	bx	lr
 8000b58:	40002800 	.word	0x40002800
 8000b5c:	20000104 	.word	0x20000104

08000b60 <TIMER_IF_GetTimerValue>:
  if (RTC_Initialized == true)
 8000b60:	4b07      	ldr	r3, [pc, #28]	; (8000b80 <TIMER_IF_GetTimerValue+0x20>)
 8000b62:	781b      	ldrb	r3, [r3, #0]
 8000b64:	b153      	cbz	r3, 8000b7c <TIMER_IF_GetTimerValue+0x1c>
 8000b66:	4b07      	ldr	r3, [pc, #28]	; (8000b84 <TIMER_IF_GetTimerValue+0x24>)
 8000b68:	6898      	ldr	r0, [r3, #8]
  while (ssr != LL_RTC_TIME_GetSubSecond(RTC))
 8000b6a:	e001      	b.n	8000b70 <TIMER_IF_GetTimerValue+0x10>
 8000b6c:	4b05      	ldr	r3, [pc, #20]	; (8000b84 <TIMER_IF_GetTimerValue+0x24>)
 8000b6e:	6898      	ldr	r0, [r3, #8]
 8000b70:	4b04      	ldr	r3, [pc, #16]	; (8000b84 <TIMER_IF_GetTimerValue+0x24>)
 8000b72:	689b      	ldr	r3, [r3, #8]
 8000b74:	4283      	cmp	r3, r0
 8000b76:	d1f9      	bne.n	8000b6c <TIMER_IF_GetTimerValue+0xc>
  return UINT32_MAX - ssr;
 8000b78:	43c0      	mvns	r0, r0
 8000b7a:	4770      	bx	lr
  uint32_t ret = 0;
 8000b7c:	2000      	movs	r0, #0
}
 8000b7e:	4770      	bx	lr
 8000b80:	20000100 	.word	0x20000100
 8000b84:	40002800 	.word	0x40002800

08000b88 <TIMER_IF_GetMinimumTimeout>:
}
 8000b88:	2003      	movs	r0, #3
 8000b8a:	4770      	bx	lr

08000b8c <TIMER_IF_Convert_ms2Tick>:
{
 8000b8c:	b508      	push	{r3, lr}
 8000b8e:	4601      	mov	r1, r0
  ret = ((uint32_t)((((uint64_t) timeMilliSec) << RTC_N_PREDIV_S) / 1000));
 8000b90:	f44f 727a 	mov.w	r2, #1000	; 0x3e8
 8000b94:	2300      	movs	r3, #0
 8000b96:	0280      	lsls	r0, r0, #10
 8000b98:	0d89      	lsrs	r1, r1, #22
 8000b9a:	f7ff fb49 	bl	8000230 <__aeabi_uldivmod>
}
 8000b9e:	bd08      	pop	{r3, pc}

08000ba0 <TIMER_IF_Convert_Tick2ms>:
  ret = ((uint32_t)((((uint64_t)(tick)) * 1000) >> RTC_N_PREDIV_S));
 8000ba0:	0ec2      	lsrs	r2, r0, #27
 8000ba2:	0143      	lsls	r3, r0, #5
 8000ba4:	1a1b      	subs	r3, r3, r0
 8000ba6:	f162 0200 	sbc.w	r2, r2, #0
 8000baa:	0092      	lsls	r2, r2, #2
 8000bac:	ea42 7293 	orr.w	r2, r2, r3, lsr #30
 8000bb0:	009b      	lsls	r3, r3, #2
 8000bb2:	181b      	adds	r3, r3, r0
 8000bb4:	f142 0000 	adc.w	r0, r2, #0
 8000bb8:	00c0      	lsls	r0, r0, #3
 8000bba:	ea40 7053 	orr.w	r0, r0, r3, lsr #29
 8000bbe:	f3c3 13d5 	ubfx	r3, r3, #7, #22
}
 8000bc2:	ea43 5080 	orr.w	r0, r3, r0, lsl #22
 8000bc6:	4770      	bx	lr

08000bc8 <TIMER_IF_StopTimer>:
{
 8000bc8:	b510      	push	{r4, lr}
  __HAL_RTC_ALARM_CLEAR_FLAG(&hrtc, RTC_FLAG_ALRAF);
 8000bca:	4b07      	ldr	r3, [pc, #28]	; (8000be8 <TIMER_IF_StopTimer+0x20>)
 8000bcc:	2201      	movs	r2, #1
 8000bce:	65da      	str	r2, [r3, #92]	; 0x5c
  HAL_RTC_DeactivateAlarm(&hrtc, RTC_ALARM_A);
 8000bd0:	4c06      	ldr	r4, [pc, #24]	; (8000bec <TIMER_IF_StopTimer+0x24>)
 8000bd2:	f44f 7180 	mov.w	r1, #256	; 0x100
 8000bd6:	4620      	mov	r0, r4
 8000bd8:	f002 fa7e 	bl	80030d8 <HAL_RTC_DeactivateAlarm>
  hrtc.IsEnabled.RtcFeatures = UINT32_MAX;
 8000bdc:	f04f 33ff 	mov.w	r3, #4294967295
 8000be0:	6323      	str	r3, [r4, #48]	; 0x30
}
 8000be2:	2000      	movs	r0, #0
 8000be4:	bd10      	pop	{r4, pc}
 8000be6:	bf00      	nop
 8000be8:	40002800 	.word	0x40002800
 8000bec:	200000b4 	.word	0x200000b4

08000bf0 <TIMER_IF_BkUp_Write_MSBticks>:
{
 8000bf0:	b508      	push	{r3, lr}
 8000bf2:	4602      	mov	r2, r0
  HAL_RTCEx_BKUPWrite(&hrtc, RTC_BKP_MSBTICKS, MSBticks);
 8000bf4:	2102      	movs	r1, #2
 8000bf6:	4802      	ldr	r0, [pc, #8]	; (8000c00 <TIMER_IF_BkUp_Write_MSBticks+0x10>)
 8000bf8:	f002 fcb7 	bl	800356a <HAL_RTCEx_BKUPWrite>
}
 8000bfc:	bd08      	pop	{r3, pc}
 8000bfe:	bf00      	nop
 8000c00:	200000b4 	.word	0x200000b4

08000c04 <TIMER_IF_Init>:
{
 8000c04:	b538      	push	{r3, r4, r5, lr}
  if (RTC_Initialized == false)
 8000c06:	4b0f      	ldr	r3, [pc, #60]	; (8000c44 <TIMER_IF_Init+0x40>)
 8000c08:	781b      	ldrb	r3, [r3, #0]
 8000c0a:	b10b      	cbz	r3, 8000c10 <TIMER_IF_Init+0xc>
}
 8000c0c:	2000      	movs	r0, #0
 8000c0e:	bd38      	pop	{r3, r4, r5, pc}
    hrtc.IsEnabled.RtcFeatures = UINT32_MAX;
 8000c10:	4c0d      	ldr	r4, [pc, #52]	; (8000c48 <TIMER_IF_Init+0x44>)
 8000c12:	f04f 35ff 	mov.w	r5, #4294967295
 8000c16:	6325      	str	r5, [r4, #48]	; 0x30
    MX_RTC_Init();
 8000c18:	f7ff fd68 	bl	80006ec <MX_RTC_Init>
    TIMER_IF_StopTimer();
 8000c1c:	f7ff ffd4 	bl	8000bc8 <TIMER_IF_StopTimer>
    HAL_RTC_DeactivateAlarm(&hrtc, RTC_ALARM_A);
 8000c20:	f44f 7180 	mov.w	r1, #256	; 0x100
 8000c24:	4620      	mov	r0, r4
 8000c26:	f002 fa57 	bl	80030d8 <HAL_RTC_DeactivateAlarm>
    hrtc.IsEnabled.RtcFeatures = UINT32_MAX;
 8000c2a:	6325      	str	r5, [r4, #48]	; 0x30
    HAL_RTCEx_EnableBypassShadow(&hrtc);
 8000c2c:	4620      	mov	r0, r4
 8000c2e:	f002 fc3b 	bl	80034a8 <HAL_RTCEx_EnableBypassShadow>
    TIMER_IF_BkUp_Write_MSBticks(0);
 8000c32:	2000      	movs	r0, #0
 8000c34:	f7ff ffdc 	bl	8000bf0 <TIMER_IF_BkUp_Write_MSBticks>
    TIMER_IF_SetTimerContext();
 8000c38:	f7ff ff68 	bl	8000b0c <TIMER_IF_SetTimerContext>
    RTC_Initialized = true;
 8000c3c:	4b01      	ldr	r3, [pc, #4]	; (8000c44 <TIMER_IF_Init+0x40>)
 8000c3e:	2201      	movs	r2, #1
 8000c40:	701a      	strb	r2, [r3, #0]
 8000c42:	e7e3      	b.n	8000c0c <TIMER_IF_Init+0x8>
 8000c44:	20000100 	.word	0x20000100
 8000c48:	200000b4 	.word	0x200000b4

08000c4c <TIMER_IF_BkUp_Write_Seconds>:
{
 8000c4c:	b508      	push	{r3, lr}
 8000c4e:	4602      	mov	r2, r0
  HAL_RTCEx_BKUPWrite(&hrtc, RTC_BKP_SECONDS, Seconds);
 8000c50:	2100      	movs	r1, #0
 8000c52:	4802      	ldr	r0, [pc, #8]	; (8000c5c <TIMER_IF_BkUp_Write_Seconds+0x10>)
 8000c54:	f002 fc89 	bl	800356a <HAL_RTCEx_BKUPWrite>
}
 8000c58:	bd08      	pop	{r3, pc}
 8000c5a:	bf00      	nop
 8000c5c:	200000b4 	.word	0x200000b4

08000c60 <TIMER_IF_BkUp_Write_SubSeconds>:
{
 8000c60:	b508      	push	{r3, lr}
 8000c62:	4602      	mov	r2, r0
  HAL_RTCEx_BKUPWrite(&hrtc, RTC_BKP_SUBSECONDS, SubSeconds);
 8000c64:	2101      	movs	r1, #1
 8000c66:	4802      	ldr	r0, [pc, #8]	; (8000c70 <TIMER_IF_BkUp_Write_SubSeconds+0x10>)
 8000c68:	f002 fc7f 	bl	800356a <HAL_RTCEx_BKUPWrite>
}
 8000c6c:	bd08      	pop	{r3, pc}
 8000c6e:	bf00      	nop
 8000c70:	200000b4 	.word	0x200000b4

08000c74 <TIMER_IF_StartTimer>:
{
 8000c74:	b510      	push	{r4, lr}
 8000c76:	b08c      	sub	sp, #48	; 0x30
 8000c78:	4604      	mov	r4, r0
  RTC_AlarmTypeDef sAlarm = {0};
 8000c7a:	222c      	movs	r2, #44	; 0x2c
 8000c7c:	2100      	movs	r1, #0
 8000c7e:	a801      	add	r0, sp, #4
 8000c80:	f007 fad3 	bl	800822a <memset>
  TIMER_IF_StopTimer();
 8000c84:	f7ff ffa0 	bl	8000bc8 <TIMER_IF_StopTimer>
  timeout += RtcTimerContext;
 8000c88:	4b0c      	ldr	r3, [pc, #48]	; (8000cbc <TIMER_IF_StartTimer+0x48>)
 8000c8a:	681b      	ldr	r3, [r3, #0]
 8000c8c:	441c      	add	r4, r3
  sAlarm.BinaryAutoClr = RTC_ALARMSUBSECONDBIN_AUTOCLR_NO;
 8000c8e:	2300      	movs	r3, #0
 8000c90:	9308      	str	r3, [sp, #32]
  sAlarm.AlarmTime.SubSeconds = UINT32_MAX - timeout;
 8000c92:	43e4      	mvns	r4, r4
 8000c94:	9402      	str	r4, [sp, #8]
  sAlarm.AlarmMask = RTC_ALARMMASK_NONE;
 8000c96:	9306      	str	r3, [sp, #24]
  sAlarm.AlarmSubSecondMask = RTC_ALARMSUBSECONDBINMASK_NONE;
 8000c98:	f04f 5300 	mov.w	r3, #536870912	; 0x20000000
 8000c9c:	9307      	str	r3, [sp, #28]
  sAlarm.Alarm = RTC_ALARM_A;
 8000c9e:	f44f 7380 	mov.w	r3, #256	; 0x100
 8000ca2:	930b      	str	r3, [sp, #44]	; 0x2c
  if (HAL_RTC_SetAlarm_IT(&hrtc, &sAlarm, RTC_FORMAT_BCD) != HAL_OK)
 8000ca4:	2201      	movs	r2, #1
 8000ca6:	a901      	add	r1, sp, #4
 8000ca8:	4805      	ldr	r0, [pc, #20]	; (8000cc0 <TIMER_IF_StartTimer+0x4c>)
 8000caa:	f002 fb41 	bl	8003330 <HAL_RTC_SetAlarm_IT>
 8000cae:	b910      	cbnz	r0, 8000cb6 <TIMER_IF_StartTimer+0x42>
}
 8000cb0:	2000      	movs	r0, #0
 8000cb2:	b00c      	add	sp, #48	; 0x30
 8000cb4:	bd10      	pop	{r4, pc}
    Error_Handler();
 8000cb6:	f7ff fcc3 	bl	8000640 <Error_Handler>
 8000cba:	e7f9      	b.n	8000cb0 <TIMER_IF_StartTimer+0x3c>
 8000cbc:	20000104 	.word	0x20000104
 8000cc0:	200000b4 	.word	0x200000b4

08000cc4 <TIMER_IF_BkUp_Read_MSBticks>:
{
 8000cc4:	b508      	push	{r3, lr}
  MSBticks = HAL_RTCEx_BKUPRead(&hrtc, RTC_BKP_MSBTICKS);
 8000cc6:	2102      	movs	r1, #2
 8000cc8:	4801      	ldr	r0, [pc, #4]	; (8000cd0 <TIMER_IF_BkUp_Read_MSBticks+0xc>)
 8000cca:	f002 fc55 	bl	8003578 <HAL_RTCEx_BKUPRead>
}
 8000cce:	bd08      	pop	{r3, pc}
 8000cd0:	200000b4 	.word	0x200000b4

08000cd4 <TIMER_IF_GetTime>:
{
 8000cd4:	b538      	push	{r3, r4, r5, lr}
 8000cd6:	4605      	mov	r5, r0
 8000cd8:	4b0b      	ldr	r3, [pc, #44]	; (8000d08 <TIMER_IF_GetTime+0x34>)
 8000cda:	689c      	ldr	r4, [r3, #8]
  while (ssr != LL_RTC_TIME_GetSubSecond(RTC))
 8000cdc:	e001      	b.n	8000ce2 <TIMER_IF_GetTime+0xe>
 8000cde:	4b0a      	ldr	r3, [pc, #40]	; (8000d08 <TIMER_IF_GetTime+0x34>)
 8000ce0:	689c      	ldr	r4, [r3, #8]
 8000ce2:	4a09      	ldr	r2, [pc, #36]	; (8000d08 <TIMER_IF_GetTime+0x34>)
 8000ce4:	6892      	ldr	r2, [r2, #8]
 8000ce6:	42a2      	cmp	r2, r4
 8000ce8:	d1f9      	bne.n	8000cde <TIMER_IF_GetTime+0xa>
  return UINT32_MAX - ssr;
 8000cea:	43e4      	mvns	r4, r4
  uint32_t timerValueMSB = TIMER_IF_BkUp_Read_MSBticks();
 8000cec:	f7ff ffea 	bl	8000cc4 <TIMER_IF_BkUp_Read_MSBticks>
  ticks = (((uint64_t) timerValueMSB) << 32) + timerValueLsb;
 8000cf0:	4623      	mov	r3, r4
  seconds = (uint32_t)(ticks >> RTC_N_PREDIV_S);
 8000cf2:	0aa4      	lsrs	r4, r4, #10
 8000cf4:	ea44 5480 	orr.w	r4, r4, r0, lsl #22
  *mSeconds = TIMER_IF_Convert_Tick2ms(ticks);
 8000cf8:	f3c3 0009 	ubfx	r0, r3, #0, #10
 8000cfc:	f7ff ff50 	bl	8000ba0 <TIMER_IF_Convert_Tick2ms>
 8000d00:	8028      	strh	r0, [r5, #0]
}
 8000d02:	4620      	mov	r0, r4
 8000d04:	bd38      	pop	{r3, r4, r5, pc}
 8000d06:	bf00      	nop
 8000d08:	40002800 	.word	0x40002800

08000d0c <TIMER_IF_BkUp_Read_Seconds>:
{
 8000d0c:	b508      	push	{r3, lr}
  ret = HAL_RTCEx_BKUPRead(&hrtc, RTC_BKP_SECONDS);
 8000d0e:	2100      	movs	r1, #0
 8000d10:	4801      	ldr	r0, [pc, #4]	; (8000d18 <TIMER_IF_BkUp_Read_Seconds+0xc>)
 8000d12:	f002 fc31 	bl	8003578 <HAL_RTCEx_BKUPRead>
}
 8000d16:	bd08      	pop	{r3, pc}
 8000d18:	200000b4 	.word	0x200000b4

08000d1c <TIMER_IF_BkUp_Read_SubSeconds>:
{
 8000d1c:	b508      	push	{r3, lr}
  ret = HAL_RTCEx_BKUPRead(&hrtc, RTC_BKP_SUBSECONDS);
 8000d1e:	2101      	movs	r1, #1
 8000d20:	4801      	ldr	r0, [pc, #4]	; (8000d28 <TIMER_IF_BkUp_Read_SubSeconds+0xc>)
 8000d22:	f002 fc29 	bl	8003578 <HAL_RTCEx_BKUPRead>
}
 8000d26:	bd08      	pop	{r3, pc}
 8000d28:	200000b4 	.word	0x200000b4

08000d2c <TIMER_IF_DelayMs>:
{
 8000d2c:	b508      	push	{r3, lr}
  uint32_t delayTicks = TIMER_IF_Convert_ms2Tick(delay);
 8000d2e:	f7ff ff2d 	bl	8000b8c <TIMER_IF_Convert_ms2Tick>
 8000d32:	4b0d      	ldr	r3, [pc, #52]	; (8000d68 <TIMER_IF_DelayMs+0x3c>)
 8000d34:	6899      	ldr	r1, [r3, #8]
  while (ssr != LL_RTC_TIME_GetSubSecond(RTC))
 8000d36:	e001      	b.n	8000d3c <TIMER_IF_DelayMs+0x10>
 8000d38:	4b0b      	ldr	r3, [pc, #44]	; (8000d68 <TIMER_IF_DelayMs+0x3c>)
 8000d3a:	6899      	ldr	r1, [r3, #8]
 8000d3c:	4a0a      	ldr	r2, [pc, #40]	; (8000d68 <TIMER_IF_DelayMs+0x3c>)
 8000d3e:	6892      	ldr	r2, [r2, #8]
 8000d40:	428a      	cmp	r2, r1
 8000d42:	d1f9      	bne.n	8000d38 <TIMER_IF_DelayMs+0xc>
  return UINT32_MAX - ssr;
 8000d44:	43c9      	mvns	r1, r1
  while (((GetTimerTicks() - timeout)) < delayTicks)
 8000d46:	e00a      	b.n	8000d5e <TIMER_IF_DelayMs+0x32>
 8000d48:	4b07      	ldr	r3, [pc, #28]	; (8000d68 <TIMER_IF_DelayMs+0x3c>)
 8000d4a:	689b      	ldr	r3, [r3, #8]
 8000d4c:	4a06      	ldr	r2, [pc, #24]	; (8000d68 <TIMER_IF_DelayMs+0x3c>)
 8000d4e:	6892      	ldr	r2, [r2, #8]
  while (ssr != LL_RTC_TIME_GetSubSecond(RTC))
 8000d50:	429a      	cmp	r2, r3
 8000d52:	d1f9      	bne.n	8000d48 <TIMER_IF_DelayMs+0x1c>
  return UINT32_MAX - ssr;
 8000d54:	43db      	mvns	r3, r3
  while (((GetTimerTicks() - timeout)) < delayTicks)
 8000d56:	1a5b      	subs	r3, r3, r1
 8000d58:	4283      	cmp	r3, r0
 8000d5a:	d203      	bcs.n	8000d64 <TIMER_IF_DelayMs+0x38>
    __NOP();
 8000d5c:	bf00      	nop
 8000d5e:	4b02      	ldr	r3, [pc, #8]	; (8000d68 <TIMER_IF_DelayMs+0x3c>)
 8000d60:	689b      	ldr	r3, [r3, #8]
  while (ssr != LL_RTC_TIME_GetSubSecond(RTC))
 8000d62:	e7f3      	b.n	8000d4c <TIMER_IF_DelayMs+0x20>
}
 8000d64:	bd08      	pop	{r3, pc}
 8000d66:	bf00      	nop
 8000d68:	40002800 	.word	0x40002800

08000d6c <HAL_RTC_AlarmAEventCallback>:
{
 8000d6c:	b508      	push	{r3, lr}
  UTIL_TIMER_IRQ_MAP_PROCESS();
 8000d6e:	f006 ff51 	bl	8007c14 <UTIL_TIMER_IRQ_Handler>
}
 8000d72:	bd08      	pop	{r3, pc}

08000d74 <HAL_RTCEx_SSRUEventCallback>:
{
 8000d74:	b508      	push	{r3, lr}
  uint32_t MSB_ticks = TIMER_IF_BkUp_Read_MSBticks();
 8000d76:	f7ff ffa5 	bl	8000cc4 <TIMER_IF_BkUp_Read_MSBticks>
  TIMER_IF_BkUp_Write_MSBticks(MSB_ticks + 1);
 8000d7a:	3001      	adds	r0, #1
 8000d7c:	f7ff ff38 	bl	8000bf0 <TIMER_IF_BkUp_Write_MSBticks>
}
 8000d80:	bd08      	pop	{r3, pc}
	...

08000d84 <MX_USART2_UART_Init>:
DMA_HandleTypeDef hdma_usart2_rx;

/* USART2 init function */

void MX_USART2_UART_Init(void)
{
 8000d84:	b508      	push	{r3, lr}
  /* USER CODE END USART2_Init 0 */

  /* USER CODE BEGIN USART2_Init 1 */

  /* USER CODE END USART2_Init 1 */
  huart2.Instance = USART2;
 8000d86:	4817      	ldr	r0, [pc, #92]	; (8000de4 <MX_USART2_UART_Init+0x60>)
 8000d88:	4b17      	ldr	r3, [pc, #92]	; (8000de8 <MX_USART2_UART_Init+0x64>)
 8000d8a:	6003      	str	r3, [r0, #0]
  huart2.Init.BaudRate = 115200;
 8000d8c:	f44f 33e1 	mov.w	r3, #115200	; 0x1c200
 8000d90:	6043      	str	r3, [r0, #4]
  huart2.Init.WordLength = UART_WORDLENGTH_8B;
 8000d92:	2300      	movs	r3, #0
 8000d94:	6083      	str	r3, [r0, #8]
  huart2.Init.StopBits = UART_STOPBITS_1;
 8000d96:	60c3      	str	r3, [r0, #12]
  huart2.Init.Parity = UART_PARITY_NONE;
 8000d98:	6103      	str	r3, [r0, #16]
  huart2.Init.Mode = UART_MODE_TX_RX;
 8000d9a:	220c      	movs	r2, #12
 8000d9c:	6142      	str	r2, [r0, #20]
  huart2.Init.HwFlowCtl = UART_HWCONTROL_NONE;
 8000d9e:	6183      	str	r3, [r0, #24]
  huart2.Init.OverSampling = UART_OVERSAMPLING_16;
 8000da0:	61c3      	str	r3, [r0, #28]
  huart2.Init.OneBitSampling = UART_ONE_BIT_SAMPLE_DISABLE;
 8000da2:	6203      	str	r3, [r0, #32]
  huart2.Init.ClockPrescaler = UART_PRESCALER_DIV1;
 8000da4:	6243      	str	r3, [r0, #36]	; 0x24
  huart2.AdvancedInit.AdvFeatureInit = UART_ADVFEATURE_NO_INIT;
 8000da6:	6283      	str	r3, [r0, #40]	; 0x28
  if (HAL_UART_Init(&huart2) != HAL_OK)
 8000da8:	f003 ff42 	bl	8004c30 <HAL_UART_Init>
 8000dac:	b970      	cbnz	r0, 8000dcc <MX_USART2_UART_Init+0x48>
  {
    Error_Handler();
  }
  if (HAL_UARTEx_SetTxFifoThreshold(&huart2, UART_TXFIFO_THRESHOLD_1_8) != HAL_OK)
 8000dae:	2100      	movs	r1, #0
 8000db0:	480c      	ldr	r0, [pc, #48]	; (8000de4 <MX_USART2_UART_Init+0x60>)
 8000db2:	f004 f8f2 	bl	8004f9a <HAL_UARTEx_SetTxFifoThreshold>
 8000db6:	b960      	cbnz	r0, 8000dd2 <MX_USART2_UART_Init+0x4e>
  {
    Error_Handler();
  }
  if (HAL_UARTEx_SetRxFifoThreshold(&huart2, UART_RXFIFO_THRESHOLD_1_8) != HAL_OK)
 8000db8:	2100      	movs	r1, #0
 8000dba:	480a      	ldr	r0, [pc, #40]	; (8000de4 <MX_USART2_UART_Init+0x60>)
 8000dbc:	f004 f912 	bl	8004fe4 <HAL_UARTEx_SetRxFifoThreshold>
 8000dc0:	b950      	cbnz	r0, 8000dd8 <MX_USART2_UART_Init+0x54>
  {
    Error_Handler();
  }
  if (HAL_UARTEx_EnableFifoMode(&huart2) != HAL_OK)
 8000dc2:	4808      	ldr	r0, [pc, #32]	; (8000de4 <MX_USART2_UART_Init+0x60>)
 8000dc4:	f004 f8c5 	bl	8004f52 <HAL_UARTEx_EnableFifoMode>
 8000dc8:	b948      	cbnz	r0, 8000dde <MX_USART2_UART_Init+0x5a>
  }
  /* USER CODE BEGIN USART2_Init 2 */

  /* USER CODE END USART2_Init 2 */

}
 8000dca:	bd08      	pop	{r3, pc}
    Error_Handler();
 8000dcc:	f7ff fc38 	bl	8000640 <Error_Handler>
 8000dd0:	e7ed      	b.n	8000dae <MX_USART2_UART_Init+0x2a>
    Error_Handler();
 8000dd2:	f7ff fc35 	bl	8000640 <Error_Handler>
 8000dd6:	e7ef      	b.n	8000db8 <MX_USART2_UART_Init+0x34>
    Error_Handler();
 8000dd8:	f7ff fc32 	bl	8000640 <Error_Handler>
 8000ddc:	e7f1      	b.n	8000dc2 <MX_USART2_UART_Init+0x3e>
    Error_Handler();
 8000dde:	f7ff fc2f 	bl	8000640 <Error_Handler>
}
 8000de2:	e7f2      	b.n	8000dca <MX_USART2_UART_Init+0x46>
 8000de4:	200001c8 	.word	0x200001c8
 8000de8:	40004400 	.word	0x40004400

08000dec <HAL_UART_MspInit>:

void HAL_UART_MspInit(UART_HandleTypeDef* uartHandle)
{
 8000dec:	b530      	push	{r4, r5, lr}
 8000dee:	b097      	sub	sp, #92	; 0x5c
 8000df0:	4604      	mov	r4, r0

  GPIO_InitTypeDef GPIO_InitStruct = {0};
 8000df2:	2100      	movs	r1, #0
 8000df4:	9111      	str	r1, [sp, #68]	; 0x44
 8000df6:	9112      	str	r1, [sp, #72]	; 0x48
 8000df8:	9113      	str	r1, [sp, #76]	; 0x4c
 8000dfa:	9114      	str	r1, [sp, #80]	; 0x50
 8000dfc:	9115      	str	r1, [sp, #84]	; 0x54
  RCC_PeriphCLKInitTypeDef PeriphClkInitStruct = {0};
 8000dfe:	2238      	movs	r2, #56	; 0x38
 8000e00:	a803      	add	r0, sp, #12
 8000e02:	f007 fa12 	bl	800822a <memset>
  if(uartHandle->Instance==USART2)
 8000e06:	6822      	ldr	r2, [r4, #0]
 8000e08:	4b3d      	ldr	r3, [pc, #244]	; (8000f00 <HAL_UART_MspInit+0x114>)
 8000e0a:	429a      	cmp	r2, r3
 8000e0c:	d001      	beq.n	8000e12 <HAL_UART_MspInit+0x26>
    HAL_NVIC_EnableIRQ(USART2_IRQn);
  /* USER CODE BEGIN USART2_MspInit 1 */

  /* USER CODE END USART2_MspInit 1 */
  }
}
 8000e0e:	b017      	add	sp, #92	; 0x5c
 8000e10:	bd30      	pop	{r4, r5, pc}
    PeriphClkInitStruct.PeriphClockSelection = RCC_PERIPHCLK_USART2;
 8000e12:	2302      	movs	r3, #2
 8000e14:	9303      	str	r3, [sp, #12]
    PeriphClkInitStruct.Usart2ClockSelection = RCC_USART2CLKSOURCE_SYSCLK;
 8000e16:	4b3b      	ldr	r3, [pc, #236]	; (8000f04 <HAL_UART_MspInit+0x118>)
 8000e18:	9305      	str	r3, [sp, #20]
    if (HAL_RCCEx_PeriphCLKConfig(&PeriphClkInitStruct) != HAL_OK)
 8000e1a:	a803      	add	r0, sp, #12
 8000e1c:	f002 f812 	bl	8002e44 <HAL_RCCEx_PeriphCLKConfig>
 8000e20:	2800      	cmp	r0, #0
 8000e22:	d15e      	bne.n	8000ee2 <HAL_UART_MspInit+0xf6>
  SET_BIT(RCC->APB1ENR1, Periphs);
 8000e24:	f04f 43b0 	mov.w	r3, #1476395008	; 0x58000000
 8000e28:	6d9a      	ldr	r2, [r3, #88]	; 0x58
 8000e2a:	f442 3200 	orr.w	r2, r2, #131072	; 0x20000
 8000e2e:	659a      	str	r2, [r3, #88]	; 0x58
  tmpreg = READ_BIT(RCC->APB1ENR1, Periphs);
 8000e30:	6d9a      	ldr	r2, [r3, #88]	; 0x58
 8000e32:	f402 3200 	and.w	r2, r2, #131072	; 0x20000
 8000e36:	9202      	str	r2, [sp, #8]
  (void)tmpreg;
 8000e38:	9a02      	ldr	r2, [sp, #8]
  SET_BIT(RCC->AHB2ENR, Periphs);
 8000e3a:	6cda      	ldr	r2, [r3, #76]	; 0x4c
 8000e3c:	f042 0201 	orr.w	r2, r2, #1
 8000e40:	64da      	str	r2, [r3, #76]	; 0x4c
  tmpreg = READ_BIT(RCC->AHB2ENR, Periphs);
 8000e42:	6cdb      	ldr	r3, [r3, #76]	; 0x4c
 8000e44:	f003 0301 	and.w	r3, r3, #1
 8000e48:	9301      	str	r3, [sp, #4]
  (void)tmpreg;
 8000e4a:	9b01      	ldr	r3, [sp, #4]
    GPIO_InitStruct.Pin = USARTx_RX_Pin|USARTx_TX_Pin;
 8000e4c:	230c      	movs	r3, #12
 8000e4e:	9311      	str	r3, [sp, #68]	; 0x44
    GPIO_InitStruct.Mode = GPIO_MODE_AF_PP;
 8000e50:	2302      	movs	r3, #2
 8000e52:	9312      	str	r3, [sp, #72]	; 0x48
    GPIO_InitStruct.Pull = GPIO_NOPULL;
 8000e54:	2500      	movs	r5, #0
 8000e56:	9513      	str	r5, [sp, #76]	; 0x4c
    GPIO_InitStruct.Speed = GPIO_SPEED_FREQ_VERY_HIGH;
 8000e58:	2303      	movs	r3, #3
 8000e5a:	9314      	str	r3, [sp, #80]	; 0x50
    GPIO_InitStruct.Alternate = GPIO_AF7_USART2;
 8000e5c:	2307      	movs	r3, #7
 8000e5e:	9315      	str	r3, [sp, #84]	; 0x54
    HAL_GPIO_Init(GPIOA, &GPIO_InitStruct);
 8000e60:	a911      	add	r1, sp, #68	; 0x44
 8000e62:	f04f 4090 	mov.w	r0, #1207959552	; 0x48000000
 8000e66:	f001 f86f 	bl	8001f48 <HAL_GPIO_Init>
    hdma_usart2_tx.Instance = DMA1_Channel5;
 8000e6a:	4827      	ldr	r0, [pc, #156]	; (8000f08 <HAL_UART_MspInit+0x11c>)
 8000e6c:	4b27      	ldr	r3, [pc, #156]	; (8000f0c <HAL_UART_MspInit+0x120>)
 8000e6e:	6003      	str	r3, [r0, #0]
    hdma_usart2_tx.Init.Request = DMA_REQUEST_USART2_TX;
 8000e70:	2314      	movs	r3, #20
 8000e72:	6043      	str	r3, [r0, #4]
    hdma_usart2_tx.Init.Direction = DMA_MEMORY_TO_PERIPH;
 8000e74:	2310      	movs	r3, #16
 8000e76:	6083      	str	r3, [r0, #8]
    hdma_usart2_tx.Init.PeriphInc = DMA_PINC_DISABLE;
 8000e78:	60c5      	str	r5, [r0, #12]
    hdma_usart2_tx.Init.MemInc = DMA_MINC_ENABLE;
 8000e7a:	2380      	movs	r3, #128	; 0x80
 8000e7c:	6103      	str	r3, [r0, #16]
    hdma_usart2_tx.Init.PeriphDataAlignment = DMA_PDATAALIGN_BYTE;
 8000e7e:	6145      	str	r5, [r0, #20]
    hdma_usart2_tx.Init.MemDataAlignment = DMA_MDATAALIGN_BYTE;
 8000e80:	6185      	str	r5, [r0, #24]
    hdma_usart2_tx.Init.Mode = DMA_NORMAL;
 8000e82:	61c5      	str	r5, [r0, #28]
    hdma_usart2_tx.Init.Priority = DMA_PRIORITY_LOW;
 8000e84:	6205      	str	r5, [r0, #32]
    if (HAL_DMA_Init(&hdma_usart2_tx) != HAL_OK)
 8000e86:	f000 fe49 	bl	8001b1c <HAL_DMA_Init>
 8000e8a:	bb68      	cbnz	r0, 8000ee8 <HAL_UART_MspInit+0xfc>
    if (HAL_DMA_ConfigChannelAttributes(&hdma_usart2_tx, DMA_CHANNEL_NPRIV) != HAL_OK)
 8000e8c:	2110      	movs	r1, #16
 8000e8e:	481e      	ldr	r0, [pc, #120]	; (8000f08 <HAL_UART_MspInit+0x11c>)
 8000e90:	f001 f846 	bl	8001f20 <HAL_DMA_ConfigChannelAttributes>
 8000e94:	bb58      	cbnz	r0, 8000eee <HAL_UART_MspInit+0x102>
    __HAL_LINKDMA(uartHandle,hdmatx,hdma_usart2_tx);
 8000e96:	4b1c      	ldr	r3, [pc, #112]	; (8000f08 <HAL_UART_MspInit+0x11c>)
 8000e98:	67e3      	str	r3, [r4, #124]	; 0x7c
 8000e9a:	629c      	str	r4, [r3, #40]	; 0x28
    hdma_usart2_rx.Instance = DMA1_Channel1;
 8000e9c:	481c      	ldr	r0, [pc, #112]	; (8000f10 <HAL_UART_MspInit+0x124>)
 8000e9e:	4b1d      	ldr	r3, [pc, #116]	; (8000f14 <HAL_UART_MspInit+0x128>)
 8000ea0:	6003      	str	r3, [r0, #0]
    hdma_usart2_rx.Init.Request = DMA_REQUEST_USART2_RX;
 8000ea2:	2313      	movs	r3, #19
 8000ea4:	6043      	str	r3, [r0, #4]
    hdma_usart2_rx.Init.Direction = DMA_PERIPH_TO_MEMORY;
 8000ea6:	2300      	movs	r3, #0
 8000ea8:	6083      	str	r3, [r0, #8]
    hdma_usart2_rx.Init.PeriphInc = DMA_PINC_DISABLE;
 8000eaa:	60c3      	str	r3, [r0, #12]
    hdma_usart2_rx.Init.MemInc = DMA_MINC_ENABLE;
 8000eac:	2280      	movs	r2, #128	; 0x80
 8000eae:	6102      	str	r2, [r0, #16]
    hdma_usart2_rx.Init.PeriphDataAlignment = DMA_PDATAALIGN_BYTE;
 8000eb0:	6143      	str	r3, [r0, #20]
    hdma_usart2_rx.Init.MemDataAlignment = DMA_MDATAALIGN_BYTE;
 8000eb2:	6183      	str	r3, [r0, #24]
    hdma_usart2_rx.Init.Mode = DMA_NORMAL;
 8000eb4:	61c3      	str	r3, [r0, #28]
    hdma_usart2_rx.Init.Priority = DMA_PRIORITY_LOW;
 8000eb6:	6203      	str	r3, [r0, #32]
    if (HAL_DMA_Init(&hdma_usart2_rx) != HAL_OK)
 8000eb8:	f000 fe30 	bl	8001b1c <HAL_DMA_Init>
 8000ebc:	b9d0      	cbnz	r0, 8000ef4 <HAL_UART_MspInit+0x108>
    if (HAL_DMA_ConfigChannelAttributes(&hdma_usart2_rx, DMA_CHANNEL_NPRIV) != HAL_OK)
 8000ebe:	2110      	movs	r1, #16
 8000ec0:	4813      	ldr	r0, [pc, #76]	; (8000f10 <HAL_UART_MspInit+0x124>)
 8000ec2:	f001 f82d 	bl	8001f20 <HAL_DMA_ConfigChannelAttributes>
 8000ec6:	b9c0      	cbnz	r0, 8000efa <HAL_UART_MspInit+0x10e>
    __HAL_LINKDMA(uartHandle,hdmarx,hdma_usart2_rx);
 8000ec8:	4b11      	ldr	r3, [pc, #68]	; (8000f10 <HAL_UART_MspInit+0x124>)
 8000eca:	f8c4 3080 	str.w	r3, [r4, #128]	; 0x80
 8000ece:	629c      	str	r4, [r3, #40]	; 0x28
    HAL_NVIC_SetPriority(USART2_IRQn, 2, 0);
 8000ed0:	2200      	movs	r2, #0
 8000ed2:	2102      	movs	r1, #2
 8000ed4:	2025      	movs	r0, #37	; 0x25
 8000ed6:	f000 fd59 	bl	800198c <HAL_NVIC_SetPriority>
    HAL_NVIC_EnableIRQ(USART2_IRQn);
 8000eda:	2025      	movs	r0, #37	; 0x25
 8000edc:	f000 fd8e 	bl	80019fc <HAL_NVIC_EnableIRQ>
}
 8000ee0:	e795      	b.n	8000e0e <HAL_UART_MspInit+0x22>
      Error_Handler();
 8000ee2:	f7ff fbad 	bl	8000640 <Error_Handler>
 8000ee6:	e79d      	b.n	8000e24 <HAL_UART_MspInit+0x38>
      Error_Handler();
 8000ee8:	f7ff fbaa 	bl	8000640 <Error_Handler>
 8000eec:	e7ce      	b.n	8000e8c <HAL_UART_MspInit+0xa0>
      Error_Handler();
 8000eee:	f7ff fba7 	bl	8000640 <Error_Handler>
 8000ef2:	e7d0      	b.n	8000e96 <HAL_UART_MspInit+0xaa>
      Error_Handler();
 8000ef4:	f7ff fba4 	bl	8000640 <Error_Handler>
 8000ef8:	e7e1      	b.n	8000ebe <HAL_UART_MspInit+0xd2>
      Error_Handler();
 8000efa:	f7ff fba1 	bl	8000640 <Error_Handler>
 8000efe:	e7e3      	b.n	8000ec8 <HAL_UART_MspInit+0xdc>
 8000f00:	40004400 	.word	0x40004400
 8000f04:	000c0004 	.word	0x000c0004
 8000f08:	20000168 	.word	0x20000168
 8000f0c:	40020058 	.word	0x40020058
 8000f10:	20000108 	.word	0x20000108
 8000f14:	40020008 	.word	0x40020008

08000f18 <HAL_UART_MspDeInit>:

void HAL_UART_MspDeInit(UART_HandleTypeDef* uartHandle)
{

  if(uartHandle->Instance==USART2)
 8000f18:	6802      	ldr	r2, [r0, #0]
 8000f1a:	4b0e      	ldr	r3, [pc, #56]	; (8000f54 <HAL_UART_MspDeInit+0x3c>)
 8000f1c:	429a      	cmp	r2, r3
 8000f1e:	d000      	beq.n	8000f22 <HAL_UART_MspDeInit+0xa>
 8000f20:	4770      	bx	lr
{
 8000f22:	b510      	push	{r4, lr}
 8000f24:	4604      	mov	r4, r0
  CLEAR_BIT(RCC->APB1ENR1, Periphs);
 8000f26:	f04f 42b0 	mov.w	r2, #1476395008	; 0x58000000
 8000f2a:	6d93      	ldr	r3, [r2, #88]	; 0x58
 8000f2c:	f423 3300 	bic.w	r3, r3, #131072	; 0x20000
 8000f30:	6593      	str	r3, [r2, #88]	; 0x58

    /**USART2 GPIO Configuration
    PA3     ------> USART2_RX
    PA2     ------> USART2_TX
    */
    HAL_GPIO_DeInit(GPIOA, USARTx_RX_Pin|USARTx_TX_Pin);
 8000f32:	210c      	movs	r1, #12
 8000f34:	f04f 4090 	mov.w	r0, #1207959552	; 0x48000000
 8000f38:	f001 f8d8 	bl	80020ec <HAL_GPIO_DeInit>

    /* USART2 DMA DeInit */
    HAL_DMA_DeInit(uartHandle->hdmatx);
 8000f3c:	6fe0      	ldr	r0, [r4, #124]	; 0x7c
 8000f3e:	f000 fe5f 	bl	8001c00 <HAL_DMA_DeInit>
    HAL_DMA_DeInit(uartHandle->hdmarx);
 8000f42:	f8d4 0080 	ldr.w	r0, [r4, #128]	; 0x80
 8000f46:	f000 fe5b 	bl	8001c00 <HAL_DMA_DeInit>

    /* USART2 interrupt Deinit */
    HAL_NVIC_DisableIRQ(USART2_IRQn);
 8000f4a:	2025      	movs	r0, #37	; 0x25
 8000f4c:	f000 fd64 	bl	8001a18 <HAL_NVIC_DisableIRQ>
  /* USER CODE BEGIN USART2_MspDeInit 1 */

  /* USER CODE END USART2_MspDeInit 1 */
  }
}
 8000f50:	bd10      	pop	{r4, pc}
 8000f52:	bf00      	nop
 8000f54:	40004400 	.word	0x40004400

08000f58 <vcom_Init>:
/* USER CODE END PFP */

/* Exported functions --------------------------------------------------------*/

UTIL_ADV_TRACE_Status_t vcom_Init(void (*cb)(void *))
{
 8000f58:	b508      	push	{r3, lr}
  /* USER CODE BEGIN vcom_Init_1 */

  /* USER CODE END vcom_Init_1 */
  TxCpltCallback = cb;
 8000f5a:	4b07      	ldr	r3, [pc, #28]	; (8000f78 <vcom_Init+0x20>)
 8000f5c:	6018      	str	r0, [r3, #0]
  MX_DMA_Init();
 8000f5e:	f7ff fae5 	bl	800052c <MX_DMA_Init>
  MX_USART2_UART_Init();
 8000f62:	f7ff ff0f 	bl	8000d84 <MX_USART2_UART_Init>
  *         @arg @ref LL_EXTI_LINE_ALL_0_31
  * @retval None
  */
__STATIC_INLINE void LL_EXTI_EnableIT_0_31(uint32_t ExtiLine)
{
  SET_BIT(EXTI->IMR1, ExtiLine);
 8000f66:	4a05      	ldr	r2, [pc, #20]	; (8000f7c <vcom_Init+0x24>)
 8000f68:	f8d2 3080 	ldr.w	r3, [r2, #128]	; 0x80
 8000f6c:	f043 6300 	orr.w	r3, r3, #134217728	; 0x8000000
 8000f70:	f8c2 3080 	str.w	r3, [r2, #128]	; 0x80
  LL_EXTI_EnableIT_0_31(LL_EXTI_LINE_27);
  return UTIL_ADV_TRACE_OK;
  /* USER CODE BEGIN vcom_Init_2 */

  /* USER CODE END vcom_Init_2 */
}
 8000f74:	2000      	movs	r0, #0
 8000f76:	bd08      	pop	{r3, pc}
 8000f78:	20000260 	.word	0x20000260
 8000f7c:	58000800 	.word	0x58000800

08000f80 <vcom_DeInit>:

UTIL_ADV_TRACE_Status_t vcom_DeInit(void)
{
 8000f80:	b508      	push	{r3, lr}
  SET_BIT(RCC->APB1RSTR1, Periphs);
 8000f82:	f04f 43b0 	mov.w	r3, #1476395008	; 0x58000000
 8000f86:	6b9a      	ldr	r2, [r3, #56]	; 0x38
 8000f88:	f442 3200 	orr.w	r2, r2, #131072	; 0x20000
 8000f8c:	639a      	str	r2, [r3, #56]	; 0x38
  CLEAR_BIT(RCC->APB1RSTR1, Periphs);
 8000f8e:	6b9a      	ldr	r2, [r3, #56]	; 0x38
 8000f90:	f422 3200 	bic.w	r2, r2, #131072	; 0x20000
 8000f94:	639a      	str	r2, [r3, #56]	; 0x38
  /* ##-1- Reset peripherals ################################################## */
  __HAL_RCC_USART2_FORCE_RESET();
  __HAL_RCC_USART2_RELEASE_RESET();

  /* ##-2- MspDeInit ################################################## */
  HAL_UART_MspDeInit(&huart2);
 8000f96:	4804      	ldr	r0, [pc, #16]	; (8000fa8 <vcom_DeInit+0x28>)
 8000f98:	f7ff ffbe 	bl	8000f18 <HAL_UART_MspDeInit>

  /* ##-3- Disable the NVIC for DMA ########################################### */
  /* USER CODE BEGIN 1 */
  HAL_NVIC_DisableIRQ(DMA1_Channel5_IRQn);
 8000f9c:	200f      	movs	r0, #15
 8000f9e:	f000 fd3b 	bl	8001a18 <HAL_NVIC_DisableIRQ>
  return UTIL_ADV_TRACE_OK;
  /* USER CODE END 1 */
  /* USER CODE BEGIN vcom_DeInit_2 */

  /* USER CODE END vcom_DeInit_2 */
}
 8000fa2:	2000      	movs	r0, #0
 8000fa4:	bd08      	pop	{r3, pc}
 8000fa6:	bf00      	nop
 8000fa8:	200001c8 	.word	0x200001c8

08000fac <vcom_Trace_DMA>:

  /* USER CODE END vcom_Trace_2 */
}

UTIL_ADV_TRACE_Status_t vcom_Trace_DMA(uint8_t *p_data, uint16_t size)
{
 8000fac:	b508      	push	{r3, lr}
 8000fae:	460a      	mov	r2, r1
  /* USER CODE BEGIN vcom_Trace_DMA_1 */

  /* USER CODE END vcom_Trace_DMA_1 */
  HAL_UART_Transmit_DMA(&huart2, p_data, size);
 8000fb0:	4601      	mov	r1, r0
 8000fb2:	4802      	ldr	r0, [pc, #8]	; (8000fbc <vcom_Trace_DMA+0x10>)
 8000fb4:	f002 febe 	bl	8003d34 <HAL_UART_Transmit_DMA>
  return UTIL_ADV_TRACE_OK;
  /* USER CODE BEGIN vcom_Trace_DMA_2 */

  /* USER CODE END vcom_Trace_DMA_2 */
}
 8000fb8:	2000      	movs	r0, #0
 8000fba:	bd08      	pop	{r3, pc}
 8000fbc:	200001c8 	.word	0x200001c8

08000fc0 <vcom_ReceiveInit>:

UTIL_ADV_TRACE_Status_t vcom_ReceiveInit(void (*RxCb)(uint8_t *rxChar, uint16_t size, uint8_t error))
{
 8000fc0:	b510      	push	{r4, lr}
 8000fc2:	b082      	sub	sp, #8

  /* USER CODE END vcom_ReceiveInit_1 */
  UART_WakeUpTypeDef WakeUpSelection;

  /*record call back*/
  RxCpltCallback = RxCb;
 8000fc4:	4b12      	ldr	r3, [pc, #72]	; (8001010 <vcom_ReceiveInit+0x50>)
 8000fc6:	6018      	str	r0, [r3, #0]

  /*Set wakeUp event on start bit*/
  WakeUpSelection.WakeUpEvent = UART_WAKEUP_ON_STARTBIT;
 8000fc8:	f44f 1300 	mov.w	r3, #2097152	; 0x200000
 8000fcc:	9300      	str	r3, [sp, #0]

  HAL_UARTEx_StopModeWakeUpSourceConfig(&huart2, WakeUpSelection);
 8000fce:	ab02      	add	r3, sp, #8
 8000fd0:	e913 0006 	ldmdb	r3, {r1, r2}
 8000fd4:	480f      	ldr	r0, [pc, #60]	; (8001014 <vcom_ReceiveInit+0x54>)
 8000fd6:	f003 ff64 	bl	8004ea2 <HAL_UARTEx_StopModeWakeUpSourceConfig>

  /* Make sure that no UART transfer is on-going */
  while (__HAL_UART_GET_FLAG(&huart2, USART_ISR_BUSY) == SET);
 8000fda:	4b0e      	ldr	r3, [pc, #56]	; (8001014 <vcom_ReceiveInit+0x54>)
 8000fdc:	681b      	ldr	r3, [r3, #0]
 8000fde:	69da      	ldr	r2, [r3, #28]
 8000fe0:	f412 3f80 	tst.w	r2, #65536	; 0x10000
 8000fe4:	d1f9      	bne.n	8000fda <vcom_ReceiveInit+0x1a>

  /* Make sure that UART is ready to receive)   */
  while (__HAL_UART_GET_FLAG(&huart2, USART_ISR_REACK) == RESET);
 8000fe6:	69da      	ldr	r2, [r3, #28]
 8000fe8:	f412 0f80 	tst.w	r2, #4194304	; 0x400000
 8000fec:	d0fb      	beq.n	8000fe6 <vcom_ReceiveInit+0x26>

  /* Enable USART interrupt */
  __HAL_UART_ENABLE_IT(&huart2, UART_IT_WUF);
 8000fee:	689a      	ldr	r2, [r3, #8]
 8000ff0:	f442 0280 	orr.w	r2, r2, #4194304	; 0x400000
 8000ff4:	609a      	str	r2, [r3, #8]

  /*Enable wakeup from stop mode*/
  HAL_UARTEx_EnableStopMode(&huart2);
 8000ff6:	4c07      	ldr	r4, [pc, #28]	; (8001014 <vcom_ReceiveInit+0x54>)
 8000ff8:	4620      	mov	r0, r4
 8000ffa:	f003 ff93 	bl	8004f24 <HAL_UARTEx_EnableStopMode>

  /*Start LPUART receive on IT*/
  HAL_UART_Receive_IT(&huart2, &charRx, 1);
 8000ffe:	2201      	movs	r2, #1
 8001000:	4905      	ldr	r1, [pc, #20]	; (8001018 <vcom_ReceiveInit+0x58>)
 8001002:	4620      	mov	r0, r4
 8001004:	f003 fee6 	bl	8004dd4 <HAL_UART_Receive_IT>

  return UTIL_ADV_TRACE_OK;
  /* USER CODE BEGIN vcom_ReceiveInit_2 */

  /* USER CODE END vcom_ReceiveInit_2 */
}
 8001008:	2000      	movs	r0, #0
 800100a:	b002      	add	sp, #8
 800100c:	bd10      	pop	{r4, pc}
 800100e:	bf00      	nop
 8001010:	2000025c 	.word	0x2000025c
 8001014:	200001c8 	.word	0x200001c8
 8001018:	20000264 	.word	0x20000264

0800101c <vcom_Resume>:

void vcom_Resume(void)
{
 800101c:	b508      	push	{r3, lr}
  /* USER CODE BEGIN vcom_Resume_1 */

  /* USER CODE END vcom_Resume_1 */
  /*to re-enable lost UART settings*/
  if (HAL_UART_Init(&huart2) != HAL_OK)
 800101e:	4807      	ldr	r0, [pc, #28]	; (800103c <vcom_Resume+0x20>)
 8001020:	f003 fe06 	bl	8004c30 <HAL_UART_Init>
 8001024:	b920      	cbnz	r0, 8001030 <vcom_Resume+0x14>
  {
    Error_Handler();
  }

  /*to re-enable lost DMA settings*/
  if (HAL_DMA_Init(&hdma_usart2_tx) != HAL_OK)
 8001026:	4806      	ldr	r0, [pc, #24]	; (8001040 <vcom_Resume+0x24>)
 8001028:	f000 fd78 	bl	8001b1c <HAL_DMA_Init>
 800102c:	b918      	cbnz	r0, 8001036 <vcom_Resume+0x1a>
    Error_Handler();
  }
  /* USER CODE BEGIN vcom_Resume_2 */

  /* USER CODE END vcom_Resume_2 */
}
 800102e:	bd08      	pop	{r3, pc}
    Error_Handler();
 8001030:	f7ff fb06 	bl	8000640 <Error_Handler>
 8001034:	e7f7      	b.n	8001026 <vcom_Resume+0xa>
    Error_Handler();
 8001036:	f7ff fb03 	bl	8000640 <Error_Handler>
}
 800103a:	e7f8      	b.n	800102e <vcom_Resume+0x12>
 800103c:	200001c8 	.word	0x200001c8
 8001040:	20000168 	.word	0x20000168

08001044 <HAL_UART_TxCpltCallback>:

void HAL_UART_TxCpltCallback(UART_HandleTypeDef *huart)
{
 8001044:	b508      	push	{r3, lr}
  /* USER CODE BEGIN HAL_UART_TxCpltCallback_1 */

  /* USER CODE END HAL_UART_TxCpltCallback_1 */
  /* buffer transmission complete*/
  if (huart->Instance == USART2)
 8001046:	6802      	ldr	r2, [r0, #0]
 8001048:	4b04      	ldr	r3, [pc, #16]	; (800105c <HAL_UART_TxCpltCallback+0x18>)
 800104a:	429a      	cmp	r2, r3
 800104c:	d000      	beq.n	8001050 <HAL_UART_TxCpltCallback+0xc>
    TxCpltCallback(NULL);
  }
  /* USER CODE BEGIN HAL_UART_TxCpltCallback_2 */

  /* USER CODE END HAL_UART_TxCpltCallback_2 */
}
 800104e:	bd08      	pop	{r3, pc}
    TxCpltCallback(NULL);
 8001050:	4b03      	ldr	r3, [pc, #12]	; (8001060 <HAL_UART_TxCpltCallback+0x1c>)
 8001052:	681b      	ldr	r3, [r3, #0]
 8001054:	2000      	movs	r0, #0
 8001056:	4798      	blx	r3
}
 8001058:	e7f9      	b.n	800104e <HAL_UART_TxCpltCallback+0xa>
 800105a:	bf00      	nop
 800105c:	40004400 	.word	0x40004400
 8001060:	20000260 	.word	0x20000260

08001064 <HAL_UART_RxCpltCallback>:
void HAL_UART_RxCpltCallback(UART_HandleTypeDef *huart)
{
  /* USER CODE BEGIN HAL_UART_RxCpltCallback_1 */

  /* USER CODE END HAL_UART_RxCpltCallback_1 */
  if (huart->Instance == USART2)
 8001064:	6802      	ldr	r2, [r0, #0]
 8001066:	4b0a      	ldr	r3, [pc, #40]	; (8001090 <HAL_UART_RxCpltCallback+0x2c>)
 8001068:	429a      	cmp	r2, r3
 800106a:	d000      	beq.n	800106e <HAL_UART_RxCpltCallback+0xa>
 800106c:	4770      	bx	lr
{
 800106e:	b510      	push	{r4, lr}
 8001070:	4604      	mov	r4, r0
  {
    if ((NULL != RxCpltCallback) && (HAL_UART_ERROR_NONE == huart->ErrorCode))
 8001072:	4b08      	ldr	r3, [pc, #32]	; (8001094 <HAL_UART_RxCpltCallback+0x30>)
 8001074:	681b      	ldr	r3, [r3, #0]
 8001076:	b12b      	cbz	r3, 8001084 <HAL_UART_RxCpltCallback+0x20>
 8001078:	f8d0 2090 	ldr.w	r2, [r0, #144]	; 0x90
 800107c:	b912      	cbnz	r2, 8001084 <HAL_UART_RxCpltCallback+0x20>
    {
      RxCpltCallback(&charRx, 1, 0);
 800107e:	2101      	movs	r1, #1
 8001080:	4805      	ldr	r0, [pc, #20]	; (8001098 <HAL_UART_RxCpltCallback+0x34>)
 8001082:	4798      	blx	r3
    }
    HAL_UART_Receive_IT(huart, &charRx, 1);
 8001084:	2201      	movs	r2, #1
 8001086:	4904      	ldr	r1, [pc, #16]	; (8001098 <HAL_UART_RxCpltCallback+0x34>)
 8001088:	4620      	mov	r0, r4
 800108a:	f003 fea3 	bl	8004dd4 <HAL_UART_Receive_IT>
  }
  /* USER CODE BEGIN HAL_UART_RxCpltCallback_2 */

  /* USER CODE END HAL_UART_RxCpltCallback_2 */
}
 800108e:	bd10      	pop	{r4, pc}
 8001090:	40004400 	.word	0x40004400
 8001094:	2000025c 	.word	0x2000025c
 8001098:	20000264 	.word	0x20000264

0800109c <Reset_Handler>:

  .section .text.Reset_Handler
  .weak Reset_Handler
  .type Reset_Handler, %function
Reset_Handler:
  ldr   r0, =_estack
 800109c:	480d      	ldr	r0, [pc, #52]	; (80010d4 <LoopForever+0x2>)
  mov   sp, r0          /* set stack pointer */
 800109e:	4685      	mov	sp, r0

/* Call the clock system initialization function.*/
  bl  SystemInit
 80010a0:	f000 fc25 	bl	80018ee <SystemInit>

/* Copy the data segment initializers from flash to SRAM */
  ldr r0, =_sdata
 80010a4:	480c      	ldr	r0, [pc, #48]	; (80010d8 <LoopForever+0x6>)
  ldr r1, =_edata
 80010a6:	490d      	ldr	r1, [pc, #52]	; (80010dc <LoopForever+0xa>)
  ldr r2, =_sidata
 80010a8:	4a0d      	ldr	r2, [pc, #52]	; (80010e0 <LoopForever+0xe>)
  movs r3, #0
 80010aa:	2300      	movs	r3, #0
  b LoopCopyDataInit
 80010ac:	e002      	b.n	80010b4 <LoopCopyDataInit>

080010ae <CopyDataInit>:

CopyDataInit:
  ldr r4, [r2, r3]
 80010ae:	58d4      	ldr	r4, [r2, r3]
  str r4, [r0, r3]
 80010b0:	50c4      	str	r4, [r0, r3]
  adds r3, r3, #4
 80010b2:	3304      	adds	r3, #4

080010b4 <LoopCopyDataInit>:

LoopCopyDataInit:
  adds r4, r0, r3
 80010b4:	18c4      	adds	r4, r0, r3
  cmp r4, r1
 80010b6:	428c      	cmp	r4, r1
  bcc CopyDataInit
 80010b8:	d3f9      	bcc.n	80010ae <CopyDataInit>

/* Zero fill the bss segment. */
  ldr r2, =_sbss
 80010ba:	4a0a      	ldr	r2, [pc, #40]	; (80010e4 <LoopForever+0x12>)
  ldr r4, =_ebss
 80010bc:	4c0a      	ldr	r4, [pc, #40]	; (80010e8 <LoopForever+0x16>)
  movs r3, #0
 80010be:	2300      	movs	r3, #0
  b LoopFillZerobss
 80010c0:	e001      	b.n	80010c6 <LoopFillZerobss>

080010c2 <FillZerobss>:

FillZerobss:
  str  r3, [r2]
 80010c2:	6013      	str	r3, [r2, #0]
  adds r2, r2, #4
 80010c4:	3204      	adds	r2, #4

080010c6 <LoopFillZerobss>:

LoopFillZerobss:
  cmp r2, r4
 80010c6:	42a2      	cmp	r2, r4
  bcc FillZerobss
 80010c8:	d3fb      	bcc.n	80010c2 <FillZerobss>

/* Call static constructors */
  bl __libc_init_array
 80010ca:	f007 f923 	bl	8008314 <__libc_init_array>
/* Call the application's entry point.*/
  bl main
 80010ce:	f7ff fb00 	bl	80006d2 <main>

080010d2 <LoopForever>:

LoopForever:
    b LoopForever
 80010d2:	e7fe      	b.n	80010d2 <LoopForever>
  ldr   r0, =_estack
 80010d4:	20008000 	.word	0x20008000
  ldr r0, =_sdata
 80010d8:	20000000 	.word	0x20000000
  ldr r1, =_edata
 80010dc:	20000098 	.word	0x20000098
  ldr r2, =_sidata
 80010e0:	08009998 	.word	0x08009998
  ldr r2, =_sbss
 80010e4:	20000098 	.word	0x20000098
  ldr r4, =_ebss
 80010e8:	20000b00 	.word	0x20000b00

080010ec <ADC_IRQHandler>:
 * @retval : None
*/
  .section .text.Default_Handler,"ax",%progbits
Default_Handler:
Infinite_Loop:
  b Infinite_Loop
 80010ec:	e7fe      	b.n	80010ec <ADC_IRQHandler>

080010ee <MX_SubGHz_Phy_Init>:
/* USER CODE END PFP */

/* Exported functions --------------------------------------------------------*/

void MX_SubGHz_Phy_Init(void)
{
 80010ee:	b508      	push	{r3, lr}
  /* USER CODE BEGIN MX_SubGHz_Phy_Init_1 */

  /* USER CODE END MX_SubGHz_Phy_Init_1 */
  SystemApp_Init();
 80010f0:	f7ff fc20 	bl	8000934 <SystemApp_Init>
  /* USER CODE BEGIN MX_SubGHz_Phy_Init_1_1 */

  /* USER CODE END MX_SubGHz_Phy_Init_1_1 */
  SubghzApp_Init();
 80010f4:	f000 fa5a 	bl	80015ac <SubghzApp_Init>
  /* USER CODE BEGIN MX_SubGHz_Phy_Init_2 */

  /* USER CODE END MX_SubGHz_Phy_Init_2 */
}
 80010f8:	bd08      	pop	{r3, pc}

080010fa <MX_SubGHz_Phy_Process>:

void MX_SubGHz_Phy_Process(void)
{
 80010fa:	b508      	push	{r3, lr}
  /* USER CODE BEGIN MX_SubGHz_Phy_Process_1 */

  /* USER CODE END MX_SubGHz_Phy_Process_1 */
  UTIL_SEQ_Run(UTIL_SEQ_DEFAULT);
 80010fc:	f04f 30ff 	mov.w	r0, #4294967295
 8001100:	f006 fb7c 	bl	80077fc <UTIL_SEQ_Run>
  /* USER CODE BEGIN MX_SubGHz_Phy_Process_2 */

  /* USER CODE END MX_SubGHz_Phy_Process_2 */
}
 8001104:	bd08      	pop	{r3, pc}
	...

08001108 <PingPong_Process>:
  /* USER CODE END OnRxError */
}

/* USER CODE BEGIN PrFD */
static void PingPong_Process(void)
{
 8001108:	b570      	push	{r4, r5, r6, lr}
 800110a:	b082      	sub	sp, #8
  Radio.Sleep();
 800110c:	4ba0      	ldr	r3, [pc, #640]	; (8001390 <PingPong_Process+0x288>)
 800110e:	6adb      	ldr	r3, [r3, #44]	; 0x2c
 8001110:	4798      	blx	r3

  switch (State)
 8001112:	4ba0      	ldr	r3, [pc, #640]	; (8001394 <PingPong_Process+0x28c>)
 8001114:	781b      	ldrb	r3, [r3, #0]
 8001116:	2b04      	cmp	r3, #4
 8001118:	f200 8107 	bhi.w	800132a <PingPong_Process+0x222>
 800111c:	e8df f013 	tbh	[pc, r3, lsl #1]
 8001120:	01070005 	.word	0x01070005
 8001124:	00fa0107 	.word	0x00fa0107
 8001128:	012c      	.short	0x012c
  {
    case RX:
    	if(isMaster){
 800112a:	4b9b      	ldr	r3, [pc, #620]	; (8001398 <PingPong_Process+0x290>)
 800112c:	781b      	ldrb	r3, [r3, #0]
 800112e:	2b00      	cmp	r3, #0
 8001130:	d059      	beq.n	80011e6 <PingPong_Process+0xde>

    		if (RxBufferSize > 0)
 8001132:	4b9a      	ldr	r3, [pc, #616]	; (800139c <PingPong_Process+0x294>)
 8001134:	881b      	ldrh	r3, [r3, #0]
 8001136:	2b00      	cmp	r3, #0
 8001138:	f000 80f7 	beq.w	800132a <PingPong_Process+0x222>
    		{
				if (inicio == 1) //Primera vez que se ejecuta el cdigo
 800113c:	4b98      	ldr	r3, [pc, #608]	; (80013a0 <PingPong_Process+0x298>)
 800113e:	781b      	ldrb	r3, [r3, #0]
 8001140:	2b01      	cmp	r3, #1
 8001142:	d022      	beq.n	800118a <PingPong_Process+0x82>
							/* Set device as master and start again */
							isMaster = true;
							Radio.Rx(RX_TIMEOUT_VALUE);
						}
					}
    		if (inicio == 0)
 8001144:	4b96      	ldr	r3, [pc, #600]	; (80013a0 <PingPong_Process+0x298>)
 8001146:	781b      	ldrb	r3, [r3, #0]
 8001148:	2b00      	cmp	r3, #0
 800114a:	f040 80ee 	bne.w	800132a <PingPong_Process+0x222>
    		{
				UTIL_TIMER_Stop(&timerLed);
 800114e:	4895      	ldr	r0, [pc, #596]	; (80013a4 <PingPong_Process+0x29c>)
 8001150:	f006 fca6 	bl	8007aa0 <UTIL_TIMER_Stop>
				/* switch off green led */
				BSP_LED_Off(LED_GREEN);
 8001154:	2001      	movs	r0, #1
 8001156:	f000 fb0f 	bl	8001778 <BSP_LED_Off>
				/* master toggles red led */
				BSP_LED_Toggle(LED_RED);
 800115a:	2002      	movs	r0, #2
 800115c:	f000 fb1c 	bl	8001798 <BSP_LED_Toggle>
				/* Add delay between RX and TX */
				HAL_Delay(Radio.GetWakeupTime() + RX_TIME_MARGIN);
 8001160:	4c8b      	ldr	r4, [pc, #556]	; (8001390 <PingPong_Process+0x288>)
 8001162:	6de3      	ldr	r3, [r4, #92]	; 0x5c
 8001164:	4798      	blx	r3
 8001166:	30c8      	adds	r0, #200	; 0xc8
 8001168:	f7ff fc24 	bl	80009b4 <HAL_Delay>
				APP_LOG(TS_ON, VLEVEL_L,"pulso: %s\n\r",(const char *)BufferRx);
 800116c:	4b8e      	ldr	r3, [pc, #568]	; (80013a8 <PingPong_Process+0x2a0>)
 800116e:	9300      	str	r3, [sp, #0]
 8001170:	4b8e      	ldr	r3, [pc, #568]	; (80013ac <PingPong_Process+0x2a4>)
 8001172:	2201      	movs	r2, #1
 8001174:	2100      	movs	r1, #0
 8001176:	4610      	mov	r0, r2
 8001178:	f006 f9e2 	bl	8007540 <UTIL_ADV_TRACE_COND_FSend>
				memcpy(BufferTx, PING, sizeof(PING) - 1);
 800117c:	488c      	ldr	r0, [pc, #560]	; (80013b0 <PingPong_Process+0x2a8>)
 800117e:	4b8d      	ldr	r3, [pc, #564]	; (80013b4 <PingPong_Process+0x2ac>)
 8001180:	6003      	str	r3, [r0, #0]
				Radio.Send(BufferTx, PAYLOAD_LEN);
 8001182:	6aa3      	ldr	r3, [r4, #40]	; 0x28
 8001184:	2140      	movs	r1, #64	; 0x40
 8001186:	4798      	blx	r3
 8001188:	e0cf      	b.n	800132a <PingPong_Process+0x222>
					if (strncmp((const char *)BufferRx, PONG, sizeof(PONG) - 1) == 0)
 800118a:	2204      	movs	r2, #4
 800118c:	498a      	ldr	r1, [pc, #552]	; (80013b8 <PingPong_Process+0x2b0>)
 800118e:	4886      	ldr	r0, [pc, #536]	; (80013a8 <PingPong_Process+0x2a0>)
 8001190:	f007 f862 	bl	8008258 <strncmp>
 8001194:	b140      	cbz	r0, 80011a8 <PingPong_Process+0xa0>
							isMaster = true;
 8001196:	4b80      	ldr	r3, [pc, #512]	; (8001398 <PingPong_Process+0x290>)
 8001198:	2201      	movs	r2, #1
 800119a:	701a      	strb	r2, [r3, #0]
							Radio.Rx(RX_TIMEOUT_VALUE);
 800119c:	4b7c      	ldr	r3, [pc, #496]	; (8001390 <PingPong_Process+0x288>)
 800119e:	6b5b      	ldr	r3, [r3, #52]	; 0x34
 80011a0:	f640 30b8 	movw	r0, #3000	; 0xbb8
 80011a4:	4798      	blx	r3
 80011a6:	e7cd      	b.n	8001144 <PingPong_Process+0x3c>
						inicio = 0;
 80011a8:	2500      	movs	r5, #0
 80011aa:	4b7d      	ldr	r3, [pc, #500]	; (80013a0 <PingPong_Process+0x298>)
 80011ac:	701d      	strb	r5, [r3, #0]
						UTIL_TIMER_Stop(&timerLed);
 80011ae:	487d      	ldr	r0, [pc, #500]	; (80013a4 <PingPong_Process+0x29c>)
 80011b0:	f006 fc76 	bl	8007aa0 <UTIL_TIMER_Stop>
						BSP_LED_Off(LED_GREEN);
 80011b4:	2001      	movs	r0, #1
 80011b6:	f000 fadf 	bl	8001778 <BSP_LED_Off>
						BSP_LED_Toggle(LED_RED);
 80011ba:	2002      	movs	r0, #2
 80011bc:	f000 faec 	bl	8001798 <BSP_LED_Toggle>
						HAL_Delay(Radio.GetWakeupTime() + RX_TIME_MARGIN);
 80011c0:	4c73      	ldr	r4, [pc, #460]	; (8001390 <PingPong_Process+0x288>)
 80011c2:	6de3      	ldr	r3, [r4, #92]	; 0x5c
 80011c4:	4798      	blx	r3
 80011c6:	30c8      	adds	r0, #200	; 0xc8
 80011c8:	f7ff fbf4 	bl	80009b4 <HAL_Delay>
						APP_LOG(TS_ON, VLEVEL_L, "Soy el RECEPTOR\n\r");
 80011cc:	4b7b      	ldr	r3, [pc, #492]	; (80013bc <PingPong_Process+0x2b4>)
 80011ce:	2201      	movs	r2, #1
 80011d0:	4629      	mov	r1, r5
 80011d2:	4610      	mov	r0, r2
 80011d4:	f006 f9b4 	bl	8007540 <UTIL_ADV_TRACE_COND_FSend>
						memcpy(BufferTx, PING, sizeof(PING) - 1);
 80011d8:	4875      	ldr	r0, [pc, #468]	; (80013b0 <PingPong_Process+0x2a8>)
 80011da:	4b76      	ldr	r3, [pc, #472]	; (80013b4 <PingPong_Process+0x2ac>)
 80011dc:	6003      	str	r3, [r0, #0]
						Radio.Send(BufferTx, PAYLOAD_LEN);
 80011de:	6aa3      	ldr	r3, [r4, #40]	; 0x28
 80011e0:	2140      	movs	r1, #64	; 0x40
 80011e2:	4798      	blx	r3
 80011e4:	e7ae      	b.n	8001144 <PingPong_Process+0x3c>
    		}
    	}

   	} else{
      if (RxBufferSize > 0){
 80011e6:	4b6d      	ldr	r3, [pc, #436]	; (800139c <PingPong_Process+0x294>)
 80011e8:	881b      	ldrh	r3, [r3, #0]
 80011ea:	2b00      	cmp	r3, #0
 80011ec:	f000 809d 	beq.w	800132a <PingPong_Process+0x222>
                if (inicio == 1) //Si es la primera ejecucin del cdigo
 80011f0:	4b6b      	ldr	r3, [pc, #428]	; (80013a0 <PingPong_Process+0x298>)
 80011f2:	781b      	ldrb	r3, [r3, #0]
 80011f4:	2b01      	cmp	r3, #1
 80011f6:	d011      	beq.n	800121c <PingPong_Process+0x114>
					/* Set device as master and start again */
					//isMaster = true;
						Radio.Rx(RX_TIMEOUT_VALUE);
					}
                }
                if (inicio == 0){
 80011f8:	4b69      	ldr	r3, [pc, #420]	; (80013a0 <PingPong_Process+0x298>)
 80011fa:	781b      	ldrb	r3, [r3, #0]
 80011fc:	2b00      	cmp	r3, #0
 80011fe:	f040 8094 	bne.w	800132a <PingPong_Process+0x222>
					if (strncmp((const char *)BufferRx, PING, sizeof(PING) - 1) ==0)//Si somos el transmisor
 8001202:	2204      	movs	r2, #4
 8001204:	496e      	ldr	r1, [pc, #440]	; (80013c0 <PingPong_Process+0x2b8>)
 8001206:	4868      	ldr	r0, [pc, #416]	; (80013a8 <PingPong_Process+0x2a0>)
 8001208:	f007 f826 	bl	8008258 <strncmp>
 800120c:	2800      	cmp	r0, #0
 800120e:	d030      	beq.n	8001272 <PingPong_Process+0x16a>
							APP_LOG(TS_ON, VLEVEL_L,"pulso enviado""\n\r");
							APP_LOG(TS_ON, VLEVEL_L,"buffer: %s""\n\r", (const char *)BufferTx);
						}
                else /* valid reception but not a PING as expected */
					{
						Radio.Rx(RX_TIMEOUT_VALUE);
 8001210:	4b5f      	ldr	r3, [pc, #380]	; (8001390 <PingPong_Process+0x288>)
 8001212:	6b5b      	ldr	r3, [r3, #52]	; 0x34
 8001214:	f640 30b8 	movw	r0, #3000	; 0xbb8
 8001218:	4798      	blx	r3
 800121a:	e086      	b.n	800132a <PingPong_Process+0x222>
					if (strncmp((const char *)BufferRx, PING, sizeof(PING) - 1) == 0)
 800121c:	2204      	movs	r2, #4
 800121e:	4968      	ldr	r1, [pc, #416]	; (80013c0 <PingPong_Process+0x2b8>)
 8001220:	4861      	ldr	r0, [pc, #388]	; (80013a8 <PingPong_Process+0x2a0>)
 8001222:	f007 f819 	bl	8008258 <strncmp>
 8001226:	b128      	cbz	r0, 8001234 <PingPong_Process+0x12c>
						Radio.Rx(RX_TIMEOUT_VALUE);
 8001228:	4b59      	ldr	r3, [pc, #356]	; (8001390 <PingPong_Process+0x288>)
 800122a:	6b5b      	ldr	r3, [r3, #52]	; 0x34
 800122c:	f640 30b8 	movw	r0, #3000	; 0xbb8
 8001230:	4798      	blx	r3
 8001232:	e7e1      	b.n	80011f8 <PingPong_Process+0xf0>
						inicio = 0;
 8001234:	2500      	movs	r5, #0
 8001236:	4b5a      	ldr	r3, [pc, #360]	; (80013a0 <PingPong_Process+0x298>)
 8001238:	701d      	strb	r5, [r3, #0]
						UTIL_TIMER_Stop(&timerLed);						/* switch off red led */
 800123a:	485a      	ldr	r0, [pc, #360]	; (80013a4 <PingPong_Process+0x29c>)
 800123c:	f006 fc30 	bl	8007aa0 <UTIL_TIMER_Stop>
						BSP_LED_Off(LED_RED);						/* slave toggles green led */
 8001240:	2002      	movs	r0, #2
 8001242:	f000 fa99 	bl	8001778 <BSP_LED_Off>
						BSP_LED_Toggle(LED_GREEN);						/* Add delay between RX and TX */
 8001246:	2001      	movs	r0, #1
 8001248:	f000 faa6 	bl	8001798 <BSP_LED_Toggle>
						HAL_Delay(Radio.GetWakeupTime() + RX_TIME_MARGIN);		/*Mensaje inicial para indicar que somos el transmisor */
 800124c:	4c50      	ldr	r4, [pc, #320]	; (8001390 <PingPong_Process+0x288>)
 800124e:	6de3      	ldr	r3, [r4, #92]	; 0x5c
 8001250:	4798      	blx	r3
 8001252:	30c8      	adds	r0, #200	; 0xc8
 8001254:	f7ff fbae 	bl	80009b4 <HAL_Delay>
						APP_LOG(TS_ON, VLEVEL_L, "Soy el TRANSMISOR\n\r");
 8001258:	4b5a      	ldr	r3, [pc, #360]	; (80013c4 <PingPong_Process+0x2bc>)
 800125a:	2201      	movs	r2, #1
 800125c:	4629      	mov	r1, r5
 800125e:	4610      	mov	r0, r2
 8001260:	f006 f96e 	bl	8007540 <UTIL_ADV_TRACE_COND_FSend>
						memcpy(BufferTx, PONG, sizeof(PONG) - 1); //Aqu mandamos elmensaje PONG
 8001264:	4852      	ldr	r0, [pc, #328]	; (80013b0 <PingPong_Process+0x2a8>)
 8001266:	4b58      	ldr	r3, [pc, #352]	; (80013c8 <PingPong_Process+0x2c0>)
 8001268:	6003      	str	r3, [r0, #0]
						Radio.Send(BufferTx, PAYLOAD_LEN);
 800126a:	6aa3      	ldr	r3, [r4, #40]	; 0x28
 800126c:	2140      	movs	r1, #64	; 0x40
 800126e:	4798      	blx	r3
 8001270:	e7c2      	b.n	80011f8 <PingPong_Process+0xf0>
							UTIL_TIMER_Stop(&timerLed);
 8001272:	484c      	ldr	r0, [pc, #304]	; (80013a4 <PingPong_Process+0x29c>)
 8001274:	f006 fc14 	bl	8007aa0 <UTIL_TIMER_Stop>
							BSP_LED_Off(LED_RED);
 8001278:	2002      	movs	r0, #2
 800127a:	f000 fa7d 	bl	8001778 <BSP_LED_Off>
							BSP_LED_Toggle(LED_GREEN);
 800127e:	2001      	movs	r0, #1
 8001280:	f000 fa8a 	bl	8001798 <BSP_LED_Toggle>
							HAL_Delay(Radio.GetWakeupTime() + RX_TIME_MARGIN);
 8001284:	4d42      	ldr	r5, [pc, #264]	; (8001390 <PingPong_Process+0x288>)
 8001286:	6deb      	ldr	r3, [r5, #92]	; 0x5c
 8001288:	4798      	blx	r3
 800128a:	30c8      	adds	r0, #200	; 0xc8
 800128c:	f7ff fb92 	bl	80009b4 <HAL_Delay>
							valor =  rand() % (220 - 20 + 1) + 20;
 8001290:	f006 fe68 	bl	8007f64 <rand>
 8001294:	4a4d      	ldr	r2, [pc, #308]	; (80013cc <PingPong_Process+0x2c4>)
 8001296:	fb82 3200 	smull	r3, r2, r2, r0
 800129a:	17c3      	asrs	r3, r0, #31
 800129c:	ebc3 0362 	rsb	r3, r3, r2, asr #1
 80012a0:	22c9      	movs	r2, #201	; 0xc9
 80012a2:	fb02 0313 	mls	r3, r2, r3, r0
 80012a6:	f103 0214 	add.w	r2, r3, #20
 80012aa:	4b49      	ldr	r3, [pc, #292]	; (80013d0 <PingPong_Process+0x2c8>)
 80012ac:	601a      	str	r2, [r3, #0]
							sprintf(pulso, "%d", valor);
 80012ae:	4c49      	ldr	r4, [pc, #292]	; (80013d4 <PingPong_Process+0x2cc>)
 80012b0:	4949      	ldr	r1, [pc, #292]	; (80013d8 <PingPong_Process+0x2d0>)
 80012b2:	4620      	mov	r0, r4
 80012b4:	f006 ff56 	bl	8008164 <siprintf>
							APP_LOG(TS_ON, VLEVEL_L,"pulso %s""\n\r",&pulso);
 80012b8:	9400      	str	r4, [sp, #0]
 80012ba:	4b48      	ldr	r3, [pc, #288]	; (80013dc <PingPong_Process+0x2d4>)
 80012bc:	2201      	movs	r2, #1
 80012be:	2100      	movs	r1, #0
 80012c0:	4610      	mov	r0, r2
 80012c2:	f006 f93d 	bl	8007540 <UTIL_ADV_TRACE_COND_FSend>
							strcat(pulso, coordenadas);
 80012c6:	4946      	ldr	r1, [pc, #280]	; (80013e0 <PingPong_Process+0x2d8>)
 80012c8:	4620      	mov	r0, r4
 80012ca:	f006 ffb6 	bl	800823a <strcat>
							memcpy(BufferTx, pulso, sizeof(pulso) - 1);
 80012ce:	4e38      	ldr	r6, [pc, #224]	; (80013b0 <PingPong_Process+0x2a8>)
 80012d0:	46b4      	mov	ip, r6
 80012d2:	cc0f      	ldmia	r4!, {r0, r1, r2, r3}
 80012d4:	e8ac 000f 	stmia.w	ip!, {r0, r1, r2, r3}
 80012d8:	cc0f      	ldmia	r4!, {r0, r1, r2, r3}
 80012da:	e8ac 000f 	stmia.w	ip!, {r0, r1, r2, r3}
 80012de:	e894 0003 	ldmia.w	r4, {r0, r1}
 80012e2:	f84c 0b04 	str.w	r0, [ip], #4
 80012e6:	f82c 1b02 	strh.w	r1, [ip], #2
 80012ea:	0c09      	lsrs	r1, r1, #16
 80012ec:	f88c 1000 	strb.w	r1, [ip]
							Radio.Send(BufferTx, PAYLOAD_LEN);
 80012f0:	6aab      	ldr	r3, [r5, #40]	; 0x28
 80012f2:	2140      	movs	r1, #64	; 0x40
 80012f4:	4630      	mov	r0, r6
 80012f6:	4798      	blx	r3
							APP_LOG(TS_ON, VLEVEL_L,"pulso enviado""\n\r");
 80012f8:	4b3a      	ldr	r3, [pc, #232]	; (80013e4 <PingPong_Process+0x2dc>)
 80012fa:	2201      	movs	r2, #1
 80012fc:	2100      	movs	r1, #0
 80012fe:	4610      	mov	r0, r2
 8001300:	f006 f91e 	bl	8007540 <UTIL_ADV_TRACE_COND_FSend>
							APP_LOG(TS_ON, VLEVEL_L,"buffer: %s""\n\r", (const char *)BufferTx);
 8001304:	9600      	str	r6, [sp, #0]
 8001306:	4b38      	ldr	r3, [pc, #224]	; (80013e8 <PingPong_Process+0x2e0>)
 8001308:	2201      	movs	r2, #1
 800130a:	2100      	movs	r1, #0
 800130c:	4610      	mov	r0, r2
 800130e:	f006 f917 	bl	8007540 <UTIL_ADV_TRACE_COND_FSend>
 8001312:	e00a      	b.n	800132a <PingPong_Process+0x222>
					}
				}
			}
    break;
    case TX:
      APP_LOG(TS_ON, VLEVEL_L, "Rx start\n\r");
 8001314:	4b35      	ldr	r3, [pc, #212]	; (80013ec <PingPong_Process+0x2e4>)
 8001316:	2201      	movs	r2, #1
 8001318:	2100      	movs	r1, #0
 800131a:	4610      	mov	r0, r2
 800131c:	f006 f910 	bl	8007540 <UTIL_ADV_TRACE_COND_FSend>
      Radio.Rx(RX_TIMEOUT_VALUE);
 8001320:	4b1b      	ldr	r3, [pc, #108]	; (8001390 <PingPong_Process+0x288>)
 8001322:	6b5b      	ldr	r3, [r3, #52]	; 0x34
 8001324:	f640 30b8 	movw	r0, #3000	; 0xbb8
 8001328:	4798      	blx	r3
      break;
    default:
      break;
  }
}
}
 800132a:	b002      	add	sp, #8
 800132c:	bd70      	pop	{r4, r5, r6, pc}
      if (isMaster == true)
 800132e:	4b1a      	ldr	r3, [pc, #104]	; (8001398 <PingPong_Process+0x290>)
 8001330:	781b      	ldrb	r3, [r3, #0]
 8001332:	b1ab      	cbz	r3, 8001360 <PingPong_Process+0x258>
        HAL_Delay(Radio.GetWakeupTime() + RX_TIME_MARGIN + random_delay);
 8001334:	4c16      	ldr	r4, [pc, #88]	; (8001390 <PingPong_Process+0x288>)
 8001336:	6de3      	ldr	r3, [r4, #92]	; 0x5c
 8001338:	4798      	blx	r3
 800133a:	4b2d      	ldr	r3, [pc, #180]	; (80013f0 <PingPong_Process+0x2e8>)
 800133c:	681b      	ldr	r3, [r3, #0]
 800133e:	4418      	add	r0, r3
 8001340:	30c8      	adds	r0, #200	; 0xc8
 8001342:	f7ff fb37 	bl	80009b4 <HAL_Delay>
        APP_LOG(TS_ON, VLEVEL_L, "Master Tx start\n\r");
 8001346:	4b2b      	ldr	r3, [pc, #172]	; (80013f4 <PingPong_Process+0x2ec>)
 8001348:	2201      	movs	r2, #1
 800134a:	2100      	movs	r1, #0
 800134c:	4610      	mov	r0, r2
 800134e:	f006 f8f7 	bl	8007540 <UTIL_ADV_TRACE_COND_FSend>
        memcpy(BufferTx, PING, sizeof(PING) - 1);
 8001352:	4817      	ldr	r0, [pc, #92]	; (80013b0 <PingPong_Process+0x2a8>)
 8001354:	4b17      	ldr	r3, [pc, #92]	; (80013b4 <PingPong_Process+0x2ac>)
 8001356:	6003      	str	r3, [r0, #0]
        Radio.Send(BufferTx, PAYLOAD_LEN);
 8001358:	6aa3      	ldr	r3, [r4, #40]	; 0x28
 800135a:	2140      	movs	r1, #64	; 0x40
 800135c:	4798      	blx	r3
 800135e:	e7e4      	b.n	800132a <PingPong_Process+0x222>
        APP_LOG(TS_ON, VLEVEL_L, "Slave Rx start\n\r");
 8001360:	4b25      	ldr	r3, [pc, #148]	; (80013f8 <PingPong_Process+0x2f0>)
 8001362:	2201      	movs	r2, #1
 8001364:	2100      	movs	r1, #0
 8001366:	4610      	mov	r0, r2
 8001368:	f006 f8ea 	bl	8007540 <UTIL_ADV_TRACE_COND_FSend>
        Radio.Rx(RX_TIMEOUT_VALUE);
 800136c:	4b08      	ldr	r3, [pc, #32]	; (8001390 <PingPong_Process+0x288>)
 800136e:	6b5b      	ldr	r3, [r3, #52]	; 0x34
 8001370:	f640 30b8 	movw	r0, #3000	; 0xbb8
 8001374:	4798      	blx	r3
 8001376:	e7d8      	b.n	800132a <PingPong_Process+0x222>
      APP_LOG(TS_ON, VLEVEL_L, "Slave Rx start\n\r");
 8001378:	4b1f      	ldr	r3, [pc, #124]	; (80013f8 <PingPong_Process+0x2f0>)
 800137a:	2201      	movs	r2, #1
 800137c:	2100      	movs	r1, #0
 800137e:	4610      	mov	r0, r2
 8001380:	f006 f8de 	bl	8007540 <UTIL_ADV_TRACE_COND_FSend>
      Radio.Rx(RX_TIMEOUT_VALUE);
 8001384:	4b02      	ldr	r3, [pc, #8]	; (8001390 <PingPong_Process+0x288>)
 8001386:	6b5b      	ldr	r3, [r3, #52]	; 0x34
 8001388:	f640 30b8 	movw	r0, #3000	; 0xbb8
 800138c:	4798      	blx	r3
}
 800138e:	e7cc      	b.n	800132a <PingPong_Process+0x222>
 8001390:	080096fc 	.word	0x080096fc
 8001394:	20000489 	.word	0x20000489
 8001398:	2000048a 	.word	0x2000048a
 800139c:	20000486 	.word	0x20000486
 80013a0:	20000023 	.word	0x20000023
 80013a4:	200004b8 	.word	0x200004b8
 80013a8:	20000268 	.word	0x20000268
 80013ac:	080093f8 	.word	0x080093f8
 80013b0:	20000368 	.word	0x20000368
 80013b4:	474e4950 	.word	0x474e4950
 80013b8:	080093dc 	.word	0x080093dc
 80013bc:	080093e4 	.word	0x080093e4
 80013c0:	08009404 	.word	0x08009404
 80013c4:	0800940c 	.word	0x0800940c
 80013c8:	474e4f50 	.word	0x474e4f50
 80013cc:	028c1979 	.word	0x028c1979
 80013d0:	200004d0 	.word	0x200004d0
 80013d4:	2000048c 	.word	0x2000048c
 80013d8:	08009420 	.word	0x08009420
 80013dc:	08009424 	.word	0x08009424
 80013e0:	20000000 	.word	0x20000000
 80013e4:	08009430 	.word	0x08009430
 80013e8:	08009440 	.word	0x08009440
 80013ec:	08009450 	.word	0x08009450
 80013f0:	200004b4 	.word	0x200004b4
 80013f4:	0800945c 	.word	0x0800945c
 80013f8:	08009470 	.word	0x08009470

080013fc <OnRxError>:
{
 80013fc:	b508      	push	{r3, lr}
  APP_LOG(TS_ON, VLEVEL_L, "OnRxError\n\r");
 80013fe:	4b07      	ldr	r3, [pc, #28]	; (800141c <OnRxError+0x20>)
 8001400:	2201      	movs	r2, #1
 8001402:	2100      	movs	r1, #0
 8001404:	4610      	mov	r0, r2
 8001406:	f006 f89b 	bl	8007540 <UTIL_ADV_TRACE_COND_FSend>
  State = RX_ERROR;
 800140a:	4b05      	ldr	r3, [pc, #20]	; (8001420 <OnRxError+0x24>)
 800140c:	2202      	movs	r2, #2
 800140e:	701a      	strb	r2, [r3, #0]
  UTIL_SEQ_SetTask((1 << CFG_SEQ_Task_SubGHz_Phy_App_Process), CFG_SEQ_Prio_0);
 8001410:	2100      	movs	r1, #0
 8001412:	2001      	movs	r0, #1
 8001414:	f006 f9be 	bl	8007794 <UTIL_SEQ_SetTask>
}
 8001418:	bd08      	pop	{r3, pc}
 800141a:	bf00      	nop
 800141c:	08009484 	.word	0x08009484
 8001420:	20000489 	.word	0x20000489

08001424 <OnRxTimeout>:
{
 8001424:	b508      	push	{r3, lr}
  APP_LOG(TS_ON, VLEVEL_L, "OnRxTimeout\n\r");
 8001426:	4b06      	ldr	r3, [pc, #24]	; (8001440 <OnRxTimeout+0x1c>)
 8001428:	2201      	movs	r2, #1
 800142a:	2100      	movs	r1, #0
 800142c:	4610      	mov	r0, r2
 800142e:	f006 f887 	bl	8007540 <UTIL_ADV_TRACE_COND_FSend>
  State = RX_TIMEOUT;
 8001432:	2001      	movs	r0, #1
 8001434:	4b03      	ldr	r3, [pc, #12]	; (8001444 <OnRxTimeout+0x20>)
 8001436:	7018      	strb	r0, [r3, #0]
  UTIL_SEQ_SetTask((1 << CFG_SEQ_Task_SubGHz_Phy_App_Process), CFG_SEQ_Prio_0);
 8001438:	2100      	movs	r1, #0
 800143a:	f006 f9ab 	bl	8007794 <UTIL_SEQ_SetTask>
}
 800143e:	bd08      	pop	{r3, pc}
 8001440:	08009490 	.word	0x08009490
 8001444:	20000489 	.word	0x20000489

08001448 <OnTxTimeout>:
{
 8001448:	b508      	push	{r3, lr}
  APP_LOG(TS_ON, VLEVEL_L, "OnTxTimeout\n\r");
 800144a:	4b07      	ldr	r3, [pc, #28]	; (8001468 <OnTxTimeout+0x20>)
 800144c:	2201      	movs	r2, #1
 800144e:	2100      	movs	r1, #0
 8001450:	4610      	mov	r0, r2
 8001452:	f006 f875 	bl	8007540 <UTIL_ADV_TRACE_COND_FSend>
  State = TX_TIMEOUT;
 8001456:	4b05      	ldr	r3, [pc, #20]	; (800146c <OnTxTimeout+0x24>)
 8001458:	2204      	movs	r2, #4
 800145a:	701a      	strb	r2, [r3, #0]
  UTIL_SEQ_SetTask((1 << CFG_SEQ_Task_SubGHz_Phy_App_Process), CFG_SEQ_Prio_0);
 800145c:	2100      	movs	r1, #0
 800145e:	2001      	movs	r0, #1
 8001460:	f006 f998 	bl	8007794 <UTIL_SEQ_SetTask>
}
 8001464:	bd08      	pop	{r3, pc}
 8001466:	bf00      	nop
 8001468:	080094a0 	.word	0x080094a0
 800146c:	20000489 	.word	0x20000489

08001470 <OnRxDone>:
{
 8001470:	b5f0      	push	{r4, r5, r6, r7, lr}
 8001472:	b083      	sub	sp, #12
 8001474:	4607      	mov	r7, r0
 8001476:	460c      	mov	r4, r1
 8001478:	4615      	mov	r5, r2
 800147a:	461e      	mov	r6, r3
  APP_LOG(TS_ON, VLEVEL_L, "OnRxDone\n\r");
 800147c:	4b2c      	ldr	r3, [pc, #176]	; (8001530 <OnRxDone+0xc0>)
 800147e:	2201      	movs	r2, #1
 8001480:	2100      	movs	r1, #0
 8001482:	4610      	mov	r0, r2
 8001484:	f006 f85c 	bl	8007540 <UTIL_ADV_TRACE_COND_FSend>
  APP_LOG(TS_ON, VLEVEL_L, "RssiValue=%d;\n\r", rssi);
 8001488:	9500      	str	r5, [sp, #0]
 800148a:	4b2a      	ldr	r3, [pc, #168]	; (8001534 <OnRxDone+0xc4>)
 800148c:	2201      	movs	r2, #1
 800148e:	2100      	movs	r1, #0
 8001490:	4610      	mov	r0, r2
 8001492:	f006 f855 	bl	8007540 <UTIL_ADV_TRACE_COND_FSend>
  APP_LOG(TS_ON, VLEVEL_L,  "Cfo=%d;\n\r", LoraSnr_FskCfo);
 8001496:	9600      	str	r6, [sp, #0]
 8001498:	4b27      	ldr	r3, [pc, #156]	; (8001538 <OnRxDone+0xc8>)
 800149a:	2201      	movs	r2, #1
 800149c:	2100      	movs	r1, #0
 800149e:	4610      	mov	r0, r2
 80014a0:	f006 f84e 	bl	8007540 <UTIL_ADV_TRACE_COND_FSend>
  SnrValue = LoraSnr_FskCfo;
 80014a4:	4b25      	ldr	r3, [pc, #148]	; (800153c <OnRxDone+0xcc>)
 80014a6:	701e      	strb	r6, [r3, #0]
  State = RX;
 80014a8:	2100      	movs	r1, #0
 80014aa:	4b25      	ldr	r3, [pc, #148]	; (8001540 <OnRxDone+0xd0>)
 80014ac:	7019      	strb	r1, [r3, #0]
  memset(BufferRx, 0, MAX_APP_BUFFER_SIZE);
 80014ae:	22ff      	movs	r2, #255	; 0xff
 80014b0:	4824      	ldr	r0, [pc, #144]	; (8001544 <OnRxDone+0xd4>)
 80014b2:	f006 feba 	bl	800822a <memset>
    RxBufferSize = size;
 80014b6:	4b24      	ldr	r3, [pc, #144]	; (8001548 <OnRxDone+0xd8>)
 80014b8:	801c      	strh	r4, [r3, #0]
    if (RxBufferSize <= MAX_APP_BUFFER_SIZE)
 80014ba:	2cff      	cmp	r4, #255	; 0xff
 80014bc:	d90a      	bls.n	80014d4 <OnRxDone+0x64>
    RssiValue = rssi;
 80014be:	4b23      	ldr	r3, [pc, #140]	; (800154c <OnRxDone+0xdc>)
 80014c0:	701d      	strb	r5, [r3, #0]
    APP_LOG(TS_ON, VLEVEL_H, "payload. size=%d \n\r", size);
 80014c2:	9400      	str	r4, [sp, #0]
 80014c4:	4b22      	ldr	r3, [pc, #136]	; (8001550 <OnRxDone+0xe0>)
 80014c6:	2201      	movs	r2, #1
 80014c8:	2100      	movs	r1, #0
 80014ca:	2003      	movs	r0, #3
 80014cc:	f006 f838 	bl	8007540 <UTIL_ADV_TRACE_COND_FSend>
    for (int32_t i = 0; i < PAYLOAD_LEN; i++)
 80014d0:	2400      	movs	r4, #0
 80014d2:	e006      	b.n	80014e2 <OnRxDone+0x72>
      memcpy(BufferRx, payload, RxBufferSize);
 80014d4:	4622      	mov	r2, r4
 80014d6:	4639      	mov	r1, r7
 80014d8:	481a      	ldr	r0, [pc, #104]	; (8001544 <OnRxDone+0xd4>)
 80014da:	f006 ff42 	bl	8008362 <memcpy>
 80014de:	e7ee      	b.n	80014be <OnRxDone+0x4e>
    for (int32_t i = 0; i < PAYLOAD_LEN; i++)
 80014e0:	3401      	adds	r4, #1
 80014e2:	2c3f      	cmp	r4, #63	; 0x3f
 80014e4:	dc18      	bgt.n	8001518 <OnRxDone+0xa8>
      APP_LOG(TS_OFF, VLEVEL_H, "%02X", BufferRx[i]);
 80014e6:	4b17      	ldr	r3, [pc, #92]	; (8001544 <OnRxDone+0xd4>)
 80014e8:	5d1b      	ldrb	r3, [r3, r4]
 80014ea:	9300      	str	r3, [sp, #0]
 80014ec:	4b19      	ldr	r3, [pc, #100]	; (8001554 <OnRxDone+0xe4>)
 80014ee:	2200      	movs	r2, #0
 80014f0:	4611      	mov	r1, r2
 80014f2:	2003      	movs	r0, #3
 80014f4:	f006 f824 	bl	8007540 <UTIL_ADV_TRACE_COND_FSend>
      if (i % 16 == 15)
 80014f8:	4262      	negs	r2, r4
 80014fa:	f004 030f 	and.w	r3, r4, #15
 80014fe:	f002 020f 	and.w	r2, r2, #15
 8001502:	bf58      	it	pl
 8001504:	4253      	negpl	r3, r2
 8001506:	2b0f      	cmp	r3, #15
 8001508:	d1ea      	bne.n	80014e0 <OnRxDone+0x70>
        APP_LOG(TS_OFF, VLEVEL_H, "\n\r");
 800150a:	4b13      	ldr	r3, [pc, #76]	; (8001558 <OnRxDone+0xe8>)
 800150c:	2200      	movs	r2, #0
 800150e:	4611      	mov	r1, r2
 8001510:	2003      	movs	r0, #3
 8001512:	f006 f815 	bl	8007540 <UTIL_ADV_TRACE_COND_FSend>
 8001516:	e7e3      	b.n	80014e0 <OnRxDone+0x70>
    APP_LOG(TS_OFF, VLEVEL_H, "\n\r");
 8001518:	4b0f      	ldr	r3, [pc, #60]	; (8001558 <OnRxDone+0xe8>)
 800151a:	2200      	movs	r2, #0
 800151c:	4611      	mov	r1, r2
 800151e:	2003      	movs	r0, #3
 8001520:	f006 f80e 	bl	8007540 <UTIL_ADV_TRACE_COND_FSend>
    UTIL_SEQ_SetTask((1 << CFG_SEQ_Task_SubGHz_Phy_App_Process), CFG_SEQ_Prio_0);
 8001524:	2100      	movs	r1, #0
 8001526:	2001      	movs	r0, #1
 8001528:	f006 f934 	bl	8007794 <UTIL_SEQ_SetTask>
}
 800152c:	b003      	add	sp, #12
 800152e:	bdf0      	pop	{r4, r5, r6, r7, pc}
 8001530:	080094b0 	.word	0x080094b0
 8001534:	080094bc 	.word	0x080094bc
 8001538:	080094cc 	.word	0x080094cc
 800153c:	20000488 	.word	0x20000488
 8001540:	20000489 	.word	0x20000489
 8001544:	20000268 	.word	0x20000268
 8001548:	20000486 	.word	0x20000486
 800154c:	20000484 	.word	0x20000484
 8001550:	080094d8 	.word	0x080094d8
 8001554:	080094ec 	.word	0x080094ec
 8001558:	080094b8 	.word	0x080094b8

0800155c <OnTxDone>:
{
 800155c:	b508      	push	{r3, lr}
  APP_LOG(TS_ON, VLEVEL_L, "OnTxDone\n\r");
 800155e:	4b07      	ldr	r3, [pc, #28]	; (800157c <OnTxDone+0x20>)
 8001560:	2201      	movs	r2, #1
 8001562:	2100      	movs	r1, #0
 8001564:	4610      	mov	r0, r2
 8001566:	f005 ffeb 	bl	8007540 <UTIL_ADV_TRACE_COND_FSend>
  State = TX;
 800156a:	4b05      	ldr	r3, [pc, #20]	; (8001580 <OnTxDone+0x24>)
 800156c:	2203      	movs	r2, #3
 800156e:	701a      	strb	r2, [r3, #0]
  UTIL_SEQ_SetTask((1 << CFG_SEQ_Task_SubGHz_Phy_App_Process), CFG_SEQ_Prio_0);
 8001570:	2100      	movs	r1, #0
 8001572:	2001      	movs	r0, #1
 8001574:	f006 f90e 	bl	8007794 <UTIL_SEQ_SetTask>
}
 8001578:	bd08      	pop	{r3, pc}
 800157a:	bf00      	nop
 800157c:	080094f4 	.word	0x080094f4
 8001580:	20000489 	.word	0x20000489

08001584 <OnledEvent>:
static void OnledEvent(void *context)
{
 8001584:	b510      	push	{r4, lr}
  HAL_GPIO_TogglePin(LED2_GPIO_Port, LED2_Pin); /* LED_GREEN */
 8001586:	4c07      	ldr	r4, [pc, #28]	; (80015a4 <OnledEvent+0x20>)
 8001588:	f44f 7100 	mov.w	r1, #512	; 0x200
 800158c:	4620      	mov	r0, r4
 800158e:	f000 fe30 	bl	80021f2 <HAL_GPIO_TogglePin>
  HAL_GPIO_TogglePin(LED3_GPIO_Port, LED3_Pin); /* LED_RED */
 8001592:	f44f 6100 	mov.w	r1, #2048	; 0x800
 8001596:	4620      	mov	r0, r4
 8001598:	f000 fe2b 	bl	80021f2 <HAL_GPIO_TogglePin>
  UTIL_TIMER_Start(&timerLed);
 800159c:	4802      	ldr	r0, [pc, #8]	; (80015a8 <OnledEvent+0x24>)
 800159e:	f006 fad9 	bl	8007b54 <UTIL_TIMER_Start>
}
 80015a2:	bd10      	pop	{r4, pc}
 80015a4:	48000400 	.word	0x48000400
 80015a8:	200004b8 	.word	0x200004b8

080015ac <SubghzApp_Init>:
{
 80015ac:	e92d 43f0 	stmdb	sp!, {r4, r5, r6, r7, r8, r9, lr}
 80015b0:	b08b      	sub	sp, #44	; 0x2c
  APP_LOG(TS_OFF, VLEVEL_M, "\n\rPING PONG\n\r");
 80015b2:	4b50      	ldr	r3, [pc, #320]	; (80016f4 <SubghzApp_Init+0x148>)
 80015b4:	2200      	movs	r2, #0
 80015b6:	4611      	mov	r1, r2
 80015b8:	2002      	movs	r0, #2
 80015ba:	f005 ffc1 	bl	8007540 <UTIL_ADV_TRACE_COND_FSend>
  APP_LOG(TS_OFF, VLEVEL_M, "APPLICATION_VERSION: V%X.%X.%X\r\n",
 80015be:	2400      	movs	r4, #0
 80015c0:	9402      	str	r4, [sp, #8]
 80015c2:	2603      	movs	r6, #3
 80015c4:	9601      	str	r6, [sp, #4]
 80015c6:	2501      	movs	r5, #1
 80015c8:	9500      	str	r5, [sp, #0]
 80015ca:	4b4b      	ldr	r3, [pc, #300]	; (80016f8 <SubghzApp_Init+0x14c>)
 80015cc:	4622      	mov	r2, r4
 80015ce:	4621      	mov	r1, r4
 80015d0:	2002      	movs	r0, #2
 80015d2:	f005 ffb5 	bl	8007540 <UTIL_ADV_TRACE_COND_FSend>
  APP_LOG(TS_OFF, VLEVEL_M, "MW_RADIO_VERSION:    V%X.%X.%X\r\n",
 80015d6:	9402      	str	r4, [sp, #8]
 80015d8:	9601      	str	r6, [sp, #4]
 80015da:	9500      	str	r5, [sp, #0]
 80015dc:	4b47      	ldr	r3, [pc, #284]	; (80016fc <SubghzApp_Init+0x150>)
 80015de:	4622      	mov	r2, r4
 80015e0:	4621      	mov	r1, r4
 80015e2:	2002      	movs	r0, #2
 80015e4:	f005 ffac 	bl	8007540 <UTIL_ADV_TRACE_COND_FSend>
  UTIL_TIMER_Create(&timerLed, LED_PERIOD_MS, UTIL_TIMER_ONESHOT, OnledEvent, NULL);
 80015e8:	4e45      	ldr	r6, [pc, #276]	; (8001700 <SubghzApp_Init+0x154>)
 80015ea:	9400      	str	r4, [sp, #0]
 80015ec:	4b45      	ldr	r3, [pc, #276]	; (8001704 <SubghzApp_Init+0x158>)
 80015ee:	4622      	mov	r2, r4
 80015f0:	21c8      	movs	r1, #200	; 0xc8
 80015f2:	4630      	mov	r0, r6
 80015f4:	f006 f9f6 	bl	80079e4 <UTIL_TIMER_Create>
  UTIL_TIMER_Start(&timerLed);
 80015f8:	4630      	mov	r0, r6
 80015fa:	f006 faab 	bl	8007b54 <UTIL_TIMER_Start>
  RadioEvents.TxDone = OnTxDone;
 80015fe:	4842      	ldr	r0, [pc, #264]	; (8001708 <SubghzApp_Init+0x15c>)
 8001600:	4b42      	ldr	r3, [pc, #264]	; (800170c <SubghzApp_Init+0x160>)
 8001602:	6003      	str	r3, [r0, #0]
  RadioEvents.RxDone = OnRxDone;
 8001604:	4b42      	ldr	r3, [pc, #264]	; (8001710 <SubghzApp_Init+0x164>)
 8001606:	6083      	str	r3, [r0, #8]
  RadioEvents.TxTimeout = OnTxTimeout;
 8001608:	4b42      	ldr	r3, [pc, #264]	; (8001714 <SubghzApp_Init+0x168>)
 800160a:	6043      	str	r3, [r0, #4]
  RadioEvents.RxTimeout = OnRxTimeout;
 800160c:	4b42      	ldr	r3, [pc, #264]	; (8001718 <SubghzApp_Init+0x16c>)
 800160e:	60c3      	str	r3, [r0, #12]
  RadioEvents.RxError = OnRxError;
 8001610:	4b42      	ldr	r3, [pc, #264]	; (800171c <SubghzApp_Init+0x170>)
 8001612:	6103      	str	r3, [r0, #16]
  Radio.Init(&RadioEvents);
 8001614:	4e42      	ldr	r6, [pc, #264]	; (8001720 <SubghzApp_Init+0x174>)
 8001616:	6833      	ldr	r3, [r6, #0]
 8001618:	4798      	blx	r3
  random_delay = (Radio.Random()) >> 22; /*10bits random e.g. from 0 to 1023 ms*/
 800161a:	6973      	ldr	r3, [r6, #20]
 800161c:	4798      	blx	r3
 800161e:	0d80      	lsrs	r0, r0, #22
 8001620:	4f40      	ldr	r7, [pc, #256]	; (8001724 <SubghzApp_Init+0x178>)
 8001622:	6038      	str	r0, [r7, #0]
  Radio.SetChannel(RF_FREQUENCY);
 8001624:	68f3      	ldr	r3, [r6, #12]
 8001626:	4840      	ldr	r0, [pc, #256]	; (8001728 <SubghzApp_Init+0x17c>)
 8001628:	4798      	blx	r3
  APP_LOG(TS_OFF, VLEVEL_M, "---------------\n\r");
 800162a:	4b40      	ldr	r3, [pc, #256]	; (800172c <SubghzApp_Init+0x180>)
 800162c:	4622      	mov	r2, r4
 800162e:	4621      	mov	r1, r4
 8001630:	2002      	movs	r0, #2
 8001632:	f005 ff85 	bl	8007540 <UTIL_ADV_TRACE_COND_FSend>
  APP_LOG(TS_OFF, VLEVEL_M, "LORA_MODULATION\n\r");
 8001636:	4b3e      	ldr	r3, [pc, #248]	; (8001730 <SubghzApp_Init+0x184>)
 8001638:	4622      	mov	r2, r4
 800163a:	4621      	mov	r1, r4
 800163c:	2002      	movs	r0, #2
 800163e:	f005 ff7f 	bl	8007540 <UTIL_ADV_TRACE_COND_FSend>
  APP_LOG(TS_OFF, VLEVEL_M, "LORA_BW=%d kHz\n\r", (1 << LORA_BANDWIDTH) * 125);
 8001642:	237d      	movs	r3, #125	; 0x7d
 8001644:	9300      	str	r3, [sp, #0]
 8001646:	4b3b      	ldr	r3, [pc, #236]	; (8001734 <SubghzApp_Init+0x188>)
 8001648:	4622      	mov	r2, r4
 800164a:	4621      	mov	r1, r4
 800164c:	2002      	movs	r0, #2
 800164e:	f005 ff77 	bl	8007540 <UTIL_ADV_TRACE_COND_FSend>
  APP_LOG(TS_OFF, VLEVEL_M, "LORA_SF=%d\n\r", LORA_SPREADING_FACTOR);
 8001652:	f04f 0807 	mov.w	r8, #7
 8001656:	f8cd 8000 	str.w	r8, [sp]
 800165a:	4b37      	ldr	r3, [pc, #220]	; (8001738 <SubghzApp_Init+0x18c>)
 800165c:	4622      	mov	r2, r4
 800165e:	4621      	mov	r1, r4
 8001660:	2002      	movs	r0, #2
 8001662:	f005 ff6d 	bl	8007540 <UTIL_ADV_TRACE_COND_FSend>
  Radio.SetTxConfig(MODEM_LORA, TX_OUTPUT_POWER, 0, LORA_BANDWIDTH,
 8001666:	f640 33b8 	movw	r3, #3000	; 0xbb8
 800166a:	9308      	str	r3, [sp, #32]
 800166c:	9407      	str	r4, [sp, #28]
 800166e:	9406      	str	r4, [sp, #24]
 8001670:	9405      	str	r4, [sp, #20]
 8001672:	9504      	str	r5, [sp, #16]
 8001674:	9403      	str	r4, [sp, #12]
 8001676:	f04f 0908 	mov.w	r9, #8
 800167a:	f8cd 9008 	str.w	r9, [sp, #8]
 800167e:	9501      	str	r5, [sp, #4]
 8001680:	f8cd 8000 	str.w	r8, [sp]
 8001684:	4623      	mov	r3, r4
 8001686:	4622      	mov	r2, r4
 8001688:	210e      	movs	r1, #14
 800168a:	4628      	mov	r0, r5
 800168c:	f8d6 c01c 	ldr.w	ip, [r6, #28]
 8001690:	47e0      	blx	ip
  Radio.SetRxConfig(MODEM_LORA, LORA_BANDWIDTH, LORA_SPREADING_FACTOR,
 8001692:	9509      	str	r5, [sp, #36]	; 0x24
 8001694:	9408      	str	r4, [sp, #32]
 8001696:	9407      	str	r4, [sp, #28]
 8001698:	9406      	str	r4, [sp, #24]
 800169a:	9505      	str	r5, [sp, #20]
 800169c:	9404      	str	r4, [sp, #16]
 800169e:	9403      	str	r4, [sp, #12]
 80016a0:	2305      	movs	r3, #5
 80016a2:	9302      	str	r3, [sp, #8]
 80016a4:	f8cd 9004 	str.w	r9, [sp, #4]
 80016a8:	9400      	str	r4, [sp, #0]
 80016aa:	462b      	mov	r3, r5
 80016ac:	4642      	mov	r2, r8
 80016ae:	4621      	mov	r1, r4
 80016b0:	4628      	mov	r0, r5
 80016b2:	f8d6 c018 	ldr.w	ip, [r6, #24]
 80016b6:	47e0      	blx	ip
  Radio.SetMaxPayloadLength(MODEM_LORA, MAX_APP_BUFFER_SIZE);
 80016b8:	6d73      	ldr	r3, [r6, #84]	; 0x54
 80016ba:	21ff      	movs	r1, #255	; 0xff
 80016bc:	4628      	mov	r0, r5
 80016be:	4798      	blx	r3
  memset(BufferTx, 0x0, MAX_APP_BUFFER_SIZE);
 80016c0:	22ff      	movs	r2, #255	; 0xff
 80016c2:	4621      	mov	r1, r4
 80016c4:	481d      	ldr	r0, [pc, #116]	; (800173c <SubghzApp_Init+0x190>)
 80016c6:	f006 fdb0 	bl	800822a <memset>
  APP_LOG(TS_ON, VLEVEL_L, "rand=%d\n\r", random_delay);
 80016ca:	683b      	ldr	r3, [r7, #0]
 80016cc:	9300      	str	r3, [sp, #0]
 80016ce:	4b1c      	ldr	r3, [pc, #112]	; (8001740 <SubghzApp_Init+0x194>)
 80016d0:	462a      	mov	r2, r5
 80016d2:	4621      	mov	r1, r4
 80016d4:	4628      	mov	r0, r5
 80016d6:	f005 ff33 	bl	8007540 <UTIL_ADV_TRACE_COND_FSend>
  Radio.Rx(RX_TIMEOUT_VALUE + random_delay);
 80016da:	6b73      	ldr	r3, [r6, #52]	; 0x34
 80016dc:	6838      	ldr	r0, [r7, #0]
 80016de:	f600 30b8 	addw	r0, r0, #3000	; 0xbb8
 80016e2:	4798      	blx	r3
  UTIL_SEQ_RegTask((1 << CFG_SEQ_Task_SubGHz_Phy_App_Process), UTIL_SEQ_RFU, PingPong_Process);
 80016e4:	4a17      	ldr	r2, [pc, #92]	; (8001744 <SubghzApp_Init+0x198>)
 80016e6:	4621      	mov	r1, r4
 80016e8:	4628      	mov	r0, r5
 80016ea:	f006 f91d 	bl	8007928 <UTIL_SEQ_RegTask>
}
 80016ee:	b00b      	add	sp, #44	; 0x2c
 80016f0:	e8bd 83f0 	ldmia.w	sp!, {r4, r5, r6, r7, r8, r9, pc}
 80016f4:	08009500 	.word	0x08009500
 80016f8:	08009510 	.word	0x08009510
 80016fc:	08009534 	.word	0x08009534
 8001700:	200004b8 	.word	0x200004b8
 8001704:	08001585 	.word	0x08001585
 8001708:	20000468 	.word	0x20000468
 800170c:	0800155d 	.word	0x0800155d
 8001710:	08001471 	.word	0x08001471
 8001714:	08001449 	.word	0x08001449
 8001718:	08001425 	.word	0x08001425
 800171c:	080013fd 	.word	0x080013fd
 8001720:	080096fc 	.word	0x080096fc
 8001724:	200004b4 	.word	0x200004b4
 8001728:	33bca100 	.word	0x33bca100
 800172c:	08009558 	.word	0x08009558
 8001730:	0800956c 	.word	0x0800956c
 8001734:	08009580 	.word	0x08009580
 8001738:	08009594 	.word	0x08009594
 800173c:	20000368 	.word	0x20000368
 8001740:	080095a4 	.word	0x080095a4
 8001744:	08001109 	.word	0x08001109

08001748 <RBI_Init>:

/* USER CODE END PFP */

/* Exported functions --------------------------------------------------------*/
int32_t RBI_Init(void)
{
 8001748:	b508      	push	{r3, lr}
   * 1/ For User boards, the BSP/STM32WLxx_Nucleo/ directory can be copied and replaced in the project. The copy must then be updated depending:
   *       on board RF switch configuration (pin control, number of port etc)
   *       on TCXO configuration
   *       on DC/DC configuration
   *       on maximum output power that the board can deliver*/
  return BSP_RADIO_Init();
 800174a:	f000 f835 	bl	80017b8 <BSP_RADIO_Init>
  /* USER CODE BEGIN RBI_Init_2 */
#warning user to provide its board code or to call his board driver functions
  /* USER CODE END RBI_Init_2 */
  return retcode;
#endif  /* USE_BSP_DRIVER  */
}
 800174e:	bd08      	pop	{r3, pc}

08001750 <RBI_ConfigRFSwitch>:
  return retcode;
#endif  /* USE_BSP_DRIVER */
}

int32_t RBI_ConfigRFSwitch(RBI_Switch_TypeDef Config)
{
 8001750:	b508      	push	{r3, lr}
   * 1/ For User boards, the BSP/STM32WLxx_Nucleo/ directory can be copied and replaced in the project. The copy must then be updated depending:
   *       on board RF switch configuration (pin control, number of port etc)
   *       on TCXO configuration
   *       on DC/DC configuration
   *       on maximum output power that the board can deliver*/
  return BSP_RADIO_ConfigRFSwitch((BSP_RADIO_Switch_TypeDef) Config);
 8001752:	f000 f873 	bl	800183c <BSP_RADIO_ConfigRFSwitch>
  /* USER CODE BEGIN RBI_ConfigRFSwitch_2 */
#warning user to provide its board code or to call his board driver functions
  /* USER CODE END RBI_ConfigRFSwitch_2 */
  return retcode;
#endif  /* USE_BSP_DRIVER */
}
 8001756:	bd08      	pop	{r3, pc}

08001758 <RBI_GetTxConfig>:

int32_t RBI_GetTxConfig(void)
{
 8001758:	b508      	push	{r3, lr}
   * 1/ For User boards, the BSP/STM32WLxx_Nucleo/ directory can be copied and replaced in the project. The copy must then be updated depending:
   *       on board RF switch configuration (pin control, number of port etc)
   *       on TCXO configuration
   *       on DC/DC configuration
   *       on maximum output power that the board can deliver*/
  return BSP_RADIO_GetTxConfig();
 800175a:	f000 f8bd 	bl	80018d8 <BSP_RADIO_GetTxConfig>
  /* USER CODE BEGIN RBI_GetTxConfig_2 */
#warning user to provide its board code or to call his board driver functions
  /* USER CODE END RBI_GetTxConfig_2 */
  return retcode;
#endif  /* USE_BSP_DRIVER */
}
 800175e:	bd08      	pop	{r3, pc}

08001760 <RBI_IsTCXO>:

int32_t RBI_IsTCXO(void)
{
 8001760:	b508      	push	{r3, lr}
   * 1/ For User boards, the BSP/STM32WLxx_Nucleo/ directory can be copied and replaced in the project. The copy must then be updated depending:
   *       on board RF switch configuration (pin control, number of port etc)
   *       on TCXO configuration
   *       on DC/DC configuration
   *       on maximum output power that the board can deliver*/
  return BSP_RADIO_IsTCXO();
 8001762:	f000 f8bb 	bl	80018dc <BSP_RADIO_IsTCXO>
  /* USER CODE BEGIN RBI_IsTCXO_2 */
#warning user to provide its board code or to call his board driver functions
  /* USER CODE END RBI_IsTCXO_2 */
  return retcode;
#endif  /* USE_BSP_DRIVER  */
}
 8001766:	bd08      	pop	{r3, pc}

08001768 <RBI_IsDCDC>:

int32_t RBI_IsDCDC(void)
{
 8001768:	b508      	push	{r3, lr}
   * 1/ For User boards, the BSP/STM32WLxx_Nucleo/ directory can be copied and replaced in the project. The copy must then be updated depending:
   *       on board RF switch configuration (pin control, number of port etc)
   *       on TCXO configuration
   *       on DC/DC configuration
   *       on maximum output power that the board can deliver*/
  return BSP_RADIO_IsDCDC();
 800176a:	f000 f8b9 	bl	80018e0 <BSP_RADIO_IsDCDC>
  /* USER CODE BEGIN RBI_IsDCDC_2 */
#warning user to provide its board code or to call his board driver functions
  /* USER CODE END RBI_IsDCDC_2 */
  return retcode;
#endif  /* USE_BSP_DRIVER  */
}
 800176e:	bd08      	pop	{r3, pc}

08001770 <RBI_GetRFOMaxPowerConfig>:

int32_t RBI_GetRFOMaxPowerConfig(RBI_RFOMaxPowerConfig_TypeDef Config)
{
 8001770:	b508      	push	{r3, lr}
   * 1/ For User boards, the BSP/STM32WLxx_Nucleo/ directory can be copied and replaced in the project. The copy must then be updated depending:
   *       on board RF switch configuration (pin control, number of port etc)
   *       on TCXO configuration
   *       on DC/DC configuration
   *       on maximum output power that the board can deliver*/
  return BSP_RADIO_GetRFOMaxPowerConfig((BSP_RADIO_RFOMaxPowerConfig_TypeDef) Config);
 8001772:	f000 f8b7 	bl	80018e4 <BSP_RADIO_GetRFOMaxPowerConfig>
    ret = 22; /*dBm*/
  }
  /* USER CODE END RBI_GetRFOMaxPowerConfig_2 */
  return ret;
#endif  /* USE_BSP_DRIVER  */
}
 8001776:	bd08      	pop	{r3, pc}

08001778 <BSP_LED_Off>:
  *            @arg LED2
  *            @arg LED3
  * @retval BSP status
  */
int32_t BSP_LED_Off(Led_TypeDef Led)
{
 8001778:	b508      	push	{r3, lr}
  HAL_GPIO_WritePin(LED_PORT[Led], LED_PIN[Led], GPIO_PIN_RESET); 
 800177a:	2200      	movs	r2, #0
 800177c:	4b04      	ldr	r3, [pc, #16]	; (8001790 <BSP_LED_Off+0x18>)
 800177e:	f833 1010 	ldrh.w	r1, [r3, r0, lsl #1]
 8001782:	4b04      	ldr	r3, [pc, #16]	; (8001794 <BSP_LED_Off+0x1c>)
 8001784:	f853 0020 	ldr.w	r0, [r3, r0, lsl #2]
 8001788:	f000 fd2e 	bl	80021e8 <HAL_GPIO_WritePin>

  return BSP_ERROR_NONE;
}
 800178c:	2000      	movs	r0, #0
 800178e:	bd08      	pop	{r3, pc}
 8001790:	080095b0 	.word	0x080095b0
 8001794:	080095b8 	.word	0x080095b8

08001798 <BSP_LED_Toggle>:
  *            @arg LED2
  *            @arg LED3
  * @retval BSP status
  */
int32_t BSP_LED_Toggle(Led_TypeDef Led)
{
 8001798:	b508      	push	{r3, lr}
  HAL_GPIO_TogglePin(LED_PORT[Led], LED_PIN[Led]);
 800179a:	4b05      	ldr	r3, [pc, #20]	; (80017b0 <BSP_LED_Toggle+0x18>)
 800179c:	f833 1010 	ldrh.w	r1, [r3, r0, lsl #1]
 80017a0:	4b04      	ldr	r3, [pc, #16]	; (80017b4 <BSP_LED_Toggle+0x1c>)
 80017a2:	f853 0020 	ldr.w	r0, [r3, r0, lsl #2]
 80017a6:	f000 fd24 	bl	80021f2 <HAL_GPIO_TogglePin>

  return BSP_ERROR_NONE;
}
 80017aa:	2000      	movs	r0, #0
 80017ac:	bd08      	pop	{r3, pc}
 80017ae:	bf00      	nop
 80017b0:	080095b0 	.word	0x080095b0
 80017b4:	080095b8 	.word	0x080095b8

080017b8 <BSP_RADIO_Init>:
/**
  * @brief  Init Radio Switch 
  * @retval BSP status
  */
int32_t BSP_RADIO_Init(void)
{
 80017b8:	e92d 41f0 	stmdb	sp!, {r4, r5, r6, r7, r8, lr}
 80017bc:	b086      	sub	sp, #24
  GPIO_InitTypeDef  gpio_init_structure = {0};
 80017be:	2400      	movs	r4, #0
 80017c0:	9401      	str	r4, [sp, #4]
 80017c2:	9402      	str	r4, [sp, #8]
 80017c4:	9403      	str	r4, [sp, #12]
 80017c6:	9404      	str	r4, [sp, #16]
 80017c8:	9405      	str	r4, [sp, #20]
  SET_BIT(RCC->AHB2ENR, Periphs);
 80017ca:	f04f 43b0 	mov.w	r3, #1476395008	; 0x58000000
 80017ce:	6cda      	ldr	r2, [r3, #76]	; 0x4c
 80017d0:	f042 0204 	orr.w	r2, r2, #4
 80017d4:	64da      	str	r2, [r3, #76]	; 0x4c
  tmpreg = READ_BIT(RCC->AHB2ENR, Periphs);
 80017d6:	6cdb      	ldr	r3, [r3, #76]	; 0x4c
 80017d8:	f003 0304 	and.w	r3, r3, #4
 80017dc:	9300      	str	r3, [sp, #0]
  (void)tmpreg;
 80017de:	9b00      	ldr	r3, [sp, #0]
  
  /* Enable the Radio Switch Clock */
  RF_SW_CTRL3_GPIO_CLK_ENABLE();
  
  /* Configure the Radio Switch pin */
  gpio_init_structure.Pin   = RF_SW_CTRL1_PIN;
 80017e0:	2710      	movs	r7, #16
 80017e2:	9701      	str	r7, [sp, #4]
  gpio_init_structure.Mode  = GPIO_MODE_OUTPUT_PP;
 80017e4:	2301      	movs	r3, #1
 80017e6:	9302      	str	r3, [sp, #8]
  gpio_init_structure.Pull  = GPIO_NOPULL;
  gpio_init_structure.Speed = GPIO_SPEED_FREQ_VERY_HIGH;
 80017e8:	2303      	movs	r3, #3
 80017ea:	9304      	str	r3, [sp, #16]
  
  HAL_GPIO_Init(RF_SW_CTRL1_GPIO_PORT, &gpio_init_structure);
 80017ec:	4d12      	ldr	r5, [pc, #72]	; (8001838 <BSP_RADIO_Init+0x80>)
 80017ee:	a901      	add	r1, sp, #4
 80017f0:	4628      	mov	r0, r5
 80017f2:	f000 fba9 	bl	8001f48 <HAL_GPIO_Init>
  
  gpio_init_structure.Pin = RF_SW_CTRL2_PIN;
 80017f6:	f04f 0820 	mov.w	r8, #32
 80017fa:	f8cd 8004 	str.w	r8, [sp, #4]
  HAL_GPIO_Init(RF_SW_CTRL2_GPIO_PORT, &gpio_init_structure);
 80017fe:	a901      	add	r1, sp, #4
 8001800:	4628      	mov	r0, r5
 8001802:	f000 fba1 	bl	8001f48 <HAL_GPIO_Init>
  
  gpio_init_structure.Pin = RF_SW_CTRL3_PIN;
 8001806:	2608      	movs	r6, #8
 8001808:	9601      	str	r6, [sp, #4]
  HAL_GPIO_Init(RF_SW_CTRL3_GPIO_PORT, &gpio_init_structure);
 800180a:	a901      	add	r1, sp, #4
 800180c:	4628      	mov	r0, r5
 800180e:	f000 fb9b 	bl	8001f48 <HAL_GPIO_Init>

  HAL_GPIO_WritePin(RF_SW_CTRL2_GPIO_PORT, RF_SW_CTRL2_PIN, GPIO_PIN_RESET); 
 8001812:	4622      	mov	r2, r4
 8001814:	4641      	mov	r1, r8
 8001816:	4628      	mov	r0, r5
 8001818:	f000 fce6 	bl	80021e8 <HAL_GPIO_WritePin>
  HAL_GPIO_WritePin(RF_SW_CTRL1_GPIO_PORT, RF_SW_CTRL1_PIN, GPIO_PIN_RESET); 
 800181c:	4622      	mov	r2, r4
 800181e:	4639      	mov	r1, r7
 8001820:	4628      	mov	r0, r5
 8001822:	f000 fce1 	bl	80021e8 <HAL_GPIO_WritePin>
  HAL_GPIO_WritePin(RF_SW_CTRL3_GPIO_PORT, RF_SW_CTRL3_PIN, GPIO_PIN_RESET); 
 8001826:	4622      	mov	r2, r4
 8001828:	4631      	mov	r1, r6
 800182a:	4628      	mov	r0, r5
 800182c:	f000 fcdc 	bl	80021e8 <HAL_GPIO_WritePin>

  return BSP_ERROR_NONE;
}
 8001830:	4620      	mov	r0, r4
 8001832:	b006      	add	sp, #24
 8001834:	e8bd 81f0 	ldmia.w	sp!, {r4, r5, r6, r7, r8, pc}
 8001838:	48000800 	.word	0x48000800

0800183c <BSP_RADIO_ConfigRFSwitch>:
  *           @arg RADIO_SWITCH_RFO_LP
  *           @arg RADIO_SWITCH_RFO_HP
  * @retval BSP status
  */
int32_t BSP_RADIO_ConfigRFSwitch(BSP_RADIO_Switch_TypeDef Config)
{
 800183c:	b510      	push	{r4, lr}
  switch (Config)
 800183e:	2803      	cmp	r0, #3
 8001840:	d813      	bhi.n	800186a <BSP_RADIO_ConfigRFSwitch+0x2e>
 8001842:	e8df f000 	tbb	[pc, r0]
 8001846:	1402      	.short	0x1402
 8001848:	3625      	.short	0x3625
  {
    case RADIO_SWITCH_OFF:
    {
      /* Turn off switch */
      HAL_GPIO_WritePin(RF_SW_CTRL3_GPIO_PORT, RF_SW_CTRL3_PIN, GPIO_PIN_RESET);
 800184a:	4c22      	ldr	r4, [pc, #136]	; (80018d4 <BSP_RADIO_ConfigRFSwitch+0x98>)
 800184c:	2200      	movs	r2, #0
 800184e:	2108      	movs	r1, #8
 8001850:	4620      	mov	r0, r4
 8001852:	f000 fcc9 	bl	80021e8 <HAL_GPIO_WritePin>
      HAL_GPIO_WritePin(RF_SW_CTRL1_GPIO_PORT, RF_SW_CTRL1_PIN, GPIO_PIN_RESET);
 8001856:	2200      	movs	r2, #0
 8001858:	2110      	movs	r1, #16
 800185a:	4620      	mov	r0, r4
 800185c:	f000 fcc4 	bl	80021e8 <HAL_GPIO_WritePin>
      HAL_GPIO_WritePin(RF_SW_CTRL2_GPIO_PORT, RF_SW_CTRL2_PIN, GPIO_PIN_RESET);
 8001860:	2200      	movs	r2, #0
 8001862:	2120      	movs	r1, #32
 8001864:	4620      	mov	r0, r4
 8001866:	f000 fcbf 	bl	80021e8 <HAL_GPIO_WritePin>
    default:
      break;    
  }  

  return BSP_ERROR_NONE;
}
 800186a:	2000      	movs	r0, #0
 800186c:	bd10      	pop	{r4, pc}
      HAL_GPIO_WritePin(RF_SW_CTRL3_GPIO_PORT, RF_SW_CTRL3_PIN, GPIO_PIN_SET);
 800186e:	4c19      	ldr	r4, [pc, #100]	; (80018d4 <BSP_RADIO_ConfigRFSwitch+0x98>)
 8001870:	2201      	movs	r2, #1
 8001872:	2108      	movs	r1, #8
 8001874:	4620      	mov	r0, r4
 8001876:	f000 fcb7 	bl	80021e8 <HAL_GPIO_WritePin>
      HAL_GPIO_WritePin(RF_SW_CTRL1_GPIO_PORT, RF_SW_CTRL1_PIN, GPIO_PIN_SET); 
 800187a:	2201      	movs	r2, #1
 800187c:	2110      	movs	r1, #16
 800187e:	4620      	mov	r0, r4
 8001880:	f000 fcb2 	bl	80021e8 <HAL_GPIO_WritePin>
      HAL_GPIO_WritePin(RF_SW_CTRL2_GPIO_PORT, RF_SW_CTRL2_PIN, GPIO_PIN_RESET); 
 8001884:	2200      	movs	r2, #0
 8001886:	2120      	movs	r1, #32
 8001888:	4620      	mov	r0, r4
 800188a:	f000 fcad 	bl	80021e8 <HAL_GPIO_WritePin>
      break;
 800188e:	e7ec      	b.n	800186a <BSP_RADIO_ConfigRFSwitch+0x2e>
      HAL_GPIO_WritePin(RF_SW_CTRL3_GPIO_PORT, RF_SW_CTRL3_PIN, GPIO_PIN_SET);
 8001890:	4c10      	ldr	r4, [pc, #64]	; (80018d4 <BSP_RADIO_ConfigRFSwitch+0x98>)
 8001892:	2201      	movs	r2, #1
 8001894:	2108      	movs	r1, #8
 8001896:	4620      	mov	r0, r4
 8001898:	f000 fca6 	bl	80021e8 <HAL_GPIO_WritePin>
      HAL_GPIO_WritePin(RF_SW_CTRL1_GPIO_PORT, RF_SW_CTRL1_PIN, GPIO_PIN_SET); 
 800189c:	2201      	movs	r2, #1
 800189e:	2110      	movs	r1, #16
 80018a0:	4620      	mov	r0, r4
 80018a2:	f000 fca1 	bl	80021e8 <HAL_GPIO_WritePin>
      HAL_GPIO_WritePin(RF_SW_CTRL2_GPIO_PORT, RF_SW_CTRL2_PIN, GPIO_PIN_SET); 
 80018a6:	2201      	movs	r2, #1
 80018a8:	2120      	movs	r1, #32
 80018aa:	4620      	mov	r0, r4
 80018ac:	f000 fc9c 	bl	80021e8 <HAL_GPIO_WritePin>
      break;
 80018b0:	e7db      	b.n	800186a <BSP_RADIO_ConfigRFSwitch+0x2e>
      HAL_GPIO_WritePin(RF_SW_CTRL3_GPIO_PORT, RF_SW_CTRL3_PIN, GPIO_PIN_SET);
 80018b2:	4c08      	ldr	r4, [pc, #32]	; (80018d4 <BSP_RADIO_ConfigRFSwitch+0x98>)
 80018b4:	2201      	movs	r2, #1
 80018b6:	2108      	movs	r1, #8
 80018b8:	4620      	mov	r0, r4
 80018ba:	f000 fc95 	bl	80021e8 <HAL_GPIO_WritePin>
      HAL_GPIO_WritePin(RF_SW_CTRL1_GPIO_PORT, RF_SW_CTRL1_PIN, GPIO_PIN_RESET); 
 80018be:	2200      	movs	r2, #0
 80018c0:	2110      	movs	r1, #16
 80018c2:	4620      	mov	r0, r4
 80018c4:	f000 fc90 	bl	80021e8 <HAL_GPIO_WritePin>
      HAL_GPIO_WritePin(RF_SW_CTRL2_GPIO_PORT, RF_SW_CTRL2_PIN, GPIO_PIN_SET); 
 80018c8:	2201      	movs	r2, #1
 80018ca:	2120      	movs	r1, #32
 80018cc:	4620      	mov	r0, r4
 80018ce:	f000 fc8b 	bl	80021e8 <HAL_GPIO_WritePin>
      break;
 80018d2:	e7ca      	b.n	800186a <BSP_RADIO_ConfigRFSwitch+0x2e>
 80018d4:	48000800 	.word	0x48000800

080018d8 <BSP_RADIO_GetTxConfig>:
  *  RADIO_CONF_RFO_HP
  */
int32_t BSP_RADIO_GetTxConfig(void)
{
  return RADIO_CONF_RFO_LP_HP;
}
 80018d8:	2000      	movs	r0, #0
 80018da:	4770      	bx	lr

080018dc <BSP_RADIO_IsTCXO>:
  *  RADIO_CONF_TCXO_SUPPORTED
  */
int32_t BSP_RADIO_IsTCXO(void)
{
  return RADIO_CONF_TCXO_SUPPORTED;
}
 80018dc:	2001      	movs	r0, #1
 80018de:	4770      	bx	lr

080018e0 <BSP_RADIO_IsDCDC>:
  *  RADIO_CONF_DCDC_SUPPORTED  
  */
int32_t BSP_RADIO_IsDCDC(void)
{
  return RADIO_CONF_DCDC_SUPPORTED;
}
 80018e0:	2001      	movs	r0, #1
 80018e2:	4770      	bx	lr

080018e4 <BSP_RADIO_GetRFOMaxPowerConfig>:
  */
int32_t BSP_RADIO_GetRFOMaxPowerConfig(BSP_RADIO_RFOMaxPowerConfig_TypeDef Config)
{
  int32_t ret;

  if(Config == RADIO_RFO_LP_MAXPOWER)
 80018e4:	b908      	cbnz	r0, 80018ea <BSP_RADIO_GetRFOMaxPowerConfig+0x6>
  {
    ret = RADIO_CONF_RFO_LP_MAX_15_dBm;
 80018e6:	200f      	movs	r0, #15
 80018e8:	4770      	bx	lr
  }
  else
  {
    ret = RADIO_CONF_RFO_HP_MAX_22_dBm;
 80018ea:	2016      	movs	r0, #22
  }

  return ret;
}
 80018ec:	4770      	bx	lr

080018ee <SystemInit>:

  /* FPU settings ------------------------------------------------------------*/
#if (__FPU_PRESENT == 1) && (__FPU_USED == 1)
  SCB->CPACR |= ((3UL << (10UL*2UL))|(3UL << (11UL*2UL)));  /* set CP10 and CP11 Full Access */
#endif
}
 80018ee:	4770      	bx	lr

080018f0 <HAL_Init>:
  *         need to ensure that the SysTick time base is always set to 1 millisecond
  *         to have correct HAL operation.
  * @retval HAL status
  */
HAL_StatusTypeDef HAL_Init(void)
{
 80018f0:	b510      	push	{r4, lr}
#endif /* PREFETCH_ENABLE */

#ifdef CORE_CM0PLUS
#else
  /* Set Interrupt Group Priority */
  HAL_NVIC_SetPriorityGrouping(NVIC_PRIORITYGROUP_4);
 80018f2:	2003      	movs	r0, #3
 80018f4:	f000 f838 	bl	8001968 <HAL_NVIC_SetPriorityGrouping>

  /* Update the SystemCoreClock global variable */
#if defined(DUAL_CORE) && defined(CORE_CM0PLUS)
  SystemCoreClock = HAL_RCC_GetHCLK2Freq();
#else
  SystemCoreClock = HAL_RCC_GetHCLKFreq();
 80018f8:	f000 fe0e 	bl	8002518 <HAL_RCC_GetHCLKFreq>
 80018fc:	4b06      	ldr	r3, [pc, #24]	; (8001918 <HAL_Init+0x28>)
 80018fe:	6018      	str	r0, [r3, #0]
#endif

  /* Use SysTick as time base source and configure 1ms tick (default clock after Reset is MSI) */
  if (HAL_InitTick(TICK_INT_PRIORITY) != HAL_OK)
 8001900:	200f      	movs	r0, #15
 8001902:	f7ff f849 	bl	8000998 <HAL_InitTick>
 8001906:	b110      	cbz	r0, 800190e <HAL_Init+0x1e>
  {
    status = HAL_ERROR;
 8001908:	2401      	movs	r4, #1
    HAL_MspInit();
  }

  /* Return function status */
  return status;
}
 800190a:	4620      	mov	r0, r4
 800190c:	bd10      	pop	{r4, pc}
 800190e:	4604      	mov	r4, r0
    HAL_MspInit();
 8001910:	f7fe ff8a 	bl	8000828 <HAL_MspInit>
 8001914:	e7f9      	b.n	800190a <HAL_Init+0x1a>
 8001916:	bf00      	nop
 8001918:	20000024 	.word	0x20000024

0800191c <HAL_SuspendTick>:
  * @retval None
  */
__weak void HAL_SuspendTick(void)
{
  /* Disable SysTick Interrupt */
  CLEAR_BIT(SysTick->CTRL, SysTick_CTRL_TICKINT_Msk);
 800191c:	f04f 22e0 	mov.w	r2, #3758153728	; 0xe000e000
 8001920:	6913      	ldr	r3, [r2, #16]
 8001922:	f023 0302 	bic.w	r3, r3, #2
 8001926:	6113      	str	r3, [r2, #16]
}
 8001928:	4770      	bx	lr

0800192a <HAL_ResumeTick>:
  * @retval None
  */
__weak void HAL_ResumeTick(void)
{
  /* Enable SysTick Interrupt */
  SET_BIT(SysTick->CTRL, SysTick_CTRL_TICKINT_Msk);
 800192a:	f04f 22e0 	mov.w	r2, #3758153728	; 0xe000e000
 800192e:	6913      	ldr	r3, [r2, #16]
 8001930:	f043 0302 	orr.w	r3, r3, #2
 8001934:	6113      	str	r3, [r2, #16]
}
 8001936:	4770      	bx	lr

08001938 <HAL_DBGMCU_DisableDBGSleepMode>:
  * @rmtoll DBGMCU_CR    DBG_SLEEP     LL_DBGMCU_DisableDBGSleepMode
  * @retval None
  */
__STATIC_INLINE void LL_DBGMCU_DisableDBGSleepMode(void)
{
  CLEAR_BIT(DBGMCU->CR, DBGMCU_CR_DBG_SLEEP);
 8001938:	4a02      	ldr	r2, [pc, #8]	; (8001944 <HAL_DBGMCU_DisableDBGSleepMode+0xc>)
 800193a:	6853      	ldr	r3, [r2, #4]
 800193c:	f023 0301 	bic.w	r3, r3, #1
 8001940:	6053      	str	r3, [r2, #4]
  * @retval None
  */
void HAL_DBGMCU_DisableDBGSleepMode(void)
{
  LL_DBGMCU_DisableDBGSleepMode();
}
 8001942:	4770      	bx	lr
 8001944:	e0042000 	.word	0xe0042000

08001948 <HAL_DBGMCU_DisableDBGStopMode>:
  * @rmtoll DBGMCU_CR    DBG_STOP      LL_DBGMCU_DisableDBGStopMode
  * @retval None
  */
__STATIC_INLINE void LL_DBGMCU_DisableDBGStopMode(void)
{
  CLEAR_BIT(DBGMCU->CR, DBGMCU_CR_DBG_STOP);
 8001948:	4a02      	ldr	r2, [pc, #8]	; (8001954 <HAL_DBGMCU_DisableDBGStopMode+0xc>)
 800194a:	6853      	ldr	r3, [r2, #4]
 800194c:	f023 0302 	bic.w	r3, r3, #2
 8001950:	6053      	str	r3, [r2, #4]
  * @retval None
  */
void HAL_DBGMCU_DisableDBGStopMode(void)
{
  LL_DBGMCU_DisableDBGStopMode();
}
 8001952:	4770      	bx	lr
 8001954:	e0042000 	.word	0xe0042000

08001958 <HAL_DBGMCU_DisableDBGStandbyMode>:
  * @rmtoll DBGMCU_CR    DBG_STANDBY   LL_DBGMCU_DisableDBGStandbyMode
  * @retval None
  */
__STATIC_INLINE void LL_DBGMCU_DisableDBGStandbyMode(void)
{
  CLEAR_BIT(DBGMCU->CR, DBGMCU_CR_DBG_STANDBY);
 8001958:	4a02      	ldr	r2, [pc, #8]	; (8001964 <HAL_DBGMCU_DisableDBGStandbyMode+0xc>)
 800195a:	6853      	ldr	r3, [r2, #4]
 800195c:	f023 0304 	bic.w	r3, r3, #4
 8001960:	6053      	str	r3, [r2, #4]
  * @retval None
  */
void HAL_DBGMCU_DisableDBGStandbyMode(void)
{
  LL_DBGMCU_DisableDBGStandbyMode();
}
 8001962:	4770      	bx	lr
 8001964:	e0042000 	.word	0xe0042000

08001968 <HAL_NVIC_SetPriorityGrouping>:
__STATIC_INLINE void __NVIC_SetPriorityGrouping(uint32_t PriorityGroup)
{
  uint32_t reg_value;
  uint32_t PriorityGroupTmp = (PriorityGroup & (uint32_t)0x07UL);             /* only values 0..7 are used          */

  reg_value  =  SCB->AIRCR;                                                   /* read old register configuration    */
 8001968:	4a07      	ldr	r2, [pc, #28]	; (8001988 <HAL_NVIC_SetPriorityGrouping+0x20>)
 800196a:	68d3      	ldr	r3, [r2, #12]
  reg_value &= ~((uint32_t)(SCB_AIRCR_VECTKEY_Msk | SCB_AIRCR_PRIGROUP_Msk)); /* clear bits to change               */
 800196c:	f423 63e0 	bic.w	r3, r3, #1792	; 0x700
 8001970:	041b      	lsls	r3, r3, #16
 8001972:	0c1b      	lsrs	r3, r3, #16
  reg_value  =  (reg_value                                   |
                ((uint32_t)0x5FAUL << SCB_AIRCR_VECTKEY_Pos) |
                (PriorityGroupTmp << SCB_AIRCR_PRIGROUP_Pos)  );              /* Insert write key and priority group */
 8001974:	0200      	lsls	r0, r0, #8
 8001976:	f400 60e0 	and.w	r0, r0, #1792	; 0x700
                ((uint32_t)0x5FAUL << SCB_AIRCR_VECTKEY_Pos) |
 800197a:	4303      	orrs	r3, r0
  reg_value  =  (reg_value                                   |
 800197c:	f043 63bf 	orr.w	r3, r3, #100139008	; 0x5f80000
 8001980:	f443 3300 	orr.w	r3, r3, #131072	; 0x20000
  SCB->AIRCR =  reg_value;
 8001984:	60d3      	str	r3, [r2, #12]
  /* Check the parameters */
  assert_param(IS_NVIC_PRIORITY_GROUP(PriorityGroup));

  /* Set the PRIGROUP[10:8] bits according to the PriorityGroup parameter value */
  NVIC_SetPriorityGrouping(PriorityGroup);
}
 8001986:	4770      	bx	lr
 8001988:	e000ed00 	.word	0xe000ed00

0800198c <HAL_NVIC_SetPriority>:
  *         This parameter can be a value between 0 and 15
  *         A lower priority value indicates a higher priority.
  * @retval None
  */
void HAL_NVIC_SetPriority(IRQn_Type IRQn, uint32_t PreemptPriority, uint32_t SubPriority)
{
 800198c:	b500      	push	{lr}
  \details Reads the priority grouping field from the NVIC Interrupt Controller.
  \return                Priority grouping field (SCB->AIRCR [10:8] PRIGROUP field).
 */
__STATIC_INLINE uint32_t __NVIC_GetPriorityGrouping(void)
{
  return ((uint32_t)((SCB->AIRCR & SCB_AIRCR_PRIGROUP_Msk) >> SCB_AIRCR_PRIGROUP_Pos));
 800198e:	4b19      	ldr	r3, [pc, #100]	; (80019f4 <HAL_NVIC_SetPriority+0x68>)
 8001990:	68db      	ldr	r3, [r3, #12]
 8001992:	f3c3 2302 	ubfx	r3, r3, #8, #3
{
  uint32_t PriorityGroupTmp = (PriorityGroup & (uint32_t)0x07UL);   /* only values 0..7 are used          */
  uint32_t PreemptPriorityBits;
  uint32_t SubPriorityBits;

  PreemptPriorityBits = ((7UL - PriorityGroupTmp) > (uint32_t)(__NVIC_PRIO_BITS)) ? (uint32_t)(__NVIC_PRIO_BITS) : (uint32_t)(7UL - PriorityGroupTmp);
 8001996:	f1c3 0c07 	rsb	ip, r3, #7
 800199a:	f1bc 0f04 	cmp.w	ip, #4
 800199e:	bf28      	it	cs
 80019a0:	f04f 0c04 	movcs.w	ip, #4
  SubPriorityBits     = ((PriorityGroupTmp + (uint32_t)(__NVIC_PRIO_BITS)) < (uint32_t)7UL) ? (uint32_t)0UL : (uint32_t)((PriorityGroupTmp - 7UL) + (uint32_t)(__NVIC_PRIO_BITS));
 80019a4:	f103 0e04 	add.w	lr, r3, #4
 80019a8:	f1be 0f06 	cmp.w	lr, #6
 80019ac:	d918      	bls.n	80019e0 <HAL_NVIC_SetPriority+0x54>
 80019ae:	3b03      	subs	r3, #3

  return (
           ((PreemptPriority & (uint32_t)((1UL << (PreemptPriorityBits)) - 1UL)) << SubPriorityBits) |
 80019b0:	f04f 3eff 	mov.w	lr, #4294967295
 80019b4:	fa0e fc0c 	lsl.w	ip, lr, ip
 80019b8:	ea21 010c 	bic.w	r1, r1, ip
 80019bc:	4099      	lsls	r1, r3
           ((SubPriority     & (uint32_t)((1UL << (SubPriorityBits    )) - 1UL)))
 80019be:	fa0e fe03 	lsl.w	lr, lr, r3
 80019c2:	ea22 020e 	bic.w	r2, r2, lr
           ((PreemptPriority & (uint32_t)((1UL << (PreemptPriorityBits)) - 1UL)) << SubPriorityBits) |
 80019c6:	430a      	orrs	r2, r1
  if ((int32_t)(IRQn) >= 0)
 80019c8:	2800      	cmp	r0, #0
 80019ca:	db0b      	blt.n	80019e4 <HAL_NVIC_SetPriority+0x58>
    NVIC->IP[((uint32_t)IRQn)]               = (uint8_t)((priority << (8U - __NVIC_PRIO_BITS)) & (uint32_t)0xFFUL);
 80019cc:	0112      	lsls	r2, r2, #4
 80019ce:	b2d2      	uxtb	r2, r2
 80019d0:	f100 4060 	add.w	r0, r0, #3758096384	; 0xe0000000
 80019d4:	f500 4061 	add.w	r0, r0, #57600	; 0xe100
 80019d8:	f880 2300 	strb.w	r2, [r0, #768]	; 0x300
  assert_param(IS_NVIC_PREEMPTION_PRIORITY(PreemptPriority));

  prioritygroup = NVIC_GetPriorityGrouping();

  NVIC_SetPriority(IRQn, NVIC_EncodePriority(prioritygroup, PreemptPriority, SubPriority));
}
 80019dc:	f85d fb04 	ldr.w	pc, [sp], #4
  SubPriorityBits     = ((PriorityGroupTmp + (uint32_t)(__NVIC_PRIO_BITS)) < (uint32_t)7UL) ? (uint32_t)0UL : (uint32_t)((PriorityGroupTmp - 7UL) + (uint32_t)(__NVIC_PRIO_BITS));
 80019e0:	2300      	movs	r3, #0
 80019e2:	e7e5      	b.n	80019b0 <HAL_NVIC_SetPriority+0x24>
    SCB->SHP[(((uint32_t)IRQn) & 0xFUL)-4UL] = (uint8_t)((priority << (8U - __NVIC_PRIO_BITS)) & (uint32_t)0xFFUL);
 80019e4:	f000 000f 	and.w	r0, r0, #15
 80019e8:	0112      	lsls	r2, r2, #4
 80019ea:	b2d2      	uxtb	r2, r2
 80019ec:	4b02      	ldr	r3, [pc, #8]	; (80019f8 <HAL_NVIC_SetPriority+0x6c>)
 80019ee:	541a      	strb	r2, [r3, r0]
 80019f0:	e7f4      	b.n	80019dc <HAL_NVIC_SetPriority+0x50>
 80019f2:	bf00      	nop
 80019f4:	e000ed00 	.word	0xe000ed00
 80019f8:	e000ed14 	.word	0xe000ed14

080019fc <HAL_NVIC_EnableIRQ>:
  if ((int32_t)(IRQn) >= 0)
 80019fc:	2800      	cmp	r0, #0
 80019fe:	db07      	blt.n	8001a10 <HAL_NVIC_EnableIRQ+0x14>
    NVIC->ISER[(((uint32_t)IRQn) >> 5UL)] = (uint32_t)(1UL << (((uint32_t)IRQn) & 0x1FUL));
 8001a00:	f000 021f 	and.w	r2, r0, #31
 8001a04:	0940      	lsrs	r0, r0, #5
 8001a06:	2301      	movs	r3, #1
 8001a08:	4093      	lsls	r3, r2
 8001a0a:	4a02      	ldr	r2, [pc, #8]	; (8001a14 <HAL_NVIC_EnableIRQ+0x18>)
 8001a0c:	f842 3020 	str.w	r3, [r2, r0, lsl #2]
  /* Check the parameters */
  assert_param(IS_NVIC_DEVICE_IRQ(IRQn));

  /* Enable interrupt */
  NVIC_EnableIRQ(IRQn);
}
 8001a10:	4770      	bx	lr
 8001a12:	bf00      	nop
 8001a14:	e000e100 	.word	0xe000e100

08001a18 <HAL_NVIC_DisableIRQ>:
  if ((int32_t)(IRQn) >= 0)
 8001a18:	2800      	cmp	r0, #0
 8001a1a:	db0c      	blt.n	8001a36 <HAL_NVIC_DisableIRQ+0x1e>
    NVIC->ICER[(((uint32_t)IRQn) >> 5UL)] = (uint32_t)(1UL << (((uint32_t)IRQn) & 0x1FUL));
 8001a1c:	f000 021f 	and.w	r2, r0, #31
 8001a20:	0940      	lsrs	r0, r0, #5
 8001a22:	2301      	movs	r3, #1
 8001a24:	4093      	lsls	r3, r2
 8001a26:	3020      	adds	r0, #32
 8001a28:	4a03      	ldr	r2, [pc, #12]	; (8001a38 <HAL_NVIC_DisableIRQ+0x20>)
 8001a2a:	f842 3020 	str.w	r3, [r2, r0, lsl #2]
  \details Acts as a special kind of Data Memory Barrier.
           It completes when all explicit memory accesses before this instruction complete.
 */
__STATIC_FORCEINLINE void __DSB(void)
{
  __ASM volatile ("dsb 0xF":::"memory");
 8001a2e:	f3bf 8f4f 	dsb	sy
  __ASM volatile ("isb 0xF":::"memory");
 8001a32:	f3bf 8f6f 	isb	sy
  /* Check the parameters */
  assert_param(IS_NVIC_DEVICE_IRQ(IRQn));

  /* Disable interrupt */
  NVIC_DisableIRQ(IRQn);
}
 8001a36:	4770      	bx	lr
 8001a38:	e000e100 	.word	0xe000e100

08001a3c <DMA_SetConfig>:
  * @param DstAddress The destination memory Buffer address
  * @param DataLength The length of data to be transferred from source to destination
  * @retval HAL status
  */
static void DMA_SetConfig(DMA_HandleTypeDef *hdma, uint32_t SrcAddress, uint32_t DstAddress, uint32_t DataLength)
{
 8001a3c:	b410      	push	{r4}
  /* Clear the DMAMUX synchro overrun flag */
  hdma->DMAmuxChannelStatus->CFR = hdma->DMAmuxChannelStatusMask;
 8001a3e:	6cc4      	ldr	r4, [r0, #76]	; 0x4c
 8001a40:	f8d0 c050 	ldr.w	ip, [r0, #80]	; 0x50
 8001a44:	f8c4 c004 	str.w	ip, [r4, #4]

  if (hdma->DMAmuxRequestGen != NULL)
 8001a48:	6d44      	ldr	r4, [r0, #84]	; 0x54
 8001a4a:	b124      	cbz	r4, 8001a56 <DMA_SetConfig+0x1a>
  {
    /* Clear the DMAMUX request generator overrun flag */
    hdma->DMAmuxRequestGenStatus->RGCFR = hdma->DMAmuxRequestGenStatusMask;
 8001a4c:	6d84      	ldr	r4, [r0, #88]	; 0x58
 8001a4e:	f8d0 c05c 	ldr.w	ip, [r0, #92]	; 0x5c
 8001a52:	f8c4 c004 	str.w	ip, [r4, #4]
  }

  /* Clear all flags */
  hdma->DmaBaseAddress->IFCR = (DMA_ISR_GIF1 << (hdma->ChannelIndex & 0x1CU));
 8001a56:	6c44      	ldr	r4, [r0, #68]	; 0x44
 8001a58:	f004 0c1c 	and.w	ip, r4, #28
 8001a5c:	2401      	movs	r4, #1
 8001a5e:	fa04 f40c 	lsl.w	r4, r4, ip
 8001a62:	f8d0 c040 	ldr.w	ip, [r0, #64]	; 0x40
 8001a66:	f8cc 4004 	str.w	r4, [ip, #4]

  /* Configure DMA Channel data length */
  hdma->Instance->CNDTR = DataLength;
 8001a6a:	6804      	ldr	r4, [r0, #0]
 8001a6c:	6063      	str	r3, [r4, #4]

  /* Memory to Peripheral */
  if ((hdma->Init.Direction) == DMA_MEMORY_TO_PERIPH)
 8001a6e:	6883      	ldr	r3, [r0, #8]
 8001a70:	2b10      	cmp	r3, #16
 8001a72:	d005      	beq.n	8001a80 <DMA_SetConfig+0x44>
  }
  /* Peripheral to Memory */
  else
  {
    /* Configure DMA Channel source address */
    hdma->Instance->CPAR = SrcAddress;
 8001a74:	6803      	ldr	r3, [r0, #0]
 8001a76:	6099      	str	r1, [r3, #8]

    /* Configure DMA Channel destination address */
    hdma->Instance->CMAR = DstAddress;
 8001a78:	6803      	ldr	r3, [r0, #0]
 8001a7a:	60da      	str	r2, [r3, #12]
  }
}
 8001a7c:	bc10      	pop	{r4}
 8001a7e:	4770      	bx	lr
    hdma->Instance->CPAR = DstAddress;
 8001a80:	6803      	ldr	r3, [r0, #0]
 8001a82:	609a      	str	r2, [r3, #8]
    hdma->Instance->CMAR = SrcAddress;
 8001a84:	6803      	ldr	r3, [r0, #0]
 8001a86:	60d9      	str	r1, [r3, #12]
 8001a88:	e7f8      	b.n	8001a7c <DMA_SetConfig+0x40>
	...

08001a8c <DMA_CalcDMAMUXChannelBaseAndMask>:
static void DMA_CalcDMAMUXChannelBaseAndMask(DMA_HandleTypeDef *hdma)
{
  uint32_t channel_number;

  /* check if instance is not outside the DMA channel range */
  if ((uint32_t)hdma->Instance < (uint32_t)DMA2_Channel1)
 8001a8c:	6803      	ldr	r3, [r0, #0]
 8001a8e:	4a14      	ldr	r2, [pc, #80]	; (8001ae0 <DMA_CalcDMAMUXChannelBaseAndMask+0x54>)
 8001a90:	4293      	cmp	r3, r2
 8001a92:	d816      	bhi.n	8001ac2 <DMA_CalcDMAMUXChannelBaseAndMask+0x36>
  {
    /* DMA1 */
    /* Associate a DMA Channel to a DMAMUX channel */
    hdma->DMAmuxChannel = (DMAMUX1_Channel0 + (hdma->ChannelIndex >> 2U));
 8001a94:	6c42      	ldr	r2, [r0, #68]	; 0x44
 8001a96:	f022 0203 	bic.w	r2, r2, #3
 8001a9a:	f102 4280 	add.w	r2, r2, #1073741824	; 0x40000000
 8001a9e:	f502 3202 	add.w	r2, r2, #133120	; 0x20800
 8001aa2:	6482      	str	r2, [r0, #72]	; 0x48

    /* Prepare channel_number used for DMAmuxChannelStatusMask computation */
    channel_number = (((uint32_t)hdma->Instance & 0xFFU) - 8U) / 20U;
 8001aa4:	b2db      	uxtb	r3, r3
 8001aa6:	3b08      	subs	r3, #8
 8001aa8:	4a0e      	ldr	r2, [pc, #56]	; (8001ae4 <DMA_CalcDMAMUXChannelBaseAndMask+0x58>)
 8001aaa:	fba2 2303 	umull	r2, r3, r2, r3
 8001aae:	091b      	lsrs	r3, r3, #4
    /* Prepare channel_number used for DMAmuxChannelStatusMask computation */
    channel_number = (((((uint32_t)hdma->Instance & 0xFFU) - 8U) / 20U) + 7U);
  }

  /* Initialize the field DMAmuxChannelStatus to DMAMUX1_ChannelStatus base */
  hdma->DMAmuxChannelStatus = DMAMUX1_ChannelStatus;
 8001ab0:	4a0d      	ldr	r2, [pc, #52]	; (8001ae8 <DMA_CalcDMAMUXChannelBaseAndMask+0x5c>)
 8001ab2:	64c2      	str	r2, [r0, #76]	; 0x4c

  /* Initialize the field DMAmuxChannelStatusMask with the corresponding index of the DMAMUX channel selected for the current ChannelIndex */
  hdma->DMAmuxChannelStatusMask = 1UL << (channel_number & 0x1FU);
 8001ab4:	f003 031f 	and.w	r3, r3, #31
 8001ab8:	2201      	movs	r2, #1
 8001aba:	fa02 f303 	lsl.w	r3, r2, r3
 8001abe:	6503      	str	r3, [r0, #80]	; 0x50
}
 8001ac0:	4770      	bx	lr
    hdma->DMAmuxChannel = (DMAMUX1_Channel7 + (hdma->ChannelIndex >> 2U));
 8001ac2:	6c42      	ldr	r2, [r0, #68]	; 0x44
 8001ac4:	f022 0103 	bic.w	r1, r2, #3
 8001ac8:	4a08      	ldr	r2, [pc, #32]	; (8001aec <DMA_CalcDMAMUXChannelBaseAndMask+0x60>)
 8001aca:	440a      	add	r2, r1
 8001acc:	6482      	str	r2, [r0, #72]	; 0x48
    channel_number = (((((uint32_t)hdma->Instance & 0xFFU) - 8U) / 20U) + 7U);
 8001ace:	b2db      	uxtb	r3, r3
 8001ad0:	3b08      	subs	r3, #8
 8001ad2:	4a04      	ldr	r2, [pc, #16]	; (8001ae4 <DMA_CalcDMAMUXChannelBaseAndMask+0x58>)
 8001ad4:	fba2 2303 	umull	r2, r3, r2, r3
 8001ad8:	091b      	lsrs	r3, r3, #4
 8001ada:	3307      	adds	r3, #7
 8001adc:	e7e8      	b.n	8001ab0 <DMA_CalcDMAMUXChannelBaseAndMask+0x24>
 8001ade:	bf00      	nop
 8001ae0:	40020407 	.word	0x40020407
 8001ae4:	cccccccd 	.word	0xcccccccd
 8001ae8:	40020880 	.word	0x40020880
 8001aec:	4002081c 	.word	0x4002081c

08001af0 <DMA_CalcDMAMUXRequestGenBaseAndMask>:
  * @retval None
  */

static void DMA_CalcDMAMUXRequestGenBaseAndMask(DMA_HandleTypeDef *hdma)
{
  uint32_t request =  hdma->Init.Request & DMAMUX_CxCR_DMAREQ_ID;
 8001af0:	6843      	ldr	r3, [r0, #4]
 8001af2:	f003 037f 	and.w	r3, r3, #127	; 0x7f

  /* DMA Channels are connected to DMAMUX1 request generator blocks*/
  hdma->DMAmuxRequestGen = (DMAMUX_RequestGen_TypeDef *)((uint32_t)(((uint32_t)DMAMUX1_RequestGenerator0) + ((request - 1U) * 4U)));
 8001af6:	4a07      	ldr	r2, [pc, #28]	; (8001b14 <DMA_CalcDMAMUXRequestGenBaseAndMask+0x24>)
 8001af8:	441a      	add	r2, r3
 8001afa:	0092      	lsls	r2, r2, #2
 8001afc:	6542      	str	r2, [r0, #84]	; 0x54

  hdma->DMAmuxRequestGenStatus = DMAMUX1_RequestGenStatus;
 8001afe:	4a06      	ldr	r2, [pc, #24]	; (8001b18 <DMA_CalcDMAMUXRequestGenBaseAndMask+0x28>)
 8001b00:	6582      	str	r2, [r0, #88]	; 0x58

  /* here "Request" is either DMA_REQUEST_GENERATOR0 to DMA_REQUEST_GENERATOR3, i.e. <= 4*/
  hdma->DMAmuxRequestGenStatusMask = 1UL << ((request - 1U) & 0x3U);
 8001b02:	3b01      	subs	r3, #1
 8001b04:	f003 0303 	and.w	r3, r3, #3
 8001b08:	2201      	movs	r2, #1
 8001b0a:	fa02 f303 	lsl.w	r3, r2, r3
 8001b0e:	65c3      	str	r3, [r0, #92]	; 0x5c
}
 8001b10:	4770      	bx	lr
 8001b12:	bf00      	nop
 8001b14:	1000823f 	.word	0x1000823f
 8001b18:	40020940 	.word	0x40020940

08001b1c <HAL_DMA_Init>:
  if (hdma == NULL)
 8001b1c:	2800      	cmp	r0, #0
 8001b1e:	d060      	beq.n	8001be2 <HAL_DMA_Init+0xc6>
{
 8001b20:	b510      	push	{r4, lr}
 8001b22:	4604      	mov	r4, r0
  if ((uint32_t)(hdma->Instance) < (uint32_t)(DMA2_Channel1))
 8001b24:	6802      	ldr	r2, [r0, #0]
 8001b26:	4b30      	ldr	r3, [pc, #192]	; (8001be8 <HAL_DMA_Init+0xcc>)
 8001b28:	429a      	cmp	r2, r3
 8001b2a:	d842      	bhi.n	8001bb2 <HAL_DMA_Init+0x96>
    hdma->ChannelIndex = (((uint32_t)hdma->Instance - (uint32_t)DMA1_Channel1) / ((uint32_t)DMA1_Channel2 - (uint32_t)DMA1_Channel1)) << 2U;
 8001b2c:	4b2f      	ldr	r3, [pc, #188]	; (8001bec <HAL_DMA_Init+0xd0>)
 8001b2e:	4413      	add	r3, r2
 8001b30:	492f      	ldr	r1, [pc, #188]	; (8001bf0 <HAL_DMA_Init+0xd4>)
 8001b32:	fba1 1303 	umull	r1, r3, r1, r3
 8001b36:	091b      	lsrs	r3, r3, #4
 8001b38:	009b      	lsls	r3, r3, #2
 8001b3a:	6443      	str	r3, [r0, #68]	; 0x44
    hdma->DmaBaseAddress = DMA1;
 8001b3c:	4b2d      	ldr	r3, [pc, #180]	; (8001bf4 <HAL_DMA_Init+0xd8>)
 8001b3e:	6403      	str	r3, [r0, #64]	; 0x40
  hdma->State = HAL_DMA_STATE_BUSY;
 8001b40:	2302      	movs	r3, #2
 8001b42:	f884 3025 	strb.w	r3, [r4, #37]	; 0x25
  CLEAR_BIT(hdma->Instance->CCR, (DMA_CCR_PL    | DMA_CCR_MSIZE  | DMA_CCR_PSIZE  | \
 8001b46:	6813      	ldr	r3, [r2, #0]
 8001b48:	f423 43ff 	bic.w	r3, r3, #32640	; 0x7f80
 8001b4c:	f023 0370 	bic.w	r3, r3, #112	; 0x70
 8001b50:	6013      	str	r3, [r2, #0]
  SET_BIT(hdma->Instance->CCR, (hdma->Init.Direction           |                               \
 8001b52:	6821      	ldr	r1, [r4, #0]
 8001b54:	680a      	ldr	r2, [r1, #0]
 8001b56:	68a3      	ldr	r3, [r4, #8]
 8001b58:	68e0      	ldr	r0, [r4, #12]
 8001b5a:	4303      	orrs	r3, r0
 8001b5c:	6920      	ldr	r0, [r4, #16]
 8001b5e:	4303      	orrs	r3, r0
 8001b60:	6960      	ldr	r0, [r4, #20]
 8001b62:	4303      	orrs	r3, r0
 8001b64:	69a0      	ldr	r0, [r4, #24]
 8001b66:	4303      	orrs	r3, r0
 8001b68:	69e0      	ldr	r0, [r4, #28]
 8001b6a:	4303      	orrs	r3, r0
 8001b6c:	6a20      	ldr	r0, [r4, #32]
 8001b6e:	4303      	orrs	r3, r0
 8001b70:	4313      	orrs	r3, r2
 8001b72:	600b      	str	r3, [r1, #0]
  DMA_CalcDMAMUXChannelBaseAndMask(hdma);
 8001b74:	4620      	mov	r0, r4
 8001b76:	f7ff ff89 	bl	8001a8c <DMA_CalcDMAMUXChannelBaseAndMask>
  if (hdma->Init.Direction == DMA_MEMORY_TO_MEMORY)
 8001b7a:	68a3      	ldr	r3, [r4, #8]
 8001b7c:	f5b3 4f80 	cmp.w	r3, #16384	; 0x4000
 8001b80:	d022      	beq.n	8001bc8 <HAL_DMA_Init+0xac>
  hdma->DMAmuxChannel->CCR = (hdma->Init.Request & DMAMUX_CxCR_DMAREQ_ID);
 8001b82:	6863      	ldr	r3, [r4, #4]
 8001b84:	6ca2      	ldr	r2, [r4, #72]	; 0x48
 8001b86:	f003 037f 	and.w	r3, r3, #127	; 0x7f
 8001b8a:	6013      	str	r3, [r2, #0]
  hdma->DMAmuxChannelStatus->CFR = hdma->DMAmuxChannelStatusMask;
 8001b8c:	6ce3      	ldr	r3, [r4, #76]	; 0x4c
 8001b8e:	6d22      	ldr	r2, [r4, #80]	; 0x50
 8001b90:	605a      	str	r2, [r3, #4]
  if (((hdma->Init.Request >  0UL) && (hdma->Init.Request <= DMA_REQUEST_GENERATOR3)))
 8001b92:	6863      	ldr	r3, [r4, #4]
 8001b94:	3b01      	subs	r3, #1
 8001b96:	2b03      	cmp	r3, #3
 8001b98:	d919      	bls.n	8001bce <HAL_DMA_Init+0xb2>
    hdma->DMAmuxRequestGen = NULL;
 8001b9a:	2300      	movs	r3, #0
 8001b9c:	6563      	str	r3, [r4, #84]	; 0x54
    hdma->DMAmuxRequestGenStatus = NULL;
 8001b9e:	65a3      	str	r3, [r4, #88]	; 0x58
    hdma->DMAmuxRequestGenStatusMask = 0U;
 8001ba0:	65e3      	str	r3, [r4, #92]	; 0x5c
  hdma->ErrorCode = HAL_DMA_ERROR_NONE;
 8001ba2:	2000      	movs	r0, #0
 8001ba4:	63e0      	str	r0, [r4, #60]	; 0x3c
  hdma->State = HAL_DMA_STATE_READY;
 8001ba6:	2301      	movs	r3, #1
 8001ba8:	f884 3025 	strb.w	r3, [r4, #37]	; 0x25
  __HAL_UNLOCK(hdma);
 8001bac:	f884 0024 	strb.w	r0, [r4, #36]	; 0x24
}
 8001bb0:	bd10      	pop	{r4, pc}
    hdma->ChannelIndex = (((uint32_t)hdma->Instance - (uint32_t)DMA2_Channel1) / ((uint32_t)DMA2_Channel2 - (uint32_t)DMA2_Channel1)) << 2U;
 8001bb2:	4b11      	ldr	r3, [pc, #68]	; (8001bf8 <HAL_DMA_Init+0xdc>)
 8001bb4:	4413      	add	r3, r2
 8001bb6:	490e      	ldr	r1, [pc, #56]	; (8001bf0 <HAL_DMA_Init+0xd4>)
 8001bb8:	fba1 1303 	umull	r1, r3, r1, r3
 8001bbc:	091b      	lsrs	r3, r3, #4
 8001bbe:	009b      	lsls	r3, r3, #2
 8001bc0:	6443      	str	r3, [r0, #68]	; 0x44
    hdma->DmaBaseAddress = DMA2;
 8001bc2:	4b0e      	ldr	r3, [pc, #56]	; (8001bfc <HAL_DMA_Init+0xe0>)
 8001bc4:	6403      	str	r3, [r0, #64]	; 0x40
 8001bc6:	e7bb      	b.n	8001b40 <HAL_DMA_Init+0x24>
    hdma->Init.Request = DMA_REQUEST_MEM2MEM;
 8001bc8:	2300      	movs	r3, #0
 8001bca:	6063      	str	r3, [r4, #4]
 8001bcc:	e7d9      	b.n	8001b82 <HAL_DMA_Init+0x66>
    DMA_CalcDMAMUXRequestGenBaseAndMask(hdma);
 8001bce:	4620      	mov	r0, r4
 8001bd0:	f7ff ff8e 	bl	8001af0 <DMA_CalcDMAMUXRequestGenBaseAndMask>
    hdma->DMAmuxRequestGen->RGCR = 0U;
 8001bd4:	6d63      	ldr	r3, [r4, #84]	; 0x54
 8001bd6:	2200      	movs	r2, #0
 8001bd8:	601a      	str	r2, [r3, #0]
    hdma->DMAmuxRequestGenStatus->RGCFR = hdma->DMAmuxRequestGenStatusMask;
 8001bda:	6da3      	ldr	r3, [r4, #88]	; 0x58
 8001bdc:	6de2      	ldr	r2, [r4, #92]	; 0x5c
 8001bde:	605a      	str	r2, [r3, #4]
 8001be0:	e7df      	b.n	8001ba2 <HAL_DMA_Init+0x86>
    return HAL_ERROR;
 8001be2:	2001      	movs	r0, #1
}
 8001be4:	4770      	bx	lr
 8001be6:	bf00      	nop
 8001be8:	40020407 	.word	0x40020407
 8001bec:	bffdfff8 	.word	0xbffdfff8
 8001bf0:	cccccccd 	.word	0xcccccccd
 8001bf4:	40020000 	.word	0x40020000
 8001bf8:	bffdfbf8 	.word	0xbffdfbf8
 8001bfc:	40020400 	.word	0x40020400

08001c00 <HAL_DMA_DeInit>:
  if (NULL == hdma)
 8001c00:	2800      	cmp	r0, #0
 8001c02:	d04b      	beq.n	8001c9c <HAL_DMA_DeInit+0x9c>
{
 8001c04:	b538      	push	{r3, r4, r5, lr}
 8001c06:	4604      	mov	r4, r0
  __HAL_DMA_DISABLE(hdma);
 8001c08:	6802      	ldr	r2, [r0, #0]
 8001c0a:	6813      	ldr	r3, [r2, #0]
 8001c0c:	f023 0301 	bic.w	r3, r3, #1
 8001c10:	6013      	str	r3, [r2, #0]
  if ((uint32_t)(hdma->Instance) < (uint32_t)(DMA2_Channel1))
 8001c12:	6802      	ldr	r2, [r0, #0]
 8001c14:	4b22      	ldr	r3, [pc, #136]	; (8001ca0 <HAL_DMA_DeInit+0xa0>)
 8001c16:	429a      	cmp	r2, r3
 8001c18:	d82c      	bhi.n	8001c74 <HAL_DMA_DeInit+0x74>
    hdma->ChannelIndex = (((uint32_t)hdma->Instance - (uint32_t)DMA1_Channel1) / ((uint32_t)DMA1_Channel2 - (uint32_t)DMA1_Channel1)) << 2U;
 8001c1a:	4b22      	ldr	r3, [pc, #136]	; (8001ca4 <HAL_DMA_DeInit+0xa4>)
 8001c1c:	4413      	add	r3, r2
 8001c1e:	4922      	ldr	r1, [pc, #136]	; (8001ca8 <HAL_DMA_DeInit+0xa8>)
 8001c20:	fba1 1303 	umull	r1, r3, r1, r3
 8001c24:	091b      	lsrs	r3, r3, #4
 8001c26:	009b      	lsls	r3, r3, #2
 8001c28:	6443      	str	r3, [r0, #68]	; 0x44
    hdma->DmaBaseAddress = DMA1;
 8001c2a:	4b20      	ldr	r3, [pc, #128]	; (8001cac <HAL_DMA_DeInit+0xac>)
 8001c2c:	6403      	str	r3, [r0, #64]	; 0x40
  hdma->Instance->CCR = 0U;
 8001c2e:	2500      	movs	r5, #0
 8001c30:	6015      	str	r5, [r2, #0]
  hdma->DmaBaseAddress->IFCR = (DMA_ISR_GIF1 << (hdma->ChannelIndex & 0x1CU));
 8001c32:	6c63      	ldr	r3, [r4, #68]	; 0x44
 8001c34:	f003 021c 	and.w	r2, r3, #28
 8001c38:	6c21      	ldr	r1, [r4, #64]	; 0x40
 8001c3a:	2301      	movs	r3, #1
 8001c3c:	4093      	lsls	r3, r2
 8001c3e:	604b      	str	r3, [r1, #4]
  DMA_CalcDMAMUXChannelBaseAndMask(hdma);
 8001c40:	4620      	mov	r0, r4
 8001c42:	f7ff ff23 	bl	8001a8c <DMA_CalcDMAMUXChannelBaseAndMask>
  hdma->DMAmuxChannel->CCR = 0U;
 8001c46:	6ca3      	ldr	r3, [r4, #72]	; 0x48
 8001c48:	601d      	str	r5, [r3, #0]
  hdma->DMAmuxChannelStatus->CFR = hdma->DMAmuxChannelStatusMask;
 8001c4a:	6ce3      	ldr	r3, [r4, #76]	; 0x4c
 8001c4c:	6d22      	ldr	r2, [r4, #80]	; 0x50
 8001c4e:	605a      	str	r2, [r3, #4]
  if (((hdma->Init.Request >  0UL) && (hdma->Init.Request <= DMA_REQUEST_GENERATOR3)))
 8001c50:	6863      	ldr	r3, [r4, #4]
 8001c52:	3b01      	subs	r3, #1
 8001c54:	2b03      	cmp	r3, #3
 8001c56:	d918      	bls.n	8001c8a <HAL_DMA_DeInit+0x8a>
  hdma->DMAmuxRequestGen = NULL;
 8001c58:	2000      	movs	r0, #0
 8001c5a:	6560      	str	r0, [r4, #84]	; 0x54
  hdma->DMAmuxRequestGenStatus = NULL;
 8001c5c:	65a0      	str	r0, [r4, #88]	; 0x58
  hdma->DMAmuxRequestGenStatusMask = 0U;
 8001c5e:	65e0      	str	r0, [r4, #92]	; 0x5c
  hdma->XferCpltCallback = NULL;
 8001c60:	62e0      	str	r0, [r4, #44]	; 0x2c
  hdma->XferHalfCpltCallback = NULL;
 8001c62:	6320      	str	r0, [r4, #48]	; 0x30
  hdma->XferErrorCallback = NULL;
 8001c64:	6360      	str	r0, [r4, #52]	; 0x34
  hdma->XferAbortCallback = NULL;
 8001c66:	63a0      	str	r0, [r4, #56]	; 0x38
  hdma->ErrorCode = HAL_DMA_ERROR_NONE;
 8001c68:	63e0      	str	r0, [r4, #60]	; 0x3c
  hdma->State = HAL_DMA_STATE_RESET;
 8001c6a:	f884 0025 	strb.w	r0, [r4, #37]	; 0x25
  __HAL_UNLOCK(hdma);
 8001c6e:	f884 0024 	strb.w	r0, [r4, #36]	; 0x24
}
 8001c72:	bd38      	pop	{r3, r4, r5, pc}
    hdma->ChannelIndex = (((uint32_t)hdma->Instance - (uint32_t)DMA2_Channel1) / ((uint32_t)DMA2_Channel2 - (uint32_t)DMA2_Channel1)) << 2U;
 8001c74:	4b0e      	ldr	r3, [pc, #56]	; (8001cb0 <HAL_DMA_DeInit+0xb0>)
 8001c76:	4413      	add	r3, r2
 8001c78:	490b      	ldr	r1, [pc, #44]	; (8001ca8 <HAL_DMA_DeInit+0xa8>)
 8001c7a:	fba1 1303 	umull	r1, r3, r1, r3
 8001c7e:	091b      	lsrs	r3, r3, #4
 8001c80:	009b      	lsls	r3, r3, #2
 8001c82:	6443      	str	r3, [r0, #68]	; 0x44
    hdma->DmaBaseAddress = DMA2;
 8001c84:	4b0b      	ldr	r3, [pc, #44]	; (8001cb4 <HAL_DMA_DeInit+0xb4>)
 8001c86:	6403      	str	r3, [r0, #64]	; 0x40
 8001c88:	e7d1      	b.n	8001c2e <HAL_DMA_DeInit+0x2e>
    DMA_CalcDMAMUXRequestGenBaseAndMask(hdma);
 8001c8a:	4620      	mov	r0, r4
 8001c8c:	f7ff ff30 	bl	8001af0 <DMA_CalcDMAMUXRequestGenBaseAndMask>
    hdma->DMAmuxRequestGen->RGCR = 0U;
 8001c90:	6d63      	ldr	r3, [r4, #84]	; 0x54
 8001c92:	601d      	str	r5, [r3, #0]
    hdma->DMAmuxRequestGenStatus->RGCFR = hdma->DMAmuxRequestGenStatusMask;
 8001c94:	6da3      	ldr	r3, [r4, #88]	; 0x58
 8001c96:	6de2      	ldr	r2, [r4, #92]	; 0x5c
 8001c98:	605a      	str	r2, [r3, #4]
 8001c9a:	e7dd      	b.n	8001c58 <HAL_DMA_DeInit+0x58>
    return HAL_ERROR;
 8001c9c:	2001      	movs	r0, #1
}
 8001c9e:	4770      	bx	lr
 8001ca0:	40020407 	.word	0x40020407
 8001ca4:	bffdfff8 	.word	0xbffdfff8
 8001ca8:	cccccccd 	.word	0xcccccccd
 8001cac:	40020000 	.word	0x40020000
 8001cb0:	bffdfbf8 	.word	0xbffdfbf8
 8001cb4:	40020400 	.word	0x40020400

08001cb8 <HAL_DMA_Start_IT>:
{
 8001cb8:	b538      	push	{r3, r4, r5, lr}
 8001cba:	4604      	mov	r4, r0
  __HAL_LOCK(hdma);
 8001cbc:	f890 0024 	ldrb.w	r0, [r0, #36]	; 0x24
 8001cc0:	2801      	cmp	r0, #1
 8001cc2:	d043      	beq.n	8001d4c <HAL_DMA_Start_IT+0x94>
 8001cc4:	2001      	movs	r0, #1
 8001cc6:	f884 0024 	strb.w	r0, [r4, #36]	; 0x24
  if (hdma->State == HAL_DMA_STATE_READY)
 8001cca:	f894 0025 	ldrb.w	r0, [r4, #37]	; 0x25
 8001cce:	b2c0      	uxtb	r0, r0
 8001cd0:	2801      	cmp	r0, #1
 8001cd2:	d006      	beq.n	8001ce2 <HAL_DMA_Start_IT+0x2a>
    hdma->ErrorCode = HAL_DMA_ERROR_BUSY;
 8001cd4:	2380      	movs	r3, #128	; 0x80
 8001cd6:	63e3      	str	r3, [r4, #60]	; 0x3c
    __HAL_UNLOCK(hdma);
 8001cd8:	2300      	movs	r3, #0
 8001cda:	f884 3024 	strb.w	r3, [r4, #36]	; 0x24
    status = HAL_ERROR;
 8001cde:	2001      	movs	r0, #1
}
 8001ce0:	bd38      	pop	{r3, r4, r5, pc}
    hdma->State = HAL_DMA_STATE_BUSY;
 8001ce2:	2002      	movs	r0, #2
 8001ce4:	f884 0025 	strb.w	r0, [r4, #37]	; 0x25
    hdma->ErrorCode = HAL_DMA_ERROR_NONE;
 8001ce8:	2000      	movs	r0, #0
 8001cea:	63e0      	str	r0, [r4, #60]	; 0x3c
    __HAL_DMA_DISABLE(hdma);
 8001cec:	6825      	ldr	r5, [r4, #0]
 8001cee:	6828      	ldr	r0, [r5, #0]
 8001cf0:	f020 0001 	bic.w	r0, r0, #1
 8001cf4:	6028      	str	r0, [r5, #0]
    DMA_SetConfig(hdma, SrcAddress, DstAddress, DataLength);
 8001cf6:	4620      	mov	r0, r4
 8001cf8:	f7ff fea0 	bl	8001a3c <DMA_SetConfig>
    if (NULL != hdma->XferHalfCpltCallback)
 8001cfc:	6b23      	ldr	r3, [r4, #48]	; 0x30
 8001cfe:	b1d3      	cbz	r3, 8001d36 <HAL_DMA_Start_IT+0x7e>
      __HAL_DMA_ENABLE_IT(hdma, (DMA_IT_TC | DMA_IT_HT | DMA_IT_TE));
 8001d00:	6822      	ldr	r2, [r4, #0]
 8001d02:	6813      	ldr	r3, [r2, #0]
 8001d04:	f043 030e 	orr.w	r3, r3, #14
 8001d08:	6013      	str	r3, [r2, #0]
    if ((hdma->DMAmuxChannel->CCR & DMAMUX_CxCR_SE) != 0U)
 8001d0a:	6ca3      	ldr	r3, [r4, #72]	; 0x48
 8001d0c:	681a      	ldr	r2, [r3, #0]
 8001d0e:	f412 3f80 	tst.w	r2, #65536	; 0x10000
 8001d12:	d003      	beq.n	8001d1c <HAL_DMA_Start_IT+0x64>
      hdma->DMAmuxChannel->CCR |= DMAMUX_CxCR_SOIE;
 8001d14:	681a      	ldr	r2, [r3, #0]
 8001d16:	f442 7280 	orr.w	r2, r2, #256	; 0x100
 8001d1a:	601a      	str	r2, [r3, #0]
    if (hdma->DMAmuxRequestGen != NULL)
 8001d1c:	6d63      	ldr	r3, [r4, #84]	; 0x54
 8001d1e:	b11b      	cbz	r3, 8001d28 <HAL_DMA_Start_IT+0x70>
      hdma->DMAmuxRequestGen->RGCR |= DMAMUX_RGxCR_OIE;
 8001d20:	681a      	ldr	r2, [r3, #0]
 8001d22:	f442 7280 	orr.w	r2, r2, #256	; 0x100
 8001d26:	601a      	str	r2, [r3, #0]
    __HAL_DMA_ENABLE(hdma);
 8001d28:	6822      	ldr	r2, [r4, #0]
 8001d2a:	6813      	ldr	r3, [r2, #0]
 8001d2c:	f043 0301 	orr.w	r3, r3, #1
 8001d30:	6013      	str	r3, [r2, #0]
  HAL_StatusTypeDef status = HAL_OK;
 8001d32:	2000      	movs	r0, #0
 8001d34:	e7d4      	b.n	8001ce0 <HAL_DMA_Start_IT+0x28>
      __HAL_DMA_DISABLE_IT(hdma, DMA_IT_HT);
 8001d36:	6822      	ldr	r2, [r4, #0]
 8001d38:	6813      	ldr	r3, [r2, #0]
 8001d3a:	f023 0304 	bic.w	r3, r3, #4
 8001d3e:	6013      	str	r3, [r2, #0]
      __HAL_DMA_ENABLE_IT(hdma, (DMA_IT_TC | DMA_IT_TE));
 8001d40:	6822      	ldr	r2, [r4, #0]
 8001d42:	6813      	ldr	r3, [r2, #0]
 8001d44:	f043 030a 	orr.w	r3, r3, #10
 8001d48:	6013      	str	r3, [r2, #0]
 8001d4a:	e7de      	b.n	8001d0a <HAL_DMA_Start_IT+0x52>
  __HAL_LOCK(hdma);
 8001d4c:	2002      	movs	r0, #2
 8001d4e:	e7c7      	b.n	8001ce0 <HAL_DMA_Start_IT+0x28>

08001d50 <HAL_DMA_Abort>:
  if (NULL == hdma)
 8001d50:	4603      	mov	r3, r0
 8001d52:	2800      	cmp	r0, #0
 8001d54:	d034      	beq.n	8001dc0 <HAL_DMA_Abort+0x70>
  if (hdma->State != HAL_DMA_STATE_BUSY)
 8001d56:	f890 2025 	ldrb.w	r2, [r0, #37]	; 0x25
 8001d5a:	b2d2      	uxtb	r2, r2
 8001d5c:	2a02      	cmp	r2, #2
 8001d5e:	d006      	beq.n	8001d6e <HAL_DMA_Abort+0x1e>
    hdma->ErrorCode = HAL_DMA_ERROR_NO_XFER;
 8001d60:	2204      	movs	r2, #4
 8001d62:	63c2      	str	r2, [r0, #60]	; 0x3c
    __HAL_UNLOCK(hdma);
 8001d64:	2200      	movs	r2, #0
 8001d66:	f880 2024 	strb.w	r2, [r0, #36]	; 0x24
    return HAL_ERROR;
 8001d6a:	2001      	movs	r0, #1
 8001d6c:	4770      	bx	lr
    __HAL_DMA_DISABLE_IT(hdma, (DMA_IT_TC | DMA_IT_HT | DMA_IT_TE));
 8001d6e:	6801      	ldr	r1, [r0, #0]
 8001d70:	680a      	ldr	r2, [r1, #0]
 8001d72:	f022 020e 	bic.w	r2, r2, #14
 8001d76:	600a      	str	r2, [r1, #0]
    hdma->DMAmuxChannel->CCR &= ~DMAMUX_CxCR_SOIE;
 8001d78:	6c81      	ldr	r1, [r0, #72]	; 0x48
 8001d7a:	680a      	ldr	r2, [r1, #0]
 8001d7c:	f422 7280 	bic.w	r2, r2, #256	; 0x100
 8001d80:	600a      	str	r2, [r1, #0]
    __HAL_DMA_DISABLE(hdma);
 8001d82:	6801      	ldr	r1, [r0, #0]
 8001d84:	680a      	ldr	r2, [r1, #0]
 8001d86:	f022 0201 	bic.w	r2, r2, #1
 8001d8a:	600a      	str	r2, [r1, #0]
    hdma->DmaBaseAddress->IFCR = (DMA_ISR_GIF1 << (hdma->ChannelIndex & 0x1CU));
 8001d8c:	6c42      	ldr	r2, [r0, #68]	; 0x44
 8001d8e:	f002 011c 	and.w	r1, r2, #28
 8001d92:	6c00      	ldr	r0, [r0, #64]	; 0x40
 8001d94:	2201      	movs	r2, #1
 8001d96:	408a      	lsls	r2, r1
 8001d98:	6042      	str	r2, [r0, #4]
    hdma->DMAmuxChannelStatus->CFR = hdma->DMAmuxChannelStatusMask;
 8001d9a:	6cda      	ldr	r2, [r3, #76]	; 0x4c
 8001d9c:	6d19      	ldr	r1, [r3, #80]	; 0x50
 8001d9e:	6051      	str	r1, [r2, #4]
    if (hdma->DMAmuxRequestGen != NULL)
 8001da0:	6d5a      	ldr	r2, [r3, #84]	; 0x54
 8001da2:	b132      	cbz	r2, 8001db2 <HAL_DMA_Abort+0x62>
      hdma->DMAmuxRequestGen->RGCR &= ~DMAMUX_RGxCR_OIE;
 8001da4:	6811      	ldr	r1, [r2, #0]
 8001da6:	f421 7180 	bic.w	r1, r1, #256	; 0x100
 8001daa:	6011      	str	r1, [r2, #0]
      hdma->DMAmuxRequestGenStatus->RGCFR = hdma->DMAmuxRequestGenStatusMask;
 8001dac:	6d9a      	ldr	r2, [r3, #88]	; 0x58
 8001dae:	6dd9      	ldr	r1, [r3, #92]	; 0x5c
 8001db0:	6051      	str	r1, [r2, #4]
    hdma->State = HAL_DMA_STATE_READY;
 8001db2:	2201      	movs	r2, #1
 8001db4:	f883 2025 	strb.w	r2, [r3, #37]	; 0x25
    __HAL_UNLOCK(hdma);
 8001db8:	2000      	movs	r0, #0
 8001dba:	f883 0024 	strb.w	r0, [r3, #36]	; 0x24
  return HAL_OK;
 8001dbe:	4770      	bx	lr
    return HAL_ERROR;
 8001dc0:	2001      	movs	r0, #1
}
 8001dc2:	4770      	bx	lr

08001dc4 <HAL_DMA_Abort_IT>:
{
 8001dc4:	b508      	push	{r3, lr}
  if (hdma->State != HAL_DMA_STATE_BUSY)
 8001dc6:	f890 3025 	ldrb.w	r3, [r0, #37]	; 0x25
 8001dca:	b2db      	uxtb	r3, r3
 8001dcc:	2b02      	cmp	r3, #2
 8001dce:	d003      	beq.n	8001dd8 <HAL_DMA_Abort_IT+0x14>
    hdma->ErrorCode = HAL_DMA_ERROR_NO_XFER;
 8001dd0:	2304      	movs	r3, #4
 8001dd2:	63c3      	str	r3, [r0, #60]	; 0x3c
    status = HAL_ERROR;
 8001dd4:	2001      	movs	r0, #1
}
 8001dd6:	bd08      	pop	{r3, pc}
    __HAL_DMA_DISABLE_IT(hdma, (DMA_IT_TC | DMA_IT_HT | DMA_IT_TE));
 8001dd8:	6802      	ldr	r2, [r0, #0]
 8001dda:	6813      	ldr	r3, [r2, #0]
 8001ddc:	f023 030e 	bic.w	r3, r3, #14
 8001de0:	6013      	str	r3, [r2, #0]
    __HAL_DMA_DISABLE(hdma);
 8001de2:	6802      	ldr	r2, [r0, #0]
 8001de4:	6813      	ldr	r3, [r2, #0]
 8001de6:	f023 0301 	bic.w	r3, r3, #1
 8001dea:	6013      	str	r3, [r2, #0]
    hdma->DMAmuxChannel->CCR &= ~DMAMUX_CxCR_SOIE;
 8001dec:	6c82      	ldr	r2, [r0, #72]	; 0x48
 8001dee:	6813      	ldr	r3, [r2, #0]
 8001df0:	f423 7380 	bic.w	r3, r3, #256	; 0x100
 8001df4:	6013      	str	r3, [r2, #0]
    hdma->DmaBaseAddress->IFCR = (DMA_ISR_GIF1 << (hdma->ChannelIndex & 0x1CU));
 8001df6:	6c43      	ldr	r3, [r0, #68]	; 0x44
 8001df8:	f003 021c 	and.w	r2, r3, #28
 8001dfc:	6c01      	ldr	r1, [r0, #64]	; 0x40
 8001dfe:	2301      	movs	r3, #1
 8001e00:	4093      	lsls	r3, r2
 8001e02:	604b      	str	r3, [r1, #4]
    hdma->DMAmuxChannelStatus->CFR = hdma->DMAmuxChannelStatusMask;
 8001e04:	6cc3      	ldr	r3, [r0, #76]	; 0x4c
 8001e06:	6d02      	ldr	r2, [r0, #80]	; 0x50
 8001e08:	605a      	str	r2, [r3, #4]
    if (hdma->DMAmuxRequestGen != NULL)
 8001e0a:	6d43      	ldr	r3, [r0, #84]	; 0x54
 8001e0c:	b133      	cbz	r3, 8001e1c <HAL_DMA_Abort_IT+0x58>
      hdma->DMAmuxRequestGen->RGCR &= ~DMAMUX_RGxCR_OIE;
 8001e0e:	681a      	ldr	r2, [r3, #0]
 8001e10:	f422 7280 	bic.w	r2, r2, #256	; 0x100
 8001e14:	601a      	str	r2, [r3, #0]
      hdma->DMAmuxRequestGenStatus->RGCFR = hdma->DMAmuxRequestGenStatusMask;
 8001e16:	6d83      	ldr	r3, [r0, #88]	; 0x58
 8001e18:	6dc2      	ldr	r2, [r0, #92]	; 0x5c
 8001e1a:	605a      	str	r2, [r3, #4]
    hdma->State = HAL_DMA_STATE_READY;
 8001e1c:	2301      	movs	r3, #1
 8001e1e:	f880 3025 	strb.w	r3, [r0, #37]	; 0x25
    __HAL_UNLOCK(hdma);
 8001e22:	2300      	movs	r3, #0
 8001e24:	f880 3024 	strb.w	r3, [r0, #36]	; 0x24
    if (hdma->XferAbortCallback != NULL)
 8001e28:	6b83      	ldr	r3, [r0, #56]	; 0x38
 8001e2a:	b113      	cbz	r3, 8001e32 <HAL_DMA_Abort_IT+0x6e>
      hdma->XferAbortCallback(hdma);
 8001e2c:	4798      	blx	r3
  HAL_StatusTypeDef status = HAL_OK;
 8001e2e:	2000      	movs	r0, #0
 8001e30:	e7d1      	b.n	8001dd6 <HAL_DMA_Abort_IT+0x12>
 8001e32:	2000      	movs	r0, #0
 8001e34:	e7cf      	b.n	8001dd6 <HAL_DMA_Abort_IT+0x12>
	...

08001e38 <HAL_DMA_IRQHandler>:
{
 8001e38:	b538      	push	{r3, r4, r5, lr}
  uint32_t flag_it = hdma->DmaBaseAddress->ISR;
 8001e3a:	6c03      	ldr	r3, [r0, #64]	; 0x40
 8001e3c:	6819      	ldr	r1, [r3, #0]
  uint32_t source_it = hdma->Instance->CCR;
 8001e3e:	6804      	ldr	r4, [r0, #0]
 8001e40:	6825      	ldr	r5, [r4, #0]
  if (((flag_it & (DMA_FLAG_HT1 << (hdma->ChannelIndex & 0x1CU))) != 0U) && ((source_it & DMA_IT_HT) != 0U))
 8001e42:	6c43      	ldr	r3, [r0, #68]	; 0x44
 8001e44:	f003 031c 	and.w	r3, r3, #28
 8001e48:	2204      	movs	r2, #4
 8001e4a:	409a      	lsls	r2, r3
 8001e4c:	420a      	tst	r2, r1
 8001e4e:	d015      	beq.n	8001e7c <HAL_DMA_IRQHandler+0x44>
 8001e50:	f015 0f04 	tst.w	r5, #4
 8001e54:	d012      	beq.n	8001e7c <HAL_DMA_IRQHandler+0x44>
      if ((hdma->Instance->CCR & DMA_CCR_CIRC) == 0U)
 8001e56:	6823      	ldr	r3, [r4, #0]
 8001e58:	f013 0f20 	tst.w	r3, #32
 8001e5c:	d103      	bne.n	8001e66 <HAL_DMA_IRQHandler+0x2e>
        __HAL_DMA_DISABLE_IT(hdma, DMA_IT_HT);
 8001e5e:	6823      	ldr	r3, [r4, #0]
 8001e60:	f023 0304 	bic.w	r3, r3, #4
 8001e64:	6023      	str	r3, [r4, #0]
      hdma->DmaBaseAddress->IFCR = DMA_ISR_HTIF1 << (hdma->ChannelIndex & 0x1CU);
 8001e66:	6c43      	ldr	r3, [r0, #68]	; 0x44
 8001e68:	f003 021c 	and.w	r2, r3, #28
 8001e6c:	6c01      	ldr	r1, [r0, #64]	; 0x40
 8001e6e:	2304      	movs	r3, #4
 8001e70:	4093      	lsls	r3, r2
 8001e72:	604b      	str	r3, [r1, #4]
      if (hdma->XferHalfCpltCallback != NULL)
 8001e74:	6b03      	ldr	r3, [r0, #48]	; 0x30
 8001e76:	b103      	cbz	r3, 8001e7a <HAL_DMA_IRQHandler+0x42>
        hdma->XferHalfCpltCallback(hdma);
 8001e78:	4798      	blx	r3
}
 8001e7a:	bd38      	pop	{r3, r4, r5, pc}
  else if ((0U != (flag_it & (DMA_FLAG_TC1 << (hdma->ChannelIndex & 0x1CU)))) && (0U != (source_it & DMA_IT_TC)))
 8001e7c:	2202      	movs	r2, #2
 8001e7e:	409a      	lsls	r2, r3
 8001e80:	420a      	tst	r2, r1
 8001e82:	d028      	beq.n	8001ed6 <HAL_DMA_IRQHandler+0x9e>
 8001e84:	f015 0f02 	tst.w	r5, #2
 8001e88:	d025      	beq.n	8001ed6 <HAL_DMA_IRQHandler+0x9e>
      if ((hdma->Instance->CCR & DMA_CCR_CIRC) == 0U)
 8001e8a:	6823      	ldr	r3, [r4, #0]
 8001e8c:	f013 0f20 	tst.w	r3, #32
 8001e90:	d106      	bne.n	8001ea0 <HAL_DMA_IRQHandler+0x68>
        __HAL_DMA_DISABLE_IT(hdma, DMA_IT_TE | DMA_IT_TC);
 8001e92:	6823      	ldr	r3, [r4, #0]
 8001e94:	f023 030a 	bic.w	r3, r3, #10
 8001e98:	6023      	str	r3, [r4, #0]
        hdma->State = HAL_DMA_STATE_READY;
 8001e9a:	2301      	movs	r3, #1
 8001e9c:	f880 3025 	strb.w	r3, [r0, #37]	; 0x25
      __HAL_DMA_CLEAR_FLAG(hdma, (DMA_FLAG_TC1 << (hdma->ChannelIndex & 0x1CU)));
 8001ea0:	6802      	ldr	r2, [r0, #0]
 8001ea2:	4b1c      	ldr	r3, [pc, #112]	; (8001f14 <HAL_DMA_IRQHandler+0xdc>)
 8001ea4:	429a      	cmp	r2, r3
 8001ea6:	d90e      	bls.n	8001ec6 <HAL_DMA_IRQHandler+0x8e>
 8001ea8:	6c43      	ldr	r3, [r0, #68]	; 0x44
 8001eaa:	f003 021c 	and.w	r2, r3, #28
 8001eae:	2302      	movs	r3, #2
 8001eb0:	4093      	lsls	r3, r2
 8001eb2:	4a19      	ldr	r2, [pc, #100]	; (8001f18 <HAL_DMA_IRQHandler+0xe0>)
 8001eb4:	6053      	str	r3, [r2, #4]
      __HAL_UNLOCK(hdma);
 8001eb6:	2300      	movs	r3, #0
 8001eb8:	f880 3024 	strb.w	r3, [r0, #36]	; 0x24
      if (hdma->XferCpltCallback != NULL)
 8001ebc:	6ac3      	ldr	r3, [r0, #44]	; 0x2c
 8001ebe:	2b00      	cmp	r3, #0
 8001ec0:	d0db      	beq.n	8001e7a <HAL_DMA_IRQHandler+0x42>
        hdma->XferCpltCallback(hdma);
 8001ec2:	4798      	blx	r3
 8001ec4:	e7d9      	b.n	8001e7a <HAL_DMA_IRQHandler+0x42>
      __HAL_DMA_CLEAR_FLAG(hdma, (DMA_FLAG_TC1 << (hdma->ChannelIndex & 0x1CU)));
 8001ec6:	6c43      	ldr	r3, [r0, #68]	; 0x44
 8001ec8:	f003 021c 	and.w	r2, r3, #28
 8001ecc:	2302      	movs	r3, #2
 8001ece:	4093      	lsls	r3, r2
 8001ed0:	4a12      	ldr	r2, [pc, #72]	; (8001f1c <HAL_DMA_IRQHandler+0xe4>)
 8001ed2:	6053      	str	r3, [r2, #4]
 8001ed4:	e7ef      	b.n	8001eb6 <HAL_DMA_IRQHandler+0x7e>
  else if (((flag_it & (DMA_FLAG_TE1 << (hdma->ChannelIndex & 0x1CU))) != 0U) && ((source_it & DMA_IT_TE) != 0U))
 8001ed6:	2208      	movs	r2, #8
 8001ed8:	fa02 f303 	lsl.w	r3, r2, r3
 8001edc:	420b      	tst	r3, r1
 8001ede:	d0cc      	beq.n	8001e7a <HAL_DMA_IRQHandler+0x42>
 8001ee0:	f015 0f08 	tst.w	r5, #8
 8001ee4:	d0c9      	beq.n	8001e7a <HAL_DMA_IRQHandler+0x42>
    __HAL_DMA_DISABLE_IT(hdma, (DMA_IT_TC | DMA_IT_HT | DMA_IT_TE));
 8001ee6:	6823      	ldr	r3, [r4, #0]
 8001ee8:	f023 030e 	bic.w	r3, r3, #14
 8001eec:	6023      	str	r3, [r4, #0]
    hdma->DmaBaseAddress->IFCR = (DMA_ISR_GIF1 << (hdma->ChannelIndex & 0x1CU));
 8001eee:	6c43      	ldr	r3, [r0, #68]	; 0x44
 8001ef0:	f003 031c 	and.w	r3, r3, #28
 8001ef4:	6c01      	ldr	r1, [r0, #64]	; 0x40
 8001ef6:	2201      	movs	r2, #1
 8001ef8:	fa02 f303 	lsl.w	r3, r2, r3
 8001efc:	604b      	str	r3, [r1, #4]
    hdma->ErrorCode = HAL_DMA_ERROR_TE;
 8001efe:	63c2      	str	r2, [r0, #60]	; 0x3c
    hdma->State = HAL_DMA_STATE_READY;
 8001f00:	f880 2025 	strb.w	r2, [r0, #37]	; 0x25
    __HAL_UNLOCK(hdma);
 8001f04:	2300      	movs	r3, #0
 8001f06:	f880 3024 	strb.w	r3, [r0, #36]	; 0x24
    if (hdma->XferErrorCallback != NULL)
 8001f0a:	6b43      	ldr	r3, [r0, #52]	; 0x34
 8001f0c:	2b00      	cmp	r3, #0
 8001f0e:	d0b4      	beq.n	8001e7a <HAL_DMA_IRQHandler+0x42>
      hdma->XferErrorCallback(hdma);
 8001f10:	4798      	blx	r3
  return;
 8001f12:	e7b2      	b.n	8001e7a <HAL_DMA_IRQHandler+0x42>
 8001f14:	40020080 	.word	0x40020080
 8001f18:	40020400 	.word	0x40020400
 8001f1c:	40020000 	.word	0x40020000

08001f20 <HAL_DMA_ConfigChannelAttributes>:
  if (hdma == NULL)
 8001f20:	b178      	cbz	r0, 8001f42 <HAL_DMA_ConfigChannelAttributes+0x22>
  ccr = READ_REG(hdma->Instance->CCR);
 8001f22:	6803      	ldr	r3, [r0, #0]
 8001f24:	681a      	ldr	r2, [r3, #0]
  if ((ChannelAttributes & DMA_CHANNEL_ATTR_PRIV_MASK) != 0U)
 8001f26:	f011 0f10 	tst.w	r1, #16
 8001f2a:	d004      	beq.n	8001f36 <HAL_DMA_ConfigChannelAttributes+0x16>
    if ((ChannelAttributes & DMA_CCR_PRIV) != 0U)
 8001f2c:	f411 1f80 	tst.w	r1, #1048576	; 0x100000
 8001f30:	d004      	beq.n	8001f3c <HAL_DMA_ConfigChannelAttributes+0x1c>
      SET_BIT(ccr, DMA_CCR_PRIV);
 8001f32:	f442 1280 	orr.w	r2, r2, #1048576	; 0x100000
  WRITE_REG(hdma->Instance->CCR, ccr);
 8001f36:	601a      	str	r2, [r3, #0]
  return status;
 8001f38:	2000      	movs	r0, #0
 8001f3a:	4770      	bx	lr
      CLEAR_BIT(ccr, DMA_CCR_PRIV);
 8001f3c:	f422 1280 	bic.w	r2, r2, #1048576	; 0x100000
 8001f40:	e7f9      	b.n	8001f36 <HAL_DMA_ConfigChannelAttributes+0x16>
    return status;
 8001f42:	2001      	movs	r0, #1
}
 8001f44:	4770      	bx	lr
	...

08001f48 <HAL_GPIO_Init>:
  * @param GPIO_Init pointer to a GPIO_InitTypeDef structure that contains
  *         the configuration information for the specified GPIO peripheral.
  * @retval None
  */
void HAL_GPIO_Init(GPIO_TypeDef  *GPIOx, GPIO_InitTypeDef *GPIO_Init)
{
 8001f48:	b570      	push	{r4, r5, r6, lr}
  uint32_t position = 0x00u;
 8001f4a:	2300      	movs	r3, #0
  assert_param(IS_GPIO_PIN(GPIO_Init->Pin));
  assert_param(IS_GPIO_MODE(GPIO_Init->Mode));
  assert_param(IS_GPIO_PULL(GPIO_Init->Pull));

  /* Configure the port pins */
  while (((GPIO_Init->Pin) >> position) != 0x00u)
 8001f4c:	e069      	b.n	8002022 <HAL_GPIO_Init+0xda>
      if (((GPIO_Init->Mode & GPIO_MODE) == MODE_OUTPUT) || ((GPIO_Init->Mode & GPIO_MODE) == MODE_AF))
      {
        /* Check the Speed parameter */
        assert_param(IS_GPIO_SPEED(GPIO_Init->Speed));
        /* Configure the IO Speed */
        temp = GPIOx->OSPEEDR;
 8001f4e:	6885      	ldr	r5, [r0, #8]
        temp &= ~(GPIO_OSPEEDR_OSPEED0 << (position * 2U));
 8001f50:	005e      	lsls	r6, r3, #1
 8001f52:	2403      	movs	r4, #3
 8001f54:	40b4      	lsls	r4, r6
 8001f56:	ea25 0504 	bic.w	r5, r5, r4
        temp |= (GPIO_Init->Speed << (position * 2U));
 8001f5a:	68cc      	ldr	r4, [r1, #12]
 8001f5c:	40b4      	lsls	r4, r6
 8001f5e:	432c      	orrs	r4, r5
        GPIOx->OSPEEDR = temp;
 8001f60:	6084      	str	r4, [r0, #8]

        /* Configure the IO Output Type */
        temp = GPIOx->OTYPER;
 8001f62:	6845      	ldr	r5, [r0, #4]
        temp &= ~(GPIO_OTYPER_OT0 << position) ;
 8001f64:	ea25 050c 	bic.w	r5, r5, ip
        temp |= (((GPIO_Init->Mode & OUTPUT_TYPE) >> OUTPUT_TYPE_Pos) << position);
 8001f68:	684c      	ldr	r4, [r1, #4]
 8001f6a:	f3c4 1400 	ubfx	r4, r4, #4, #1
 8001f6e:	409c      	lsls	r4, r3
 8001f70:	432c      	orrs	r4, r5
        GPIOx->OTYPER = temp;
 8001f72:	6044      	str	r4, [r0, #4]
 8001f74:	e066      	b.n	8002044 <HAL_GPIO_Init+0xfc>
        /* Check the Alternate function parameters */
        assert_param(IS_GPIO_AF_INSTANCE(GPIOx));
        assert_param(IS_GPIO_AF(GPIO_Init->Alternate));

        /* Configure Alternate function mapped with the current IO */
        temp = GPIOx->AFR[position >> 3U];
 8001f76:	08dd      	lsrs	r5, r3, #3
 8001f78:	3508      	adds	r5, #8
 8001f7a:	f850 4025 	ldr.w	r4, [r0, r5, lsl #2]
        temp &= ~(0xFU << ((position & 0x07U) * 4U));
 8001f7e:	f003 0c07 	and.w	ip, r3, #7
 8001f82:	ea4f 0c8c 	mov.w	ip, ip, lsl #2
 8001f86:	f04f 0e0f 	mov.w	lr, #15
 8001f8a:	fa0e fe0c 	lsl.w	lr, lr, ip
 8001f8e:	ea24 0e0e 	bic.w	lr, r4, lr
        temp |= ((GPIO_Init->Alternate) << ((position & 0x07U) * 4U));
 8001f92:	690c      	ldr	r4, [r1, #16]
 8001f94:	fa04 f40c 	lsl.w	r4, r4, ip
 8001f98:	ea44 040e 	orr.w	r4, r4, lr
        GPIOx->AFR[position >> 3u] = temp;
 8001f9c:	f840 4025 	str.w	r4, [r0, r5, lsl #2]
 8001fa0:	e067      	b.n	8002072 <HAL_GPIO_Init+0x12a>
      /* Configure the External Interrupt or event for the current IO */
      if ((GPIO_Init->Mode & EXTI_MODE) != 0x00u)
      {
        temp = SYSCFG->EXTICR[position >> 2u];
        temp &= ~(0x07uL << (4U * (position & 0x03U)));
        temp |= (GPIO_GET_INDEX(GPIOx) << (4U * (position & 0x03U)));
 8001fa2:	2402      	movs	r4, #2
 8001fa4:	e000      	b.n	8001fa8 <HAL_GPIO_Init+0x60>
 8001fa6:	2400      	movs	r4, #0
 8001fa8:	fa04 f40e 	lsl.w	r4, r4, lr
 8001fac:	432c      	orrs	r4, r5
        SYSCFG->EXTICR[position >> 2u] = temp;
 8001fae:	f10c 0c02 	add.w	ip, ip, #2
 8001fb2:	4d4b      	ldr	r5, [pc, #300]	; (80020e0 <HAL_GPIO_Init+0x198>)
 8001fb4:	f845 402c 	str.w	r4, [r5, ip, lsl #2]

        /* Clear Rising Falling edge configuration */
        temp = EXTI->RTSR1;
 8001fb8:	4c4a      	ldr	r4, [pc, #296]	; (80020e4 <HAL_GPIO_Init+0x19c>)
 8001fba:	6825      	ldr	r5, [r4, #0]
        temp &= ~(iocurrent);
 8001fbc:	43d4      	mvns	r4, r2
 8001fbe:	ea25 0602 	bic.w	r6, r5, r2
        if ((GPIO_Init->Mode & TRIGGER_RISING) != 0x00u)
 8001fc2:	f8d1 c004 	ldr.w	ip, [r1, #4]
 8001fc6:	f41c 1f80 	tst.w	ip, #1048576	; 0x100000
 8001fca:	d001      	beq.n	8001fd0 <HAL_GPIO_Init+0x88>
        {
          temp |= iocurrent;
 8001fcc:	ea42 0605 	orr.w	r6, r2, r5
        }
        EXTI->RTSR1 = temp;
 8001fd0:	4d44      	ldr	r5, [pc, #272]	; (80020e4 <HAL_GPIO_Init+0x19c>)
 8001fd2:	602e      	str	r6, [r5, #0]

        temp = EXTI->FTSR1;
 8001fd4:	686d      	ldr	r5, [r5, #4]
        temp &= ~(iocurrent);
 8001fd6:	ea04 0605 	and.w	r6, r4, r5
        if ((GPIO_Init->Mode & TRIGGER_FALLING) != 0x00u)
 8001fda:	f8d1 c004 	ldr.w	ip, [r1, #4]
 8001fde:	f41c 1f00 	tst.w	ip, #2097152	; 0x200000
 8001fe2:	d001      	beq.n	8001fe8 <HAL_GPIO_Init+0xa0>
        {
          temp |= iocurrent;
 8001fe4:	ea42 0605 	orr.w	r6, r2, r5
        }
        EXTI->FTSR1 = temp;
 8001fe8:	4d3e      	ldr	r5, [pc, #248]	; (80020e4 <HAL_GPIO_Init+0x19c>)
 8001fea:	606e      	str	r6, [r5, #4]

        /* Clear EXTI line configuration */
#ifdef CORE_CM0PLUS
        temp = EXTI->C2IMR1;
#else
        temp = EXTI->IMR1;
 8001fec:	f8d5 5080 	ldr.w	r5, [r5, #128]	; 0x80
#endif /* CORE_CM0PLUS */
        temp &= ~(iocurrent);
 8001ff0:	ea04 0605 	and.w	r6, r4, r5
        if ((GPIO_Init->Mode & EXTI_IT) != 0x00u)
 8001ff4:	f8d1 c004 	ldr.w	ip, [r1, #4]
 8001ff8:	f41c 3f80 	tst.w	ip, #65536	; 0x10000
 8001ffc:	d001      	beq.n	8002002 <HAL_GPIO_Init+0xba>
        {
          temp |= iocurrent;
 8001ffe:	ea42 0605 	orr.w	r6, r2, r5
        }
#ifdef CORE_CM0PLUS
        EXTI->C2IMR1 = temp;
#else
        EXTI->IMR1 = temp;
 8002002:	4d38      	ldr	r5, [pc, #224]	; (80020e4 <HAL_GPIO_Init+0x19c>)
 8002004:	f8c5 6080 	str.w	r6, [r5, #128]	; 0x80
#endif /* CORE_CM0PLUS */

#ifdef CORE_CM0PLUS
        temp = EXTI->C2EMR1;
#else
        temp = EXTI->EMR1;
 8002008:	f8d5 5084 	ldr.w	r5, [r5, #132]	; 0x84
#endif /* CORE_CM0PLUS */
        temp &= ~(iocurrent);
 800200c:	402c      	ands	r4, r5
        if ((GPIO_Init->Mode & EXTI_EVT) != 0x00u)
 800200e:	684e      	ldr	r6, [r1, #4]
 8002010:	f416 3f00 	tst.w	r6, #131072	; 0x20000
 8002014:	d001      	beq.n	800201a <HAL_GPIO_Init+0xd2>
        {
          temp |= iocurrent;
 8002016:	ea42 0405 	orr.w	r4, r2, r5
        }
#ifdef CORE_CM0PLUS
        EXTI->C2EMR1 = temp;
#else
        EXTI->EMR1 = temp;
 800201a:	4a32      	ldr	r2, [pc, #200]	; (80020e4 <HAL_GPIO_Init+0x19c>)
 800201c:	f8c2 4084 	str.w	r4, [r2, #132]	; 0x84
#endif /* CORE_CM0PLUS */
      }
    }

    position++;
 8002020:	3301      	adds	r3, #1
  while (((GPIO_Init->Pin) >> position) != 0x00u)
 8002022:	680a      	ldr	r2, [r1, #0]
 8002024:	fa32 f403 	lsrs.w	r4, r2, r3
 8002028:	d058      	beq.n	80020dc <HAL_GPIO_Init+0x194>
    iocurrent = (GPIO_Init->Pin) & (1uL << position);
 800202a:	f04f 0c01 	mov.w	ip, #1
 800202e:	fa0c fc03 	lsl.w	ip, ip, r3
    if (iocurrent != 0x00u)
 8002032:	ea1c 0202 	ands.w	r2, ip, r2
 8002036:	d0f3      	beq.n	8002020 <HAL_GPIO_Init+0xd8>
      if (((GPIO_Init->Mode & GPIO_MODE) == MODE_OUTPUT) || ((GPIO_Init->Mode & GPIO_MODE) == MODE_AF))
 8002038:	684c      	ldr	r4, [r1, #4]
 800203a:	f004 0403 	and.w	r4, r4, #3
 800203e:	3c01      	subs	r4, #1
 8002040:	2c01      	cmp	r4, #1
 8002042:	d984      	bls.n	8001f4e <HAL_GPIO_Init+0x6>
      if ((GPIO_Init->Mode & GPIO_MODE) != MODE_ANALOG)
 8002044:	684c      	ldr	r4, [r1, #4]
 8002046:	f004 0403 	and.w	r4, r4, #3
 800204a:	2c03      	cmp	r4, #3
 800204c:	d00c      	beq.n	8002068 <HAL_GPIO_Init+0x120>
        temp = GPIOx->PUPDR;
 800204e:	68c4      	ldr	r4, [r0, #12]
        temp &= ~(GPIO_PUPDR_PUPD0 << (position * 2U));
 8002050:	005d      	lsls	r5, r3, #1
 8002052:	f04f 0c03 	mov.w	ip, #3
 8002056:	fa0c fc05 	lsl.w	ip, ip, r5
 800205a:	ea24 0c0c 	bic.w	ip, r4, ip
        temp |= ((GPIO_Init->Pull) << (position * 2U));
 800205e:	688c      	ldr	r4, [r1, #8]
 8002060:	40ac      	lsls	r4, r5
 8002062:	ea44 040c 	orr.w	r4, r4, ip
        GPIOx->PUPDR = temp;
 8002066:	60c4      	str	r4, [r0, #12]
      if ((GPIO_Init->Mode & GPIO_MODE) == MODE_AF)
 8002068:	684c      	ldr	r4, [r1, #4]
 800206a:	f004 0403 	and.w	r4, r4, #3
 800206e:	2c02      	cmp	r4, #2
 8002070:	d081      	beq.n	8001f76 <HAL_GPIO_Init+0x2e>
      temp = GPIOx->MODER;
 8002072:	6804      	ldr	r4, [r0, #0]
      temp &= ~(GPIO_MODER_MODE0 << (position * 2U));
 8002074:	ea4f 0e43 	mov.w	lr, r3, lsl #1
 8002078:	f04f 0c03 	mov.w	ip, #3
 800207c:	fa0c fc0e 	lsl.w	ip, ip, lr
 8002080:	ea24 0c0c 	bic.w	ip, r4, ip
      temp |= ((GPIO_Init->Mode & GPIO_MODE) << (position * 2U));
 8002084:	684c      	ldr	r4, [r1, #4]
 8002086:	f004 0403 	and.w	r4, r4, #3
 800208a:	fa04 f40e 	lsl.w	r4, r4, lr
 800208e:	ea44 040c 	orr.w	r4, r4, ip
      GPIOx->MODER = temp;
 8002092:	6004      	str	r4, [r0, #0]
      if ((GPIO_Init->Mode & EXTI_MODE) != 0x00u)
 8002094:	684c      	ldr	r4, [r1, #4]
 8002096:	f414 3f40 	tst.w	r4, #196608	; 0x30000
 800209a:	d0c1      	beq.n	8002020 <HAL_GPIO_Init+0xd8>
        temp = SYSCFG->EXTICR[position >> 2u];
 800209c:	ea4f 0c93 	mov.w	ip, r3, lsr #2
 80020a0:	f10c 0502 	add.w	r5, ip, #2
 80020a4:	4c0e      	ldr	r4, [pc, #56]	; (80020e0 <HAL_GPIO_Init+0x198>)
 80020a6:	f854 5025 	ldr.w	r5, [r4, r5, lsl #2]
        temp &= ~(0x07uL << (4U * (position & 0x03U)));
 80020aa:	f003 0e03 	and.w	lr, r3, #3
 80020ae:	ea4f 0e8e 	mov.w	lr, lr, lsl #2
 80020b2:	2407      	movs	r4, #7
 80020b4:	fa04 f40e 	lsl.w	r4, r4, lr
 80020b8:	ea25 0504 	bic.w	r5, r5, r4
        temp |= (GPIO_GET_INDEX(GPIOx) << (4U * (position & 0x03U)));
 80020bc:	f1b0 4f90 	cmp.w	r0, #1207959552	; 0x48000000
 80020c0:	f43f af71 	beq.w	8001fa6 <HAL_GPIO_Init+0x5e>
 80020c4:	4c08      	ldr	r4, [pc, #32]	; (80020e8 <HAL_GPIO_Init+0x1a0>)
 80020c6:	42a0      	cmp	r0, r4
 80020c8:	d006      	beq.n	80020d8 <HAL_GPIO_Init+0x190>
 80020ca:	f504 6480 	add.w	r4, r4, #1024	; 0x400
 80020ce:	42a0      	cmp	r0, r4
 80020d0:	f43f af67 	beq.w	8001fa2 <HAL_GPIO_Init+0x5a>
 80020d4:	2407      	movs	r4, #7
 80020d6:	e767      	b.n	8001fa8 <HAL_GPIO_Init+0x60>
 80020d8:	2401      	movs	r4, #1
 80020da:	e765      	b.n	8001fa8 <HAL_GPIO_Init+0x60>
  }
}
 80020dc:	bd70      	pop	{r4, r5, r6, pc}
 80020de:	bf00      	nop
 80020e0:	40010000 	.word	0x40010000
 80020e4:	58000800 	.word	0x58000800
 80020e8:	48000400 	.word	0x48000400

080020ec <HAL_GPIO_DeInit>:
  *         This parameter can be any combination of GPIO_PIN_x where x can be (0..15).
  * @retval None
  */
void HAL_GPIO_DeInit(GPIO_TypeDef  *GPIOx, uint32_t GPIO_Pin)
{
  uint32_t position = 0x00u;
 80020ec:	2300      	movs	r3, #0
  /* Check the parameters */
  assert_param(IS_GPIO_ALL_INSTANCE(GPIOx));
  assert_param(IS_GPIO_PIN(GPIO_Pin));

  /* Configure the port pins */
  while ((GPIO_Pin >> position) != 0x00u)
 80020ee:	fa31 f203 	lsrs.w	r2, r1, r3
 80020f2:	d071      	beq.n	80021d8 <HAL_GPIO_DeInit+0xec>
{
 80020f4:	b5f0      	push	{r4, r5, r6, r7, lr}
 80020f6:	e02e      	b.n	8002156 <HAL_GPIO_DeInit+0x6a>
      /*------------------------- EXTI Mode Configuration --------------------*/
      /* Clear the External Interrupt or Event for the current IO */

      tmp = SYSCFG->EXTICR[position >> 2u];
      tmp &= (0x07uL << (4U * (position & 0x03U)));
      if (tmp == (GPIO_GET_INDEX(GPIOx) << (4U * (position & 0x03U))))
 80020f8:	2502      	movs	r5, #2
 80020fa:	e000      	b.n	80020fe <HAL_GPIO_DeInit+0x12>
 80020fc:	2500      	movs	r5, #0
 80020fe:	fa05 f50c 	lsl.w	r5, r5, ip
 8002102:	42a5      	cmp	r5, r4
 8002104:	d049      	beq.n	800219a <HAL_GPIO_DeInit+0xae>
        SYSCFG->EXTICR[position >> 2u] &= ~tmp;
      }

      /*------------------------- GPIO Mode Configuration --------------------*/
      /* Configure IO in Analog Mode */
      GPIOx->MODER |= (GPIO_MODER_MODE0 << (position * 2U));
 8002106:	6804      	ldr	r4, [r0, #0]
 8002108:	005d      	lsls	r5, r3, #1
 800210a:	f04f 0c03 	mov.w	ip, #3
 800210e:	fa0c fc05 	lsl.w	ip, ip, r5
 8002112:	ea44 040c 	orr.w	r4, r4, ip
 8002116:	6004      	str	r4, [r0, #0]

      /* Configure the default Alternate Function in current IO */
      GPIOx->AFR[position >> 3U] &= ~(0xFU << ((position & 0x07U) * 4U)) ;
 8002118:	ea4f 0ed3 	mov.w	lr, r3, lsr #3
 800211c:	f10e 0e08 	add.w	lr, lr, #8
 8002120:	f850 402e 	ldr.w	r4, [r0, lr, lsl #2]
 8002124:	f003 0607 	and.w	r6, r3, #7
 8002128:	00b6      	lsls	r6, r6, #2
 800212a:	250f      	movs	r5, #15
 800212c:	40b5      	lsls	r5, r6
 800212e:	ea24 0405 	bic.w	r4, r4, r5
 8002132:	f840 402e 	str.w	r4, [r0, lr, lsl #2]

      /* Configure the default value for IO Speed */
      GPIOx->OSPEEDR &= ~(GPIO_OSPEEDR_OSPEED0 << (position * 2U));
 8002136:	6884      	ldr	r4, [r0, #8]
 8002138:	ea24 040c 	bic.w	r4, r4, ip
 800213c:	6084      	str	r4, [r0, #8]

      /* Configure the default value IO Output Type */
      GPIOx->OTYPER  &= ~(GPIO_OTYPER_OT0 << position) ;
 800213e:	6844      	ldr	r4, [r0, #4]
 8002140:	ea24 0202 	bic.w	r2, r4, r2
 8002144:	6042      	str	r2, [r0, #4]

      /* Deactivate the Pull-up and Pull-down resistor for the current IO */
      GPIOx->PUPDR &= ~(GPIO_PUPDR_PUPD0 << (position * 2U));
 8002146:	68c2      	ldr	r2, [r0, #12]
 8002148:	ea22 020c 	bic.w	r2, r2, ip
 800214c:	60c2      	str	r2, [r0, #12]
    }

    position++;
 800214e:	3301      	adds	r3, #1
  while ((GPIO_Pin >> position) != 0x00u)
 8002150:	fa31 f203 	lsrs.w	r2, r1, r3
 8002154:	d03f      	beq.n	80021d6 <HAL_GPIO_DeInit+0xea>
    iocurrent = (GPIO_Pin) & (1uL << position);
 8002156:	2201      	movs	r2, #1
 8002158:	409a      	lsls	r2, r3
    if (iocurrent != 0x00u)
 800215a:	ea12 0701 	ands.w	r7, r2, r1
 800215e:	d0f6      	beq.n	800214e <HAL_GPIO_DeInit+0x62>
      tmp = SYSCFG->EXTICR[position >> 2u];
 8002160:	089e      	lsrs	r6, r3, #2
 8002162:	1cb5      	adds	r5, r6, #2
 8002164:	4c1d      	ldr	r4, [pc, #116]	; (80021dc <HAL_GPIO_DeInit+0xf0>)
 8002166:	f854 4025 	ldr.w	r4, [r4, r5, lsl #2]
      tmp &= (0x07uL << (4U * (position & 0x03U)));
 800216a:	f003 0c03 	and.w	ip, r3, #3
 800216e:	ea4f 0c8c 	mov.w	ip, ip, lsl #2
 8002172:	f04f 0e07 	mov.w	lr, #7
 8002176:	fa0e fe0c 	lsl.w	lr, lr, ip
 800217a:	ea0e 0404 	and.w	r4, lr, r4
      if (tmp == (GPIO_GET_INDEX(GPIOx) << (4U * (position & 0x03U))))
 800217e:	f1b0 4f90 	cmp.w	r0, #1207959552	; 0x48000000
 8002182:	d0bb      	beq.n	80020fc <HAL_GPIO_DeInit+0x10>
 8002184:	4d16      	ldr	r5, [pc, #88]	; (80021e0 <HAL_GPIO_DeInit+0xf4>)
 8002186:	42a8      	cmp	r0, r5
 8002188:	d005      	beq.n	8002196 <HAL_GPIO_DeInit+0xaa>
 800218a:	f505 6580 	add.w	r5, r5, #1024	; 0x400
 800218e:	42a8      	cmp	r0, r5
 8002190:	d0b2      	beq.n	80020f8 <HAL_GPIO_DeInit+0xc>
 8002192:	2507      	movs	r5, #7
 8002194:	e7b3      	b.n	80020fe <HAL_GPIO_DeInit+0x12>
 8002196:	2501      	movs	r5, #1
 8002198:	e7b1      	b.n	80020fe <HAL_GPIO_DeInit+0x12>
        EXTI->IMR1 &= ~(iocurrent);
 800219a:	4c12      	ldr	r4, [pc, #72]	; (80021e4 <HAL_GPIO_DeInit+0xf8>)
 800219c:	f8d4 5080 	ldr.w	r5, [r4, #128]	; 0x80
 80021a0:	ea25 0507 	bic.w	r5, r5, r7
 80021a4:	f8c4 5080 	str.w	r5, [r4, #128]	; 0x80
        EXTI->EMR1 &= ~(iocurrent);
 80021a8:	f8d4 5084 	ldr.w	r5, [r4, #132]	; 0x84
 80021ac:	ea25 0507 	bic.w	r5, r5, r7
 80021b0:	f8c4 5084 	str.w	r5, [r4, #132]	; 0x84
        EXTI->RTSR1 &= ~(iocurrent);
 80021b4:	6825      	ldr	r5, [r4, #0]
 80021b6:	ea25 0507 	bic.w	r5, r5, r7
 80021ba:	6025      	str	r5, [r4, #0]
        EXTI->FTSR1 &= ~(iocurrent);
 80021bc:	6865      	ldr	r5, [r4, #4]
 80021be:	ea25 0507 	bic.w	r5, r5, r7
 80021c2:	6065      	str	r5, [r4, #4]
        SYSCFG->EXTICR[position >> 2u] &= ~tmp;
 80021c4:	4d05      	ldr	r5, [pc, #20]	; (80021dc <HAL_GPIO_DeInit+0xf0>)
 80021c6:	3602      	adds	r6, #2
 80021c8:	f855 4026 	ldr.w	r4, [r5, r6, lsl #2]
 80021cc:	ea24 040e 	bic.w	r4, r4, lr
 80021d0:	f845 4026 	str.w	r4, [r5, r6, lsl #2]
 80021d4:	e797      	b.n	8002106 <HAL_GPIO_DeInit+0x1a>
  }
}
 80021d6:	bdf0      	pop	{r4, r5, r6, r7, pc}
 80021d8:	4770      	bx	lr
 80021da:	bf00      	nop
 80021dc:	40010000 	.word	0x40010000
 80021e0:	48000400 	.word	0x48000400
 80021e4:	58000800 	.word	0x58000800

080021e8 <HAL_GPIO_WritePin>:
{
  /* Check the parameters */
  assert_param(IS_GPIO_PIN(GPIO_Pin));
  assert_param(IS_GPIO_PIN_ACTION(PinState));

  if (PinState != GPIO_PIN_RESET)
 80021e8:	b10a      	cbz	r2, 80021ee <HAL_GPIO_WritePin+0x6>
  {
    GPIOx->BSRR = (uint32_t)GPIO_Pin;
 80021ea:	6181      	str	r1, [r0, #24]
 80021ec:	4770      	bx	lr
  }
  else
  {
    GPIOx->BRR = (uint32_t)GPIO_Pin;
 80021ee:	6281      	str	r1, [r0, #40]	; 0x28
  }
}
 80021f0:	4770      	bx	lr

080021f2 <HAL_GPIO_TogglePin>:

  /* Check the parameters */
  assert_param(IS_GPIO_PIN(GPIO_Pin));

  /* get current Output Data Register value */
  odr = GPIOx->ODR;
 80021f2:	6943      	ldr	r3, [r0, #20]

  /* Set selected pins that were at low level, and reset ones that were high */
  GPIOx->BSRR = ((odr & GPIO_Pin) << GPIO_NUMBER) | (~odr & GPIO_Pin);
 80021f4:	ea01 0203 	and.w	r2, r1, r3
 80021f8:	ea21 0103 	bic.w	r1, r1, r3
 80021fc:	ea41 4102 	orr.w	r1, r1, r2, lsl #16
 8002200:	6181      	str	r1, [r0, #24]
}
 8002202:	4770      	bx	lr

08002204 <HAL_PWR_EnableBkUpAccess>:
  *         backup domain.
  * @retval None
  */
void HAL_PWR_EnableBkUpAccess(void)
{
  SET_BIT(PWR->CR1, PWR_CR1_DBP);
 8002204:	4a02      	ldr	r2, [pc, #8]	; (8002210 <HAL_PWR_EnableBkUpAccess+0xc>)
 8002206:	6813      	ldr	r3, [r2, #0]
 8002208:	f443 7380 	orr.w	r3, r3, #256	; 0x100
 800220c:	6013      	str	r3, [r2, #0]
}
 800220e:	4770      	bx	lr
 8002210:	58000400 	.word	0x58000400

08002214 <HAL_PWR_EnterSLEEPMode>:
  * @note  When WFI entry is used, tick interrupt have to be disabled if not desired as
  *        the interrupt wake up source.
  * @retval None
  */
void HAL_PWR_EnterSLEEPMode(uint32_t Regulator, uint8_t SLEEPEntry)
{
 8002214:	b510      	push	{r4, lr}
 8002216:	460c      	mov	r4, r1
  /* Check the parameters */
  assert_param(IS_PWR_REGULATOR(Regulator));
  assert_param(IS_PWR_SLEEP_ENTRY(SLEEPEntry));

  /* Set Regulator parameter */
  if (Regulator == PWR_MAINREGULATOR_ON)
 8002218:	b9a0      	cbnz	r0, 8002244 <HAL_PWR_EnterSLEEPMode+0x30>
  {
    /* If in low-power run mode at this point, exit it */
    if (HAL_IS_BIT_SET(PWR->SR2, (PWR_SR2_REGLPF)))
 800221a:	4b0f      	ldr	r3, [pc, #60]	; (8002258 <HAL_PWR_EnterSLEEPMode+0x44>)
 800221c:	695b      	ldr	r3, [r3, #20]
 800221e:	f413 7f00 	tst.w	r3, #512	; 0x200
 8002222:	d10a      	bne.n	800223a <HAL_PWR_EnterSLEEPMode+0x26>
      HAL_PWREx_EnableLowPowerRunMode();
    }
  }

  /* Clear SLEEPDEEP bit of Cortex System Control Register */
  CLEAR_BIT(SCB->SCR, ((uint32_t)SCB_SCR_SLEEPDEEP_Msk));
 8002224:	4a0d      	ldr	r2, [pc, #52]	; (800225c <HAL_PWR_EnterSLEEPMode+0x48>)
 8002226:	6913      	ldr	r3, [r2, #16]
 8002228:	f023 0304 	bic.w	r3, r3, #4
 800222c:	6113      	str	r3, [r2, #16]

  /* Select SLEEP mode entry -------------------------------------------------*/
  if (SLEEPEntry == PWR_SLEEPENTRY_WFI)
 800222e:	2c01      	cmp	r4, #1
 8002230:	d010      	beq.n	8002254 <HAL_PWR_EnterSLEEPMode+0x40>
    __WFI();
  }
  else
  {
    /* Request Wait For Event */
    __SEV();
 8002232:	bf40      	sev
    __WFE();
 8002234:	bf20      	wfe
    __WFE();
 8002236:	bf20      	wfe
  }
}
 8002238:	bd10      	pop	{r4, pc}
      if (HAL_PWREx_DisableLowPowerRunMode() != HAL_OK)
 800223a:	f000 f821 	bl	8002280 <HAL_PWREx_DisableLowPowerRunMode>
 800223e:	2800      	cmp	r0, #0
 8002240:	d0f0      	beq.n	8002224 <HAL_PWR_EnterSLEEPMode+0x10>
 8002242:	e7f9      	b.n	8002238 <HAL_PWR_EnterSLEEPMode+0x24>
    if (HAL_IS_BIT_CLR(PWR->SR2, (PWR_SR2_REGLPF)))
 8002244:	4b04      	ldr	r3, [pc, #16]	; (8002258 <HAL_PWR_EnterSLEEPMode+0x44>)
 8002246:	695b      	ldr	r3, [r3, #20]
 8002248:	f413 7f00 	tst.w	r3, #512	; 0x200
 800224c:	d1ea      	bne.n	8002224 <HAL_PWR_EnterSLEEPMode+0x10>
      HAL_PWREx_EnableLowPowerRunMode();
 800224e:	f000 f80f 	bl	8002270 <HAL_PWREx_EnableLowPowerRunMode>
 8002252:	e7e7      	b.n	8002224 <HAL_PWR_EnterSLEEPMode+0x10>
    __WFI();
 8002254:	bf30      	wfi
 8002256:	e7ef      	b.n	8002238 <HAL_PWR_EnterSLEEPMode+0x24>
 8002258:	58000400 	.word	0x58000400
 800225c:	e000ed00 	.word	0xe000ed00

08002260 <HAL_PWREx_GetVoltageRange>:
  * @brief Return Voltage Scaling Range.
  * @retval VOS bit field (PWR_REGULATOR_VOLTAGE_SCALE1 or PWPWR_REGULATOR_VOLTAGE_SCALE2)
  */
uint32_t HAL_PWREx_GetVoltageRange(void)
{
  return (PWR->CR1 & PWR_CR1_VOS);
 8002260:	4b02      	ldr	r3, [pc, #8]	; (800226c <HAL_PWREx_GetVoltageRange+0xc>)
 8002262:	6818      	ldr	r0, [r3, #0]
}
 8002264:	f400 60c0 	and.w	r0, r0, #1536	; 0x600
 8002268:	4770      	bx	lr
 800226a:	bf00      	nop
 800226c:	58000400 	.word	0x58000400

08002270 <HAL_PWREx_EnableLowPowerRunMode>:
  * @retval None
  */
void HAL_PWREx_EnableLowPowerRunMode(void)
{
  /* Set Regulator parameter */
  SET_BIT(PWR->CR1, PWR_CR1_LPR);
 8002270:	4a02      	ldr	r2, [pc, #8]	; (800227c <HAL_PWREx_EnableLowPowerRunMode+0xc>)
 8002272:	6813      	ldr	r3, [r2, #0]
 8002274:	f443 4380 	orr.w	r3, r3, #16384	; 0x4000
 8002278:	6013      	str	r3, [r2, #0]
}
 800227a:	4770      	bx	lr
 800227c:	58000400 	.word	0x58000400

08002280 <HAL_PWREx_DisableLowPowerRunMode>:
HAL_StatusTypeDef HAL_PWREx_DisableLowPowerRunMode(void)
{
  uint32_t wait_loop_index;

  /* Clear LPR bit */
  CLEAR_BIT(PWR->CR1, PWR_CR1_LPR);
 8002280:	4a0f      	ldr	r2, [pc, #60]	; (80022c0 <HAL_PWREx_DisableLowPowerRunMode+0x40>)
 8002282:	6813      	ldr	r3, [r2, #0]
 8002284:	f423 4380 	bic.w	r3, r3, #16384	; 0x4000
 8002288:	6013      	str	r3, [r2, #0]

  /* Wait until REGLPF is reset */
  wait_loop_index = ((PWR_FLAG_SETTING_DELAY_US * SystemCoreClock) / 1000000UL);
 800228a:	4b0e      	ldr	r3, [pc, #56]	; (80022c4 <HAL_PWREx_DisableLowPowerRunMode+0x44>)
 800228c:	681b      	ldr	r3, [r3, #0]
 800228e:	2232      	movs	r2, #50	; 0x32
 8002290:	fb02 f303 	mul.w	r3, r2, r3
 8002294:	4a0c      	ldr	r2, [pc, #48]	; (80022c8 <HAL_PWREx_DisableLowPowerRunMode+0x48>)
 8002296:	fba2 2303 	umull	r2, r3, r2, r3
 800229a:	0c9b      	lsrs	r3, r3, #18
  while ((HAL_IS_BIT_SET(PWR->SR2, PWR_SR2_REGLPF)) && (wait_loop_index != 0U))
 800229c:	e000      	b.n	80022a0 <HAL_PWREx_DisableLowPowerRunMode+0x20>
  {
    wait_loop_index--;
 800229e:	3b01      	subs	r3, #1
  while ((HAL_IS_BIT_SET(PWR->SR2, PWR_SR2_REGLPF)) && (wait_loop_index != 0U))
 80022a0:	4a07      	ldr	r2, [pc, #28]	; (80022c0 <HAL_PWREx_DisableLowPowerRunMode+0x40>)
 80022a2:	6952      	ldr	r2, [r2, #20]
 80022a4:	f412 7f00 	tst.w	r2, #512	; 0x200
 80022a8:	d001      	beq.n	80022ae <HAL_PWREx_DisableLowPowerRunMode+0x2e>
 80022aa:	2b00      	cmp	r3, #0
 80022ac:	d1f7      	bne.n	800229e <HAL_PWREx_DisableLowPowerRunMode+0x1e>
  }
  if (HAL_IS_BIT_SET(PWR->SR2, (PWR_SR2_REGLPF)))
 80022ae:	4b04      	ldr	r3, [pc, #16]	; (80022c0 <HAL_PWREx_DisableLowPowerRunMode+0x40>)
 80022b0:	695b      	ldr	r3, [r3, #20]
 80022b2:	f413 7f00 	tst.w	r3, #512	; 0x200
 80022b6:	d101      	bne.n	80022bc <HAL_PWREx_DisableLowPowerRunMode+0x3c>
  {
    return HAL_TIMEOUT;
  }

  return HAL_OK;
 80022b8:	2000      	movs	r0, #0
 80022ba:	4770      	bx	lr
    return HAL_TIMEOUT;
 80022bc:	2003      	movs	r0, #3
}
 80022be:	4770      	bx	lr
 80022c0:	58000400 	.word	0x58000400
 80022c4:	20000024 	.word	0x20000024
 80022c8:	431bde83 	.word	0x431bde83

080022cc <HAL_PWREx_EnterSTOP2Mode>:
#ifdef CORE_CM0PLUS
  /* Set Stop mode 2 */
  MODIFY_REG(PWR->C2CR1, PWR_C2CR1_LPMS, PWR_LOWPOWERMODE_STOP2);
#else
  /* Set Stop mode 2 */
  MODIFY_REG(PWR->CR1, PWR_CR1_LPMS, PWR_LOWPOWERMODE_STOP2);
 80022cc:	4a0c      	ldr	r2, [pc, #48]	; (8002300 <HAL_PWREx_EnterSTOP2Mode+0x34>)
 80022ce:	6813      	ldr	r3, [r2, #0]
 80022d0:	f023 0307 	bic.w	r3, r3, #7
 80022d4:	f043 0302 	orr.w	r3, r3, #2
 80022d8:	6013      	str	r3, [r2, #0]
#endif

  /* Set SLEEPDEEP bit of Cortex System Control Register */
  SET_BIT(SCB->SCR, ((uint32_t)SCB_SCR_SLEEPDEEP_Msk));
 80022da:	4a0a      	ldr	r2, [pc, #40]	; (8002304 <HAL_PWREx_EnterSTOP2Mode+0x38>)
 80022dc:	6913      	ldr	r3, [r2, #16]
 80022de:	f043 0304 	orr.w	r3, r3, #4
 80022e2:	6113      	str	r3, [r2, #16]

  /* Select Stop mode entry --------------------------------------------------*/
  if (STOPEntry == PWR_STOPENTRY_WFI)
 80022e4:	2801      	cmp	r0, #1
 80022e6:	d008      	beq.n	80022fa <HAL_PWREx_EnterSTOP2Mode+0x2e>
    __WFI();
  }
  else
  {
    /* Request Wait For Event */
    __SEV();
 80022e8:	bf40      	sev
    __WFE();
 80022ea:	bf20      	wfe
    __WFE();
 80022ec:	bf20      	wfe
  }

  /* Reset SLEEPDEEP bit of Cortex System Control Register */
  CLEAR_BIT(SCB->SCR, ((uint32_t)SCB_SCR_SLEEPDEEP_Msk));
 80022ee:	4a05      	ldr	r2, [pc, #20]	; (8002304 <HAL_PWREx_EnterSTOP2Mode+0x38>)
 80022f0:	6913      	ldr	r3, [r2, #16]
 80022f2:	f023 0304 	bic.w	r3, r3, #4
 80022f6:	6113      	str	r3, [r2, #16]
}
 80022f8:	4770      	bx	lr
    __WFI();
 80022fa:	bf30      	wfi
 80022fc:	e7f7      	b.n	80022ee <HAL_PWREx_EnterSTOP2Mode+0x22>
 80022fe:	bf00      	nop
 8002300:	58000400 	.word	0x58000400
 8002304:	e000ed00 	.word	0xe000ed00

08002308 <RCC_SetFlashLatency>:
  *            @arg PWR_REGULATOR_VOLTAGE_SCALE1   Regulator voltage output range 1 mode
  *            @arg PWR_REGULATOR_VOLTAGE_SCALE2   Regulator voltage output range 2 mode
  * @retval HAL status
  */
static HAL_StatusTypeDef RCC_SetFlashLatency(uint32_t Flash_ClkSrcFreq, uint32_t VCORE_Voltage)
{
 8002308:	b530      	push	{r4, r5, lr}
 800230a:	b089      	sub	sp, #36	; 0x24
 800230c:	4604      	mov	r4, r0
 800230e:	468c      	mov	ip, r1
  /* Flash Clock source (HCLK3) range in MHz for VCORE range1 */
  const uint16_t FLASH_CLK_SRC_RANGE_VOS1[] = {18, 36, 48};
 8002310:	4b2a      	ldr	r3, [pc, #168]	; (80023bc <RCC_SetFlashLatency+0xb4>)
 8002312:	e893 0003 	ldmia.w	r3, {r0, r1}
 8002316:	9006      	str	r0, [sp, #24]
 8002318:	f8ad 101c 	strh.w	r1, [sp, #28]

  /* Flash Clock source (HCLK3) range in MHz for VCORE range2 */
  const uint16_t FLASH_CLK_SRC_RANGE_VOS2[] = {6, 12, 16};
 800231c:	f103 0208 	add.w	r2, r3, #8
 8002320:	e892 0003 	ldmia.w	r2, {r0, r1}
 8002324:	9004      	str	r0, [sp, #16]
 8002326:	f8ad 1014 	strh.w	r1, [sp, #20]

  /* Flash Latency range */
  const uint32_t FLASH_LATENCY_RANGE[] = {FLASH_LATENCY_0, FLASH_LATENCY_1, FLASH_LATENCY_2};
 800232a:	ad01      	add	r5, sp, #4
 800232c:	3310      	adds	r3, #16
 800232e:	e893 0007 	ldmia.w	r3, {r0, r1, r2}
 8002332:	e885 0007 	stmia.w	r5, {r0, r1, r2}

  uint32_t latency   = FLASH_LATENCY_0;  /* default value 0WS */
  uint32_t tickstart;

  if (VCORE_Voltage == PWR_REGULATOR_VOLTAGE_SCALE1)
 8002336:	f5bc 7f00 	cmp.w	ip, #512	; 0x200
 800233a:	d007      	beq.n	800234c <RCC_SetFlashLatency+0x44>
      }
    }
  }
  else  /* PWR_REGULATOR_VOLTAGE_SCALE2 */
  {
    for (uint32_t index = 0; index < __COUNTOF(FLASH_CLK_SRC_RANGE_VOS2); index++)
 800233c:	2300      	movs	r3, #0
 800233e:	e014      	b.n	800236a <RCC_SetFlashLatency+0x62>
        latency = FLASH_LATENCY_RANGE[index];
 8002340:	aa08      	add	r2, sp, #32
 8002342:	eb02 0383 	add.w	r3, r2, r3, lsl #2
 8002346:	f853 5c1c 	ldr.w	r5, [r3, #-28]
        break;
 800234a:	e01e      	b.n	800238a <RCC_SetFlashLatency+0x82>
    for (uint32_t index = 0; index < __COUNTOF(FLASH_CLK_SRC_RANGE_VOS1); index++)
 800234c:	2300      	movs	r3, #0
 800234e:	2b02      	cmp	r3, #2
 8002350:	d808      	bhi.n	8002364 <RCC_SetFlashLatency+0x5c>
      if (Flash_ClkSrcFreq <= FLASH_CLK_SRC_RANGE_VOS1[index])
 8002352:	aa08      	add	r2, sp, #32
 8002354:	eb02 0243 	add.w	r2, r2, r3, lsl #1
 8002358:	f832 2c08 	ldrh.w	r2, [r2, #-8]
 800235c:	42a2      	cmp	r2, r4
 800235e:	d2ef      	bcs.n	8002340 <RCC_SetFlashLatency+0x38>
    for (uint32_t index = 0; index < __COUNTOF(FLASH_CLK_SRC_RANGE_VOS1); index++)
 8002360:	3301      	adds	r3, #1
 8002362:	e7f4      	b.n	800234e <RCC_SetFlashLatency+0x46>
  uint32_t latency   = FLASH_LATENCY_0;  /* default value 0WS */
 8002364:	2500      	movs	r5, #0
 8002366:	e010      	b.n	800238a <RCC_SetFlashLatency+0x82>
    for (uint32_t index = 0; index < __COUNTOF(FLASH_CLK_SRC_RANGE_VOS2); index++)
 8002368:	3301      	adds	r3, #1
 800236a:	2b02      	cmp	r3, #2
 800236c:	d80c      	bhi.n	8002388 <RCC_SetFlashLatency+0x80>
    {
      if (Flash_ClkSrcFreq <= FLASH_CLK_SRC_RANGE_VOS2[index])
 800236e:	aa08      	add	r2, sp, #32
 8002370:	eb02 0243 	add.w	r2, r2, r3, lsl #1
 8002374:	f832 2c10 	ldrh.w	r2, [r2, #-16]
 8002378:	42a2      	cmp	r2, r4
 800237a:	d3f5      	bcc.n	8002368 <RCC_SetFlashLatency+0x60>
      {
        latency = FLASH_LATENCY_RANGE[index];
 800237c:	aa08      	add	r2, sp, #32
 800237e:	eb02 0383 	add.w	r3, r2, r3, lsl #2
 8002382:	f853 5c1c 	ldr.w	r5, [r3, #-28]
        break;
 8002386:	e000      	b.n	800238a <RCC_SetFlashLatency+0x82>
  uint32_t latency   = FLASH_LATENCY_0;  /* default value 0WS */
 8002388:	2500      	movs	r5, #0
      }
    }
  }

  __HAL_FLASH_SET_LATENCY(latency);
 800238a:	4a0d      	ldr	r2, [pc, #52]	; (80023c0 <RCC_SetFlashLatency+0xb8>)
 800238c:	6813      	ldr	r3, [r2, #0]
 800238e:	f023 0307 	bic.w	r3, r3, #7
 8002392:	432b      	orrs	r3, r5
 8002394:	6013      	str	r3, [r2, #0]

  /* Get Start Tick*/
  tickstart = HAL_GetTick();
 8002396:	f7fe fb01 	bl	800099c <HAL_GetTick>
 800239a:	4604      	mov	r4, r0

  /* Check that the new number of wait states is taken into account to access the Flash
     memory by reading the FLASH_ACR register */
  while (__HAL_FLASH_GET_LATENCY() != latency)
 800239c:	4b08      	ldr	r3, [pc, #32]	; (80023c0 <RCC_SetFlashLatency+0xb8>)
 800239e:	681b      	ldr	r3, [r3, #0]
 80023a0:	f003 0307 	and.w	r3, r3, #7
 80023a4:	42ab      	cmp	r3, r5
 80023a6:	d006      	beq.n	80023b6 <RCC_SetFlashLatency+0xae>
  {
    if ((HAL_GetTick() - tickstart) > LATENCY_TIMEOUT_VALUE)
 80023a8:	f7fe faf8 	bl	800099c <HAL_GetTick>
 80023ac:	1b00      	subs	r0, r0, r4
 80023ae:	2802      	cmp	r0, #2
 80023b0:	d9f4      	bls.n	800239c <RCC_SetFlashLatency+0x94>
    {
      return HAL_TIMEOUT;
 80023b2:	2003      	movs	r0, #3
 80023b4:	e000      	b.n	80023b8 <RCC_SetFlashLatency+0xb0>
    }
  }
  return HAL_OK;
 80023b6:	2000      	movs	r0, #0
}
 80023b8:	b009      	add	sp, #36	; 0x24
 80023ba:	bd30      	pop	{r4, r5, pc}
 80023bc:	08009328 	.word	0x08009328
 80023c0:	58004000 	.word	0x58004000

080023c4 <RCC_SetFlashLatencyFromMSIRange>:
{
 80023c4:	b510      	push	{r4, lr}
  msifreq           = __LL_RCC_CALC_MSI_FREQ(LL_RCC_MSIRANGESEL_RUN, MSI_Range);
 80023c6:	f3c0 1003 	ubfx	r0, r0, #4, #4
 80023ca:	4b0c      	ldr	r3, [pc, #48]	; (80023fc <RCC_SetFlashLatencyFromMSIRange+0x38>)
 80023cc:	f853 4020 	ldr.w	r4, [r3, r0, lsl #2]
  return (uint32_t)(READ_BIT(RCC->EXTCFGR, RCC_EXTCFGR_SHDHPRE) << 4);
 80023d0:	f04f 43b0 	mov.w	r3, #1476395008	; 0x58000000
 80023d4:	f8d3 3108 	ldr.w	r3, [r3, #264]	; 0x108
  flash_clksrcfreq  = __LL_RCC_CALC_HCLK3_FREQ(msifreq, LL_RCC_GetAHB3Prescaler());
 80023d8:	f003 030f 	and.w	r3, r3, #15
 80023dc:	4a08      	ldr	r2, [pc, #32]	; (8002400 <RCC_SetFlashLatencyFromMSIRange+0x3c>)
 80023de:	f852 3023 	ldr.w	r3, [r2, r3, lsl #2]
 80023e2:	fbb4 f4f3 	udiv	r4, r4, r3
  return RCC_SetFlashLatency((flash_clksrcfreq / MEGA_HZ), HAL_PWREx_GetVoltageRange());
 80023e6:	f7ff ff3b 	bl	8002260 <HAL_PWREx_GetVoltageRange>
 80023ea:	4601      	mov	r1, r0
 80023ec:	4b05      	ldr	r3, [pc, #20]	; (8002404 <RCC_SetFlashLatencyFromMSIRange+0x40>)
 80023ee:	fba3 3404 	umull	r3, r4, r3, r4
 80023f2:	0ca0      	lsrs	r0, r4, #18
 80023f4:	f7ff ff88 	bl	8002308 <RCC_SetFlashLatency>
}
 80023f8:	bd10      	pop	{r4, pc}
 80023fa:	bf00      	nop
 80023fc:	08009624 	.word	0x08009624
 8002400:	080095c4 	.word	0x080095c4
 8002404:	431bde83 	.word	0x431bde83

08002408 <HAL_RCC_GetSysClockFreq>:
  return (uint32_t)(READ_BIT(RCC->CFGR, RCC_CFGR_SWS));
 8002408:	f04f 43b0 	mov.w	r3, #1476395008	; 0x58000000
 800240c:	6899      	ldr	r1, [r3, #8]
  *         @arg @ref LL_RCC_PLLSOURCE_HSI
  *         @arg @ref LL_RCC_PLLSOURCE_HSE
  */
__STATIC_INLINE uint32_t LL_RCC_PLL_GetMainSource(void)
{
  return (uint32_t)(READ_BIT(RCC->PLLCFGR, RCC_PLLCFGR_PLLSRC));
 800240e:	68db      	ldr	r3, [r3, #12]
 8002410:	f003 0303 	and.w	r3, r3, #3
  if ((sysclk_source == RCC_SYSCLKSOURCE_STATUS_MSI) ||
 8002414:	f011 010c 	ands.w	r1, r1, #12
 8002418:	d00a      	beq.n	8002430 <HAL_RCC_GetSysClockFreq+0x28>
 800241a:	290c      	cmp	r1, #12
 800241c:	d006      	beq.n	800242c <HAL_RCC_GetSysClockFreq+0x24>
  else if (sysclk_source == RCC_SYSCLKSOURCE_STATUS_HSI)
 800241e:	2904      	cmp	r1, #4
 8002420:	d047      	beq.n	80024b2 <HAL_RCC_GetSysClockFreq+0xaa>
  else if (sysclk_source == RCC_SYSCLKSOURCE_STATUS_HSE)
 8002422:	2908      	cmp	r1, #8
 8002424:	d03b      	beq.n	800249e <HAL_RCC_GetSysClockFreq+0x96>
  uint32_t msifreq = 0U;
 8002426:	2200      	movs	r2, #0
  uint32_t sysclockfreq = 0U;
 8002428:	4610      	mov	r0, r2
 800242a:	e026      	b.n	800247a <HAL_RCC_GetSysClockFreq+0x72>
      ((sysclk_source == RCC_SYSCLKSOURCE_STATUS_PLLCLK) && (pllsource == RCC_PLLSOURCE_MSI)))
 800242c:	2b01      	cmp	r3, #1
 800242e:	d1f6      	bne.n	800241e <HAL_RCC_GetSysClockFreq+0x16>
  return ((READ_BIT(RCC->CR, RCC_CR_MSIRGSEL) == (RCC_CR_MSIRGSEL)) ? 1UL : 0UL);
 8002430:	f04f 43b0 	mov.w	r3, #1476395008	; 0x58000000
 8002434:	681b      	ldr	r3, [r3, #0]
 8002436:	f013 0308 	ands.w	r3, r3, #8
 800243a:	d00d      	beq.n	8002458 <HAL_RCC_GetSysClockFreq+0x50>
 800243c:	f04f 43b0 	mov.w	r3, #1476395008	; 0x58000000
 8002440:	681b      	ldr	r3, [r3, #0]
 8002442:	f013 0308 	ands.w	r3, r3, #8
 8002446:	d124      	bne.n	8002492 <HAL_RCC_GetSysClockFreq+0x8a>
  return (uint32_t)(READ_BIT(RCC->CSR, RCC_CSR_MSISRANGE));
 8002448:	f04f 42b0 	mov.w	r2, #1476395008	; 0x58000000
 800244c:	f8d2 2094 	ldr.w	r2, [r2, #148]	; 0x94
    msifreq = __LL_RCC_CALC_MSI_FREQ(LL_RCC_MSI_IsEnabledRangeSelect(),
 8002450:	4a2e      	ldr	r2, [pc, #184]	; (800250c <HAL_RCC_GetSysClockFreq+0x104>)
 8002452:	f852 2023 	ldr.w	r2, [r2, r3, lsl #2]
 8002456:	e00e      	b.n	8002476 <HAL_RCC_GetSysClockFreq+0x6e>
  return ((READ_BIT(RCC->CR, RCC_CR_MSIRGSEL) == (RCC_CR_MSIRGSEL)) ? 1UL : 0UL);
 8002458:	f04f 42b0 	mov.w	r2, #1476395008	; 0x58000000
 800245c:	6812      	ldr	r2, [r2, #0]
 800245e:	f012 0f08 	tst.w	r2, #8
 8002462:	d112      	bne.n	800248a <HAL_RCC_GetSysClockFreq+0x82>
  return (uint32_t)(READ_BIT(RCC->CSR, RCC_CSR_MSISRANGE));
 8002464:	f04f 43b0 	mov.w	r3, #1476395008	; 0x58000000
 8002468:	f8d3 3094 	ldr.w	r3, [r3, #148]	; 0x94
 800246c:	f3c3 2303 	ubfx	r3, r3, #8, #4
 8002470:	4a26      	ldr	r2, [pc, #152]	; (800250c <HAL_RCC_GetSysClockFreq+0x104>)
 8002472:	f852 2023 	ldr.w	r2, [r2, r3, lsl #2]
    if (sysclk_source == RCC_SYSCLKSOURCE_STATUS_MSI)
 8002476:	b1d1      	cbz	r1, 80024ae <HAL_RCC_GetSysClockFreq+0xa6>
  uint32_t sysclockfreq = 0U;
 8002478:	2000      	movs	r0, #0
  return (uint32_t)(READ_BIT(RCC->CFGR, RCC_CFGR_SWS));
 800247a:	f04f 43b0 	mov.w	r3, #1476395008	; 0x58000000
 800247e:	689b      	ldr	r3, [r3, #8]
 8002480:	f003 030c 	and.w	r3, r3, #12
  if (__HAL_RCC_GET_SYSCLK_SOURCE() == RCC_SYSCLKSOURCE_STATUS_PLLCLK)
 8002484:	2b0c      	cmp	r3, #12
 8002486:	d01a      	beq.n	80024be <HAL_RCC_GetSysClockFreq+0xb6>
}
 8002488:	4770      	bx	lr
  return (uint32_t)(READ_BIT(RCC->CR, RCC_CR_MSIRANGE));
 800248a:	f04f 42b0 	mov.w	r2, #1476395008	; 0x58000000
 800248e:	6812      	ldr	r2, [r2, #0]
 8002490:	e7ee      	b.n	8002470 <HAL_RCC_GetSysClockFreq+0x68>
 8002492:	f04f 43b0 	mov.w	r3, #1476395008	; 0x58000000
 8002496:	681b      	ldr	r3, [r3, #0]
    msifreq = __LL_RCC_CALC_MSI_FREQ(LL_RCC_MSI_IsEnabledRangeSelect(),
 8002498:	f3c3 1303 	ubfx	r3, r3, #4, #4
 800249c:	e7d8      	b.n	8002450 <HAL_RCC_GetSysClockFreq+0x48>
  return ((READ_BIT(RCC->CR, RCC_CR_HSEPRE) == (RCC_CR_HSEPRE)) ? 1UL : 0UL);
 800249e:	f04f 43b0 	mov.w	r3, #1476395008	; 0x58000000
 80024a2:	681a      	ldr	r2, [r3, #0]
 80024a4:	f412 1280 	ands.w	r2, r2, #1048576	; 0x100000
 80024a8:	d106      	bne.n	80024b8 <HAL_RCC_GetSysClockFreq+0xb0>
      sysclockfreq = HSE_VALUE;
 80024aa:	4819      	ldr	r0, [pc, #100]	; (8002510 <HAL_RCC_GetSysClockFreq+0x108>)
 80024ac:	e7e5      	b.n	800247a <HAL_RCC_GetSysClockFreq+0x72>
      sysclockfreq = msifreq;
 80024ae:	4610      	mov	r0, r2
 80024b0:	e7e3      	b.n	800247a <HAL_RCC_GetSysClockFreq+0x72>
  uint32_t msifreq = 0U;
 80024b2:	2200      	movs	r2, #0
    sysclockfreq = HSI_VALUE;
 80024b4:	4817      	ldr	r0, [pc, #92]	; (8002514 <HAL_RCC_GetSysClockFreq+0x10c>)
 80024b6:	e7e0      	b.n	800247a <HAL_RCC_GetSysClockFreq+0x72>
  uint32_t msifreq = 0U;
 80024b8:	2200      	movs	r2, #0
      sysclockfreq = HSE_VALUE / 2U;
 80024ba:	4816      	ldr	r0, [pc, #88]	; (8002514 <HAL_RCC_GetSysClockFreq+0x10c>)
 80024bc:	e7dd      	b.n	800247a <HAL_RCC_GetSysClockFreq+0x72>
  return (uint32_t)(READ_BIT(RCC->PLLCFGR, RCC_PLLCFGR_PLLSRC));
 80024be:	f04f 43b0 	mov.w	r3, #1476395008	; 0x58000000
 80024c2:	68db      	ldr	r3, [r3, #12]
 80024c4:	f003 0303 	and.w	r3, r3, #3
    switch (pllsource)
 80024c8:	2b02      	cmp	r3, #2
 80024ca:	d009      	beq.n	80024e0 <HAL_RCC_GetSysClockFreq+0xd8>
 80024cc:	2b03      	cmp	r3, #3
 80024ce:	d108      	bne.n	80024e2 <HAL_RCC_GetSysClockFreq+0xda>
  return ((READ_BIT(RCC->CR, RCC_CR_HSEPRE) == (RCC_CR_HSEPRE)) ? 1UL : 0UL);
 80024d0:	f04f 43b0 	mov.w	r3, #1476395008	; 0x58000000
 80024d4:	681b      	ldr	r3, [r3, #0]
 80024d6:	f413 1f80 	tst.w	r3, #1048576	; 0x100000
 80024da:	d115      	bne.n	8002508 <HAL_RCC_GetSysClockFreq+0x100>
          pllinputfreq = HSE_VALUE;
 80024dc:	4a0c      	ldr	r2, [pc, #48]	; (8002510 <HAL_RCC_GetSysClockFreq+0x108>)
 80024de:	e000      	b.n	80024e2 <HAL_RCC_GetSysClockFreq+0xda>
    switch (pllsource)
 80024e0:	4a0c      	ldr	r2, [pc, #48]	; (8002514 <HAL_RCC_GetSysClockFreq+0x10c>)
  return (uint32_t)(READ_BIT(RCC->PLLCFGR, RCC_PLLCFGR_PLLN) >>  RCC_PLLCFGR_PLLN_Pos);
 80024e2:	f04f 41b0 	mov.w	r1, #1476395008	; 0x58000000
 80024e6:	68cb      	ldr	r3, [r1, #12]
 80024e8:	f3c3 2306 	ubfx	r3, r3, #8, #7
    sysclockfreq = __LL_RCC_CALC_PLLCLK_FREQ(pllinputfreq, LL_RCC_PLL_GetDivider(),
 80024ec:	fb03 f202 	mul.w	r2, r3, r2
  return (uint32_t)(READ_BIT(RCC->PLLCFGR, RCC_PLLCFGR_PLLM));
 80024f0:	68cb      	ldr	r3, [r1, #12]
 80024f2:	f3c3 1302 	ubfx	r3, r3, #4, #3
 80024f6:	3301      	adds	r3, #1
 80024f8:	fbb2 f2f3 	udiv	r2, r2, r3
  return (uint32_t)(READ_BIT(RCC->PLLCFGR, RCC_PLLCFGR_PLLR));
 80024fc:	68c8      	ldr	r0, [r1, #12]
 80024fe:	0f40      	lsrs	r0, r0, #29
 8002500:	3001      	adds	r0, #1
 8002502:	fbb2 f0f0 	udiv	r0, r2, r0
  return sysclockfreq;
 8002506:	e7bf      	b.n	8002488 <HAL_RCC_GetSysClockFreq+0x80>
          pllinputfreq = HSE_VALUE / 2U;
 8002508:	4a02      	ldr	r2, [pc, #8]	; (8002514 <HAL_RCC_GetSysClockFreq+0x10c>)
 800250a:	e7ea      	b.n	80024e2 <HAL_RCC_GetSysClockFreq+0xda>
 800250c:	08009624 	.word	0x08009624
 8002510:	01e84800 	.word	0x01e84800
 8002514:	00f42400 	.word	0x00f42400

08002518 <HAL_RCC_GetHCLKFreq>:
{
 8002518:	b508      	push	{r3, lr}
  return ((uint32_t)(__LL_RCC_CALC_HCLK1_FREQ(HAL_RCC_GetSysClockFreq(), LL_RCC_GetAHBPrescaler())));
 800251a:	f7ff ff75 	bl	8002408 <HAL_RCC_GetSysClockFreq>
  return (uint32_t)(READ_BIT(RCC->CFGR, RCC_CFGR_HPRE));
 800251e:	f04f 43b0 	mov.w	r3, #1476395008	; 0x58000000
 8002522:	689b      	ldr	r3, [r3, #8]
 8002524:	f3c3 1303 	ubfx	r3, r3, #4, #4
 8002528:	4a02      	ldr	r2, [pc, #8]	; (8002534 <HAL_RCC_GetHCLKFreq+0x1c>)
 800252a:	f852 3023 	ldr.w	r3, [r2, r3, lsl #2]
}
 800252e:	fbb0 f0f3 	udiv	r0, r0, r3
 8002532:	bd08      	pop	{r3, pc}
 8002534:	080095c4 	.word	0x080095c4

08002538 <HAL_RCC_OscConfig>:
  if (RCC_OscInitStruct == NULL)
 8002538:	2800      	cmp	r0, #0
 800253a:	f000 8311 	beq.w	8002b60 <HAL_RCC_OscConfig+0x628>
{
 800253e:	b5f8      	push	{r3, r4, r5, r6, r7, lr}
 8002540:	4604      	mov	r4, r0
  return (uint32_t)(READ_BIT(RCC->CFGR, RCC_CFGR_SWS));
 8002542:	f04f 43b0 	mov.w	r3, #1476395008	; 0x58000000
 8002546:	689d      	ldr	r5, [r3, #8]
 8002548:	f005 050c 	and.w	r5, r5, #12
  return (uint32_t)(READ_BIT(RCC->PLLCFGR, RCC_PLLCFGR_PLLSRC));
 800254c:	68de      	ldr	r6, [r3, #12]
 800254e:	f006 0603 	and.w	r6, r6, #3
  if (((RCC_OscInitStruct->OscillatorType) & RCC_OSCILLATORTYPE_MSI) == RCC_OSCILLATORTYPE_MSI)
 8002552:	6803      	ldr	r3, [r0, #0]
 8002554:	f013 0f20 	tst.w	r3, #32
 8002558:	d02a      	beq.n	80025b0 <HAL_RCC_OscConfig+0x78>
    if ((sysclk_source == RCC_SYSCLKSOURCE_STATUS_MSI) ||
 800255a:	2d00      	cmp	r5, #0
 800255c:	d065      	beq.n	800262a <HAL_RCC_OscConfig+0xf2>
 800255e:	2d0c      	cmp	r5, #12
 8002560:	d061      	beq.n	8002626 <HAL_RCC_OscConfig+0xee>
      if (RCC_OscInitStruct->MSIState != RCC_MSI_OFF)
 8002562:	6a23      	ldr	r3, [r4, #32]
 8002564:	2b00      	cmp	r3, #0
 8002566:	f000 80bf 	beq.w	80026e8 <HAL_RCC_OscConfig+0x1b0>
  SET_BIT(RCC->CR, RCC_CR_MSION);
 800256a:	f04f 42b0 	mov.w	r2, #1476395008	; 0x58000000
 800256e:	6813      	ldr	r3, [r2, #0]
 8002570:	f043 0301 	orr.w	r3, r3, #1
 8002574:	6013      	str	r3, [r2, #0]
        tickstart = HAL_GetTick();
 8002576:	f7fe fa11 	bl	800099c <HAL_GetTick>
 800257a:	4607      	mov	r7, r0
  return ((READ_BIT(RCC->CR, RCC_CR_MSIRDY) == (RCC_CR_MSIRDY)) ? 1UL : 0UL);
 800257c:	f04f 43b0 	mov.w	r3, #1476395008	; 0x58000000
 8002580:	681b      	ldr	r3, [r3, #0]
 8002582:	f013 0f02 	tst.w	r3, #2
 8002586:	f000 80a7 	beq.w	80026d8 <HAL_RCC_OscConfig+0x1a0>
        __HAL_RCC_MSI_RANGE_CONFIG(RCC_OscInitStruct->MSIClockRange);
 800258a:	f04f 43b0 	mov.w	r3, #1476395008	; 0x58000000
 800258e:	681a      	ldr	r2, [r3, #0]
 8002590:	f042 0208 	orr.w	r2, r2, #8
 8002594:	601a      	str	r2, [r3, #0]
 8002596:	681a      	ldr	r2, [r3, #0]
 8002598:	f022 02f0 	bic.w	r2, r2, #240	; 0xf0
 800259c:	6aa1      	ldr	r1, [r4, #40]	; 0x28
 800259e:	430a      	orrs	r2, r1
 80025a0:	601a      	str	r2, [r3, #0]
        __HAL_RCC_MSI_CALIBRATIONVALUE_ADJUST(RCC_OscInitStruct->MSICalibrationValue);
 80025a2:	6a61      	ldr	r1, [r4, #36]	; 0x24
  MODIFY_REG(RCC->ICSCR, RCC_ICSCR_MSITRIM, Value << RCC_ICSCR_MSITRIM_Pos);
 80025a4:	685a      	ldr	r2, [r3, #4]
 80025a6:	f422 427f 	bic.w	r2, r2, #65280	; 0xff00
 80025aa:	ea42 2201 	orr.w	r2, r2, r1, lsl #8
 80025ae:	605a      	str	r2, [r3, #4]
  if (((RCC_OscInitStruct->OscillatorType) & RCC_OSCILLATORTYPE_HSE) == RCC_OSCILLATORTYPE_HSE)
 80025b0:	6823      	ldr	r3, [r4, #0]
 80025b2:	f013 0f01 	tst.w	r3, #1
 80025b6:	f000 80b5 	beq.w	8002724 <HAL_RCC_OscConfig+0x1ec>
    if ((sysclk_source == RCC_SYSCLKSOURCE_STATUS_HSE) ||
 80025ba:	2d08      	cmp	r5, #8
 80025bc:	f000 80ae 	beq.w	800271c <HAL_RCC_OscConfig+0x1e4>
 80025c0:	2d0c      	cmp	r5, #12
 80025c2:	f000 80a8 	beq.w	8002716 <HAL_RCC_OscConfig+0x1de>
      MODIFY_REG(RCC->CR, RCC_CR_HSEPRE, RCC_OscInitStruct->HSEDiv);
 80025c6:	f04f 42b0 	mov.w	r2, #1476395008	; 0x58000000
 80025ca:	6813      	ldr	r3, [r2, #0]
 80025cc:	f423 1380 	bic.w	r3, r3, #1048576	; 0x100000
 80025d0:	68a1      	ldr	r1, [r4, #8]
 80025d2:	430b      	orrs	r3, r1
 80025d4:	6013      	str	r3, [r2, #0]
      __HAL_RCC_HSE_CONFIG(RCC_OscInitStruct->HSEState);
 80025d6:	6863      	ldr	r3, [r4, #4]
 80025d8:	f5b3 3f80 	cmp.w	r3, #65536	; 0x10000
 80025dc:	f000 80c4 	beq.w	8002768 <HAL_RCC_OscConfig+0x230>
 80025e0:	f5b3 1f04 	cmp.w	r3, #2162688	; 0x210000
 80025e4:	f000 80c5 	beq.w	8002772 <HAL_RCC_OscConfig+0x23a>
  CLEAR_BIT(RCC->CR, RCC_CR_HSEON);
 80025e8:	f04f 43b0 	mov.w	r3, #1476395008	; 0x58000000
 80025ec:	681a      	ldr	r2, [r3, #0]
 80025ee:	f422 3280 	bic.w	r2, r2, #65536	; 0x10000
 80025f2:	601a      	str	r2, [r3, #0]
  CLEAR_BIT(RCC->CR, RCC_CR_HSEBYPPWR);
 80025f4:	681a      	ldr	r2, [r3, #0]
 80025f6:	f422 1200 	bic.w	r2, r2, #2097152	; 0x200000
 80025fa:	601a      	str	r2, [r3, #0]
      if (RCC_OscInitStruct->HSEState != RCC_HSE_OFF)
 80025fc:	6863      	ldr	r3, [r4, #4]
 80025fe:	2b00      	cmp	r3, #0
 8002600:	f000 80c2 	beq.w	8002788 <HAL_RCC_OscConfig+0x250>
        tickstart = HAL_GetTick();
 8002604:	f7fe f9ca 	bl	800099c <HAL_GetTick>
 8002608:	4607      	mov	r7, r0
  return ((READ_BIT(RCC->CR, RCC_CR_HSERDY) == (RCC_CR_HSERDY)) ? 1UL : 0UL);
 800260a:	f04f 43b0 	mov.w	r3, #1476395008	; 0x58000000
 800260e:	681b      	ldr	r3, [r3, #0]
 8002610:	f413 3f00 	tst.w	r3, #131072	; 0x20000
 8002614:	f040 8086 	bne.w	8002724 <HAL_RCC_OscConfig+0x1ec>
          if ((HAL_GetTick() - tickstart) > HSE_TIMEOUT_VALUE)
 8002618:	f7fe f9c0 	bl	800099c <HAL_GetTick>
 800261c:	1bc0      	subs	r0, r0, r7
 800261e:	2864      	cmp	r0, #100	; 0x64
 8002620:	d9f3      	bls.n	800260a <HAL_RCC_OscConfig+0xd2>
            return HAL_TIMEOUT;
 8002622:	2003      	movs	r0, #3
 8002624:	e2a9      	b.n	8002b7a <HAL_RCC_OscConfig+0x642>
        ((sysclk_source == RCC_SYSCLKSOURCE_STATUS_PLLCLK) && (pll_config == RCC_PLLSOURCE_MSI)))
 8002626:	2e01      	cmp	r6, #1
 8002628:	d19b      	bne.n	8002562 <HAL_RCC_OscConfig+0x2a>
      if (RCC_OscInitStruct->MSIState == RCC_MSI_OFF)
 800262a:	6a23      	ldr	r3, [r4, #32]
 800262c:	2b00      	cmp	r3, #0
 800262e:	f000 8299 	beq.w	8002b64 <HAL_RCC_OscConfig+0x62c>
        if (RCC_OscInitStruct->MSIClockRange > __HAL_RCC_GET_MSI_RANGE())
 8002632:	6aa0      	ldr	r0, [r4, #40]	; 0x28
 8002634:	f04f 43b0 	mov.w	r3, #1476395008	; 0x58000000
 8002638:	681b      	ldr	r3, [r3, #0]
 800263a:	f013 0f08 	tst.w	r3, #8
 800263e:	d029      	beq.n	8002694 <HAL_RCC_OscConfig+0x15c>
 8002640:	f04f 43b0 	mov.w	r3, #1476395008	; 0x58000000
 8002644:	681b      	ldr	r3, [r3, #0]
 8002646:	f003 03f0 	and.w	r3, r3, #240	; 0xf0
 800264a:	4298      	cmp	r0, r3
 800264c:	d92a      	bls.n	80026a4 <HAL_RCC_OscConfig+0x16c>
          if (RCC_SetFlashLatencyFromMSIRange(RCC_OscInitStruct->MSIClockRange) != HAL_OK)
 800264e:	f7ff feb9 	bl	80023c4 <RCC_SetFlashLatencyFromMSIRange>
 8002652:	2800      	cmp	r0, #0
 8002654:	f040 8288 	bne.w	8002b68 <HAL_RCC_OscConfig+0x630>
          __HAL_RCC_MSI_RANGE_CONFIG(RCC_OscInitStruct->MSIClockRange);
 8002658:	f04f 43b0 	mov.w	r3, #1476395008	; 0x58000000
 800265c:	681a      	ldr	r2, [r3, #0]
 800265e:	f042 0208 	orr.w	r2, r2, #8
 8002662:	601a      	str	r2, [r3, #0]
 8002664:	681a      	ldr	r2, [r3, #0]
 8002666:	f022 02f0 	bic.w	r2, r2, #240	; 0xf0
 800266a:	6aa1      	ldr	r1, [r4, #40]	; 0x28
 800266c:	430a      	orrs	r2, r1
 800266e:	601a      	str	r2, [r3, #0]
          __HAL_RCC_MSI_CALIBRATIONVALUE_ADJUST(RCC_OscInitStruct->MSICalibrationValue);
 8002670:	6a61      	ldr	r1, [r4, #36]	; 0x24
  MODIFY_REG(RCC->ICSCR, RCC_ICSCR_MSITRIM, Value << RCC_ICSCR_MSITRIM_Pos);
 8002672:	685a      	ldr	r2, [r3, #4]
 8002674:	f422 427f 	bic.w	r2, r2, #65280	; 0xff00
 8002678:	ea42 2201 	orr.w	r2, r2, r1, lsl #8
 800267c:	605a      	str	r2, [r3, #4]
        SystemCoreClock = HAL_RCC_GetHCLKFreq();
 800267e:	f7ff ff4b 	bl	8002518 <HAL_RCC_GetHCLKFreq>
 8002682:	4bba      	ldr	r3, [pc, #744]	; (800296c <HAL_RCC_OscConfig+0x434>)
 8002684:	6018      	str	r0, [r3, #0]
        status = HAL_InitTick(uwTickPrio);
 8002686:	4bba      	ldr	r3, [pc, #744]	; (8002970 <HAL_RCC_OscConfig+0x438>)
 8002688:	6818      	ldr	r0, [r3, #0]
 800268a:	f7fe f985 	bl	8000998 <HAL_InitTick>
        if (status != HAL_OK)
 800268e:	2800      	cmp	r0, #0
 8002690:	d08e      	beq.n	80025b0 <HAL_RCC_OscConfig+0x78>
 8002692:	e272      	b.n	8002b7a <HAL_RCC_OscConfig+0x642>
        if (RCC_OscInitStruct->MSIClockRange > __HAL_RCC_GET_MSI_RANGE())
 8002694:	f04f 43b0 	mov.w	r3, #1476395008	; 0x58000000
 8002698:	f8d3 3094 	ldr.w	r3, [r3, #148]	; 0x94
 800269c:	091b      	lsrs	r3, r3, #4
 800269e:	f003 03f0 	and.w	r3, r3, #240	; 0xf0
 80026a2:	e7d2      	b.n	800264a <HAL_RCC_OscConfig+0x112>
          __HAL_RCC_MSI_RANGE_CONFIG(RCC_OscInitStruct->MSIClockRange);
 80026a4:	f04f 43b0 	mov.w	r3, #1476395008	; 0x58000000
 80026a8:	681a      	ldr	r2, [r3, #0]
 80026aa:	f042 0208 	orr.w	r2, r2, #8
 80026ae:	601a      	str	r2, [r3, #0]
 80026b0:	681a      	ldr	r2, [r3, #0]
 80026b2:	f022 02f0 	bic.w	r2, r2, #240	; 0xf0
 80026b6:	6aa1      	ldr	r1, [r4, #40]	; 0x28
 80026b8:	430a      	orrs	r2, r1
 80026ba:	601a      	str	r2, [r3, #0]
          __HAL_RCC_MSI_CALIBRATIONVALUE_ADJUST(RCC_OscInitStruct->MSICalibrationValue);
 80026bc:	6a61      	ldr	r1, [r4, #36]	; 0x24
 80026be:	685a      	ldr	r2, [r3, #4]
 80026c0:	f422 427f 	bic.w	r2, r2, #65280	; 0xff00
 80026c4:	ea42 2201 	orr.w	r2, r2, r1, lsl #8
 80026c8:	605a      	str	r2, [r3, #4]
          if (RCC_SetFlashLatencyFromMSIRange(RCC_OscInitStruct->MSIClockRange) != HAL_OK)
 80026ca:	6aa0      	ldr	r0, [r4, #40]	; 0x28
 80026cc:	f7ff fe7a 	bl	80023c4 <RCC_SetFlashLatencyFromMSIRange>
 80026d0:	2800      	cmp	r0, #0
 80026d2:	d0d4      	beq.n	800267e <HAL_RCC_OscConfig+0x146>
            return HAL_ERROR;
 80026d4:	2001      	movs	r0, #1
 80026d6:	e250      	b.n	8002b7a <HAL_RCC_OscConfig+0x642>
          if ((HAL_GetTick() - tickstart) > MSI_TIMEOUT_VALUE)
 80026d8:	f7fe f960 	bl	800099c <HAL_GetTick>
 80026dc:	1bc0      	subs	r0, r0, r7
 80026de:	2802      	cmp	r0, #2
 80026e0:	f67f af4c 	bls.w	800257c <HAL_RCC_OscConfig+0x44>
            return HAL_TIMEOUT;
 80026e4:	2003      	movs	r0, #3
 80026e6:	e248      	b.n	8002b7a <HAL_RCC_OscConfig+0x642>
  CLEAR_BIT(RCC->CR, RCC_CR_MSION);
 80026e8:	f04f 42b0 	mov.w	r2, #1476395008	; 0x58000000
 80026ec:	6813      	ldr	r3, [r2, #0]
 80026ee:	f023 0301 	bic.w	r3, r3, #1
 80026f2:	6013      	str	r3, [r2, #0]
        tickstart = HAL_GetTick();
 80026f4:	f7fe f952 	bl	800099c <HAL_GetTick>
 80026f8:	4607      	mov	r7, r0
  return ((READ_BIT(RCC->CR, RCC_CR_MSIRDY) == (RCC_CR_MSIRDY)) ? 1UL : 0UL);
 80026fa:	f04f 43b0 	mov.w	r3, #1476395008	; 0x58000000
 80026fe:	681b      	ldr	r3, [r3, #0]
 8002700:	f013 0f02 	tst.w	r3, #2
 8002704:	f43f af54 	beq.w	80025b0 <HAL_RCC_OscConfig+0x78>
          if ((HAL_GetTick() - tickstart) > MSI_TIMEOUT_VALUE)
 8002708:	f7fe f948 	bl	800099c <HAL_GetTick>
 800270c:	1bc0      	subs	r0, r0, r7
 800270e:	2802      	cmp	r0, #2
 8002710:	d9f3      	bls.n	80026fa <HAL_RCC_OscConfig+0x1c2>
            return HAL_TIMEOUT;
 8002712:	2003      	movs	r0, #3
 8002714:	e231      	b.n	8002b7a <HAL_RCC_OscConfig+0x642>
        ((sysclk_source == RCC_SYSCLKSOURCE_STATUS_PLLCLK) && (pll_config == RCC_PLLSOURCE_HSE)))
 8002716:	2e03      	cmp	r6, #3
 8002718:	f47f af55 	bne.w	80025c6 <HAL_RCC_OscConfig+0x8e>
      if (RCC_OscInitStruct->HSEState == RCC_HSE_OFF)
 800271c:	6863      	ldr	r3, [r4, #4]
 800271e:	2b00      	cmp	r3, #0
 8002720:	f000 8224 	beq.w	8002b6c <HAL_RCC_OscConfig+0x634>
  if (((RCC_OscInitStruct->OscillatorType) & RCC_OSCILLATORTYPE_HSI) == RCC_OSCILLATORTYPE_HSI)
 8002724:	6823      	ldr	r3, [r4, #0]
 8002726:	f013 0f02 	tst.w	r3, #2
 800272a:	d056      	beq.n	80027da <HAL_RCC_OscConfig+0x2a2>
    if ((sysclk_source == RCC_SYSCLKSOURCE_STATUS_HSI) ||
 800272c:	2d04      	cmp	r5, #4
 800272e:	d03d      	beq.n	80027ac <HAL_RCC_OscConfig+0x274>
 8002730:	2d0c      	cmp	r5, #12
 8002732:	d039      	beq.n	80027a8 <HAL_RCC_OscConfig+0x270>
      if (RCC_OscInitStruct->HSIState != RCC_HSI_OFF)
 8002734:	6923      	ldr	r3, [r4, #16]
 8002736:	2b00      	cmp	r3, #0
 8002738:	f000 808a 	beq.w	8002850 <HAL_RCC_OscConfig+0x318>
  SET_BIT(RCC->CR, RCC_CR_HSION);
 800273c:	f04f 42b0 	mov.w	r2, #1476395008	; 0x58000000
 8002740:	6813      	ldr	r3, [r2, #0]
 8002742:	f443 7380 	orr.w	r3, r3, #256	; 0x100
 8002746:	6013      	str	r3, [r2, #0]
        tickstart = HAL_GetTick();
 8002748:	f7fe f928 	bl	800099c <HAL_GetTick>
 800274c:	4606      	mov	r6, r0
  return ((READ_BIT(RCC->CR, RCC_CR_HSIRDY) == (RCC_CR_HSIRDY)) ? 1UL : 0UL);
 800274e:	f04f 43b0 	mov.w	r3, #1476395008	; 0x58000000
 8002752:	681b      	ldr	r3, [r3, #0]
 8002754:	f413 6f80 	tst.w	r3, #1024	; 0x400
 8002758:	d136      	bne.n	80027c8 <HAL_RCC_OscConfig+0x290>
          if ((HAL_GetTick() - tickstart) > HSI_TIMEOUT_VALUE)
 800275a:	f7fe f91f 	bl	800099c <HAL_GetTick>
 800275e:	1b80      	subs	r0, r0, r6
 8002760:	2802      	cmp	r0, #2
 8002762:	d9f4      	bls.n	800274e <HAL_RCC_OscConfig+0x216>
            return HAL_TIMEOUT;
 8002764:	2003      	movs	r0, #3
 8002766:	e208      	b.n	8002b7a <HAL_RCC_OscConfig+0x642>
  SET_BIT(RCC->CR, RCC_CR_HSEON);
 8002768:	6813      	ldr	r3, [r2, #0]
 800276a:	f443 3380 	orr.w	r3, r3, #65536	; 0x10000
 800276e:	6013      	str	r3, [r2, #0]
}
 8002770:	e744      	b.n	80025fc <HAL_RCC_OscConfig+0xc4>
  SET_BIT(RCC->CR, RCC_CR_HSEBYPPWR);
 8002772:	f04f 43b0 	mov.w	r3, #1476395008	; 0x58000000
 8002776:	681a      	ldr	r2, [r3, #0]
 8002778:	f442 1200 	orr.w	r2, r2, #2097152	; 0x200000
 800277c:	601a      	str	r2, [r3, #0]
  SET_BIT(RCC->CR, RCC_CR_HSEON);
 800277e:	681a      	ldr	r2, [r3, #0]
 8002780:	f442 3280 	orr.w	r2, r2, #65536	; 0x10000
 8002784:	601a      	str	r2, [r3, #0]
}
 8002786:	e739      	b.n	80025fc <HAL_RCC_OscConfig+0xc4>
        tickstart = HAL_GetTick();
 8002788:	f7fe f908 	bl	800099c <HAL_GetTick>
 800278c:	4607      	mov	r7, r0
  return ((READ_BIT(RCC->CR, RCC_CR_HSERDY) == (RCC_CR_HSERDY)) ? 1UL : 0UL);
 800278e:	f04f 43b0 	mov.w	r3, #1476395008	; 0x58000000
 8002792:	681b      	ldr	r3, [r3, #0]
 8002794:	f413 3f00 	tst.w	r3, #131072	; 0x20000
 8002798:	d0c4      	beq.n	8002724 <HAL_RCC_OscConfig+0x1ec>
          if ((HAL_GetTick() - tickstart) > HSE_TIMEOUT_VALUE)
 800279a:	f7fe f8ff 	bl	800099c <HAL_GetTick>
 800279e:	1bc0      	subs	r0, r0, r7
 80027a0:	2864      	cmp	r0, #100	; 0x64
 80027a2:	d9f4      	bls.n	800278e <HAL_RCC_OscConfig+0x256>
            return HAL_TIMEOUT;
 80027a4:	2003      	movs	r0, #3
 80027a6:	e1e8      	b.n	8002b7a <HAL_RCC_OscConfig+0x642>
        ((sysclk_source == RCC_SYSCLKSOURCE_STATUS_PLLCLK) && (pll_config == RCC_PLLSOURCE_HSI)))
 80027a8:	2e02      	cmp	r6, #2
 80027aa:	d1c3      	bne.n	8002734 <HAL_RCC_OscConfig+0x1fc>
      if (RCC_OscInitStruct->HSIState == RCC_HSI_OFF)
 80027ac:	6923      	ldr	r3, [r4, #16]
 80027ae:	2b00      	cmp	r3, #0
 80027b0:	f000 81de 	beq.w	8002b70 <HAL_RCC_OscConfig+0x638>
        __HAL_RCC_HSI_CALIBRATIONVALUE_ADJUST(RCC_OscInitStruct->HSICalibrationValue);
 80027b4:	6961      	ldr	r1, [r4, #20]
  MODIFY_REG(RCC->ICSCR, RCC_ICSCR_HSITRIM, Value << RCC_ICSCR_HSITRIM_Pos);
 80027b6:	f04f 42b0 	mov.w	r2, #1476395008	; 0x58000000
 80027ba:	6853      	ldr	r3, [r2, #4]
 80027bc:	f023 43fe 	bic.w	r3, r3, #2130706432	; 0x7f000000
 80027c0:	ea43 6301 	orr.w	r3, r3, r1, lsl #24
 80027c4:	6053      	str	r3, [r2, #4]
}
 80027c6:	e008      	b.n	80027da <HAL_RCC_OscConfig+0x2a2>
        __HAL_RCC_HSI_CALIBRATIONVALUE_ADJUST(RCC_OscInitStruct->HSICalibrationValue);
 80027c8:	6961      	ldr	r1, [r4, #20]
  MODIFY_REG(RCC->ICSCR, RCC_ICSCR_HSITRIM, Value << RCC_ICSCR_HSITRIM_Pos);
 80027ca:	f04f 42b0 	mov.w	r2, #1476395008	; 0x58000000
 80027ce:	6853      	ldr	r3, [r2, #4]
 80027d0:	f023 43fe 	bic.w	r3, r3, #2130706432	; 0x7f000000
 80027d4:	ea43 6301 	orr.w	r3, r3, r1, lsl #24
 80027d8:	6053      	str	r3, [r2, #4]
  if (((RCC_OscInitStruct->OscillatorType) & RCC_OSCILLATORTYPE_LSI) == RCC_OSCILLATORTYPE_LSI)
 80027da:	6823      	ldr	r3, [r4, #0]
 80027dc:	f013 0f08 	tst.w	r3, #8
 80027e0:	d07e      	beq.n	80028e0 <HAL_RCC_OscConfig+0x3a8>
    if (RCC_OscInitStruct->LSIState != RCC_LSI_OFF)
 80027e2:	69a3      	ldr	r3, [r4, #24]
 80027e4:	2b00      	cmp	r3, #0
 80027e6:	d062      	beq.n	80028ae <HAL_RCC_OscConfig+0x376>
      uint32_t csr_temp = RCC->CSR;
 80027e8:	f04f 43b0 	mov.w	r3, #1476395008	; 0x58000000
 80027ec:	f8d3 3094 	ldr.w	r3, [r3, #148]	; 0x94
      if (RCC_OscInitStruct->LSIDiv != (csr_temp & RCC_CSR_LSIPRE))
 80027f0:	69e1      	ldr	r1, [r4, #28]
 80027f2:	f003 0210 	and.w	r2, r3, #16
 80027f6:	4291      	cmp	r1, r2
 80027f8:	d011      	beq.n	800281e <HAL_RCC_OscConfig+0x2e6>
        if (((csr_temp & RCC_CSR_LSIRDY) == RCC_CSR_LSIRDY) && \
 80027fa:	f003 0203 	and.w	r2, r3, #3
 80027fe:	2a02      	cmp	r2, #2
 8002800:	f000 81b8 	beq.w	8002b74 <HAL_RCC_OscConfig+0x63c>
        if ((csr_temp & RCC_CSR_LSION) == RCC_CSR_LSION)
 8002804:	f013 0f01 	tst.w	r3, #1
 8002808:	d138      	bne.n	800287c <HAL_RCC_OscConfig+0x344>
        MODIFY_REG(RCC->CSR, RCC_CSR_LSIPRE, RCC_OscInitStruct->LSIDiv);
 800280a:	f04f 42b0 	mov.w	r2, #1476395008	; 0x58000000
 800280e:	f8d2 3094 	ldr.w	r3, [r2, #148]	; 0x94
 8002812:	f023 0310 	bic.w	r3, r3, #16
 8002816:	69e1      	ldr	r1, [r4, #28]
 8002818:	430b      	orrs	r3, r1
 800281a:	f8c2 3094 	str.w	r3, [r2, #148]	; 0x94
  SET_BIT(RCC->CSR, RCC_CSR_LSION);
 800281e:	f04f 42b0 	mov.w	r2, #1476395008	; 0x58000000
 8002822:	f8d2 3094 	ldr.w	r3, [r2, #148]	; 0x94
 8002826:	f043 0301 	orr.w	r3, r3, #1
 800282a:	f8c2 3094 	str.w	r3, [r2, #148]	; 0x94
      tickstart = HAL_GetTick();
 800282e:	f7fe f8b5 	bl	800099c <HAL_GetTick>
 8002832:	4606      	mov	r6, r0
  return ((READ_BIT(RCC->CSR, RCC_CSR_LSIRDY) == (RCC_CSR_LSIRDY)) ? 1UL : 0UL);
 8002834:	f04f 43b0 	mov.w	r3, #1476395008	; 0x58000000
 8002838:	f8d3 3094 	ldr.w	r3, [r3, #148]	; 0x94
 800283c:	f013 0f02 	tst.w	r3, #2
 8002840:	d14e      	bne.n	80028e0 <HAL_RCC_OscConfig+0x3a8>
        if ((HAL_GetTick() - tickstart) > LSI_TIMEOUT_VALUE)
 8002842:	f7fe f8ab 	bl	800099c <HAL_GetTick>
 8002846:	1b80      	subs	r0, r0, r6
 8002848:	2811      	cmp	r0, #17
 800284a:	d9f3      	bls.n	8002834 <HAL_RCC_OscConfig+0x2fc>
          return HAL_TIMEOUT;
 800284c:	2003      	movs	r0, #3
 800284e:	e194      	b.n	8002b7a <HAL_RCC_OscConfig+0x642>
  CLEAR_BIT(RCC->CR, RCC_CR_HSION);
 8002850:	f04f 42b0 	mov.w	r2, #1476395008	; 0x58000000
 8002854:	6813      	ldr	r3, [r2, #0]
 8002856:	f423 7380 	bic.w	r3, r3, #256	; 0x100
 800285a:	6013      	str	r3, [r2, #0]
        tickstart = HAL_GetTick();
 800285c:	f7fe f89e 	bl	800099c <HAL_GetTick>
 8002860:	4606      	mov	r6, r0
  return ((READ_BIT(RCC->CR, RCC_CR_HSIRDY) == (RCC_CR_HSIRDY)) ? 1UL : 0UL);
 8002862:	f04f 43b0 	mov.w	r3, #1476395008	; 0x58000000
 8002866:	681b      	ldr	r3, [r3, #0]
 8002868:	f413 6f80 	tst.w	r3, #1024	; 0x400
 800286c:	d0b5      	beq.n	80027da <HAL_RCC_OscConfig+0x2a2>
          if ((HAL_GetTick() - tickstart) > HSI_TIMEOUT_VALUE)
 800286e:	f7fe f895 	bl	800099c <HAL_GetTick>
 8002872:	1b80      	subs	r0, r0, r6
 8002874:	2802      	cmp	r0, #2
 8002876:	d9f4      	bls.n	8002862 <HAL_RCC_OscConfig+0x32a>
            return HAL_TIMEOUT;
 8002878:	2003      	movs	r0, #3
 800287a:	e17e      	b.n	8002b7a <HAL_RCC_OscConfig+0x642>
  CLEAR_BIT(RCC->CSR, RCC_CSR_LSION);
 800287c:	f04f 42b0 	mov.w	r2, #1476395008	; 0x58000000
 8002880:	f8d2 3094 	ldr.w	r3, [r2, #148]	; 0x94
 8002884:	f023 0301 	bic.w	r3, r3, #1
 8002888:	f8c2 3094 	str.w	r3, [r2, #148]	; 0x94
          tickstart = HAL_GetTick();
 800288c:	f7fe f886 	bl	800099c <HAL_GetTick>
 8002890:	4606      	mov	r6, r0
  return ((READ_BIT(RCC->CSR, RCC_CSR_LSIRDY) == (RCC_CSR_LSIRDY)) ? 1UL : 0UL);
 8002892:	f04f 43b0 	mov.w	r3, #1476395008	; 0x58000000
 8002896:	f8d3 3094 	ldr.w	r3, [r3, #148]	; 0x94
 800289a:	f013 0f02 	tst.w	r3, #2
 800289e:	d0b4      	beq.n	800280a <HAL_RCC_OscConfig+0x2d2>
            if ((HAL_GetTick() - tickstart) > LSI_TIMEOUT_VALUE)
 80028a0:	f7fe f87c 	bl	800099c <HAL_GetTick>
 80028a4:	1b80      	subs	r0, r0, r6
 80028a6:	2811      	cmp	r0, #17
 80028a8:	d9f3      	bls.n	8002892 <HAL_RCC_OscConfig+0x35a>
              return HAL_TIMEOUT;
 80028aa:	2003      	movs	r0, #3
 80028ac:	e165      	b.n	8002b7a <HAL_RCC_OscConfig+0x642>
  CLEAR_BIT(RCC->CSR, RCC_CSR_LSION);
 80028ae:	f04f 42b0 	mov.w	r2, #1476395008	; 0x58000000
 80028b2:	f8d2 3094 	ldr.w	r3, [r2, #148]	; 0x94
 80028b6:	f023 0301 	bic.w	r3, r3, #1
 80028ba:	f8c2 3094 	str.w	r3, [r2, #148]	; 0x94
      tickstart = HAL_GetTick();
 80028be:	f7fe f86d 	bl	800099c <HAL_GetTick>
 80028c2:	4606      	mov	r6, r0
  return ((READ_BIT(RCC->CSR, RCC_CSR_LSIRDY) == (RCC_CSR_LSIRDY)) ? 1UL : 0UL);
 80028c4:	f04f 43b0 	mov.w	r3, #1476395008	; 0x58000000
 80028c8:	f8d3 3094 	ldr.w	r3, [r3, #148]	; 0x94
 80028cc:	f013 0f02 	tst.w	r3, #2
 80028d0:	d006      	beq.n	80028e0 <HAL_RCC_OscConfig+0x3a8>
        if ((HAL_GetTick() - tickstart) > LSI_TIMEOUT_VALUE)
 80028d2:	f7fe f863 	bl	800099c <HAL_GetTick>
 80028d6:	1b80      	subs	r0, r0, r6
 80028d8:	2811      	cmp	r0, #17
 80028da:	d9f3      	bls.n	80028c4 <HAL_RCC_OscConfig+0x38c>
          return HAL_TIMEOUT;
 80028dc:	2003      	movs	r0, #3
 80028de:	e14c      	b.n	8002b7a <HAL_RCC_OscConfig+0x642>
  if (((RCC_OscInitStruct->OscillatorType) & RCC_OSCILLATORTYPE_LSE) == RCC_OSCILLATORTYPE_LSE)
 80028e0:	6823      	ldr	r3, [r4, #0]
 80028e2:	f013 0f04 	tst.w	r3, #4
 80028e6:	f000 80b8 	beq.w	8002a5a <HAL_RCC_OscConfig+0x522>
  return ((READ_BIT(PWR->CR1, PWR_CR1_DBP) == (PWR_CR1_DBP)) ? 1UL : 0UL);
 80028ea:	4b22      	ldr	r3, [pc, #136]	; (8002974 <HAL_RCC_OscConfig+0x43c>)
 80028ec:	681b      	ldr	r3, [r3, #0]
 80028ee:	f413 7f80 	tst.w	r3, #256	; 0x100
 80028f2:	d110      	bne.n	8002916 <HAL_RCC_OscConfig+0x3de>
      HAL_PWR_EnableBkUpAccess();
 80028f4:	f7ff fc86 	bl	8002204 <HAL_PWR_EnableBkUpAccess>
      tickstart = HAL_GetTick();
 80028f8:	f7fe f850 	bl	800099c <HAL_GetTick>
 80028fc:	4606      	mov	r6, r0
 80028fe:	4b1d      	ldr	r3, [pc, #116]	; (8002974 <HAL_RCC_OscConfig+0x43c>)
 8002900:	681b      	ldr	r3, [r3, #0]
 8002902:	f413 7f80 	tst.w	r3, #256	; 0x100
 8002906:	d106      	bne.n	8002916 <HAL_RCC_OscConfig+0x3de>
        if ((HAL_GetTick() - tickstart) > RCC_DBP_TIMEOUT_VALUE)
 8002908:	f7fe f848 	bl	800099c <HAL_GetTick>
 800290c:	1b80      	subs	r0, r0, r6
 800290e:	2802      	cmp	r0, #2
 8002910:	d9f5      	bls.n	80028fe <HAL_RCC_OscConfig+0x3c6>
          return HAL_TIMEOUT;
 8002912:	2003      	movs	r0, #3
 8002914:	e131      	b.n	8002b7a <HAL_RCC_OscConfig+0x642>
    if (RCC_OscInitStruct->LSEState != RCC_LSE_OFF)
 8002916:	68e3      	ldr	r3, [r4, #12]
 8002918:	2b00      	cmp	r3, #0
 800291a:	d068      	beq.n	80029ee <HAL_RCC_OscConfig+0x4b6>
      if ((RCC_OscInitStruct->LSEState == RCC_LSE_BYPASS)
 800291c:	2b85      	cmp	r3, #133	; 0x85
 800291e:	d001      	beq.n	8002924 <HAL_RCC_OscConfig+0x3ec>
          || (RCC_OscInitStruct->LSEState == RCC_LSE_BYPASS_RTC_ONLY))
 8002920:	2b05      	cmp	r3, #5
 8002922:	d107      	bne.n	8002934 <HAL_RCC_OscConfig+0x3fc>
        SET_BIT(RCC->BDCR, RCC_BDCR_LSEBYP);
 8002924:	f04f 42b0 	mov.w	r2, #1476395008	; 0x58000000
 8002928:	f8d2 3090 	ldr.w	r3, [r2, #144]	; 0x90
 800292c:	f043 0304 	orr.w	r3, r3, #4
 8002930:	f8c2 3090 	str.w	r3, [r2, #144]	; 0x90
      tickstart = HAL_GetTick();
 8002934:	f7fe f832 	bl	800099c <HAL_GetTick>
 8002938:	4606      	mov	r6, r0
      SET_BIT(RCC->BDCR, RCC_BDCR_LSEON);
 800293a:	f04f 42b0 	mov.w	r2, #1476395008	; 0x58000000
 800293e:	f8d2 3090 	ldr.w	r3, [r2, #144]	; 0x90
 8002942:	f043 0301 	orr.w	r3, r3, #1
 8002946:	f8c2 3090 	str.w	r3, [r2, #144]	; 0x90
  return ((READ_BIT(RCC->BDCR, RCC_BDCR_LSERDY) == (RCC_BDCR_LSERDY)) ? 1UL : 0UL);
 800294a:	f04f 43b0 	mov.w	r3, #1476395008	; 0x58000000
 800294e:	f8d3 3090 	ldr.w	r3, [r3, #144]	; 0x90
 8002952:	f013 0f02 	tst.w	r3, #2
 8002956:	d10f      	bne.n	8002978 <HAL_RCC_OscConfig+0x440>
        if ((HAL_GetTick() - tickstart) > RCC_LSE_TIMEOUT_VALUE)
 8002958:	f7fe f820 	bl	800099c <HAL_GetTick>
 800295c:	1b80      	subs	r0, r0, r6
 800295e:	f241 3388 	movw	r3, #5000	; 0x1388
 8002962:	4298      	cmp	r0, r3
 8002964:	d9f1      	bls.n	800294a <HAL_RCC_OscConfig+0x412>
          return HAL_TIMEOUT;
 8002966:	2003      	movs	r0, #3
 8002968:	e107      	b.n	8002b7a <HAL_RCC_OscConfig+0x642>
 800296a:	bf00      	nop
 800296c:	20000024 	.word	0x20000024
 8002970:	20000028 	.word	0x20000028
 8002974:	58000400 	.word	0x58000400
      if ((RCC_OscInitStruct->LSEState == RCC_LSE_ON)
 8002978:	68e3      	ldr	r3, [r4, #12]
 800297a:	2b81      	cmp	r3, #129	; 0x81
 800297c:	d001      	beq.n	8002982 <HAL_RCC_OscConfig+0x44a>
          || (RCC_OscInitStruct->LSEState == RCC_LSE_BYPASS))
 800297e:	2b85      	cmp	r3, #133	; 0x85
 8002980:	d11a      	bne.n	80029b8 <HAL_RCC_OscConfig+0x480>
        tickstart = HAL_GetTick();
 8002982:	f7fe f80b 	bl	800099c <HAL_GetTick>
 8002986:	4606      	mov	r6, r0
        SET_BIT(RCC->BDCR, RCC_BDCR_LSESYSEN);
 8002988:	f04f 42b0 	mov.w	r2, #1476395008	; 0x58000000
 800298c:	f8d2 3090 	ldr.w	r3, [r2, #144]	; 0x90
 8002990:	f043 0380 	orr.w	r3, r3, #128	; 0x80
 8002994:	f8c2 3090 	str.w	r3, [r2, #144]	; 0x90
        while (READ_BIT(RCC->BDCR, RCC_BDCR_LSESYSRDY) == 0U)
 8002998:	f04f 43b0 	mov.w	r3, #1476395008	; 0x58000000
 800299c:	f8d3 3090 	ldr.w	r3, [r3, #144]	; 0x90
 80029a0:	f413 6f00 	tst.w	r3, #2048	; 0x800
 80029a4:	d159      	bne.n	8002a5a <HAL_RCC_OscConfig+0x522>
          if ((HAL_GetTick() - tickstart) > RCC_LSE_TIMEOUT_VALUE)
 80029a6:	f7fd fff9 	bl	800099c <HAL_GetTick>
 80029aa:	1b80      	subs	r0, r0, r6
 80029ac:	f241 3388 	movw	r3, #5000	; 0x1388
 80029b0:	4298      	cmp	r0, r3
 80029b2:	d9f1      	bls.n	8002998 <HAL_RCC_OscConfig+0x460>
            return HAL_TIMEOUT;
 80029b4:	2003      	movs	r0, #3
 80029b6:	e0e0      	b.n	8002b7a <HAL_RCC_OscConfig+0x642>
        tickstart = HAL_GetTick();
 80029b8:	f7fd fff0 	bl	800099c <HAL_GetTick>
 80029bc:	4606      	mov	r6, r0
        CLEAR_BIT(RCC->BDCR, RCC_BDCR_LSESYSEN);
 80029be:	f04f 42b0 	mov.w	r2, #1476395008	; 0x58000000
 80029c2:	f8d2 3090 	ldr.w	r3, [r2, #144]	; 0x90
 80029c6:	f023 0380 	bic.w	r3, r3, #128	; 0x80
 80029ca:	f8c2 3090 	str.w	r3, [r2, #144]	; 0x90
        while (READ_BIT(RCC->BDCR, RCC_BDCR_LSESYSRDY) != 0U)
 80029ce:	f04f 43b0 	mov.w	r3, #1476395008	; 0x58000000
 80029d2:	f8d3 3090 	ldr.w	r3, [r3, #144]	; 0x90
 80029d6:	f413 6f00 	tst.w	r3, #2048	; 0x800
 80029da:	d03e      	beq.n	8002a5a <HAL_RCC_OscConfig+0x522>
          if ((HAL_GetTick() - tickstart) > RCC_LSE_TIMEOUT_VALUE)
 80029dc:	f7fd ffde 	bl	800099c <HAL_GetTick>
 80029e0:	1b80      	subs	r0, r0, r6
 80029e2:	f241 3388 	movw	r3, #5000	; 0x1388
 80029e6:	4298      	cmp	r0, r3
 80029e8:	d9f1      	bls.n	80029ce <HAL_RCC_OscConfig+0x496>
            return HAL_TIMEOUT;
 80029ea:	2003      	movs	r0, #3
 80029ec:	e0c5      	b.n	8002b7a <HAL_RCC_OscConfig+0x642>
      tickstart = HAL_GetTick();
 80029ee:	f7fd ffd5 	bl	800099c <HAL_GetTick>
 80029f2:	4606      	mov	r6, r0
      CLEAR_BIT(RCC->BDCR, RCC_BDCR_LSESYSEN);
 80029f4:	f04f 42b0 	mov.w	r2, #1476395008	; 0x58000000
 80029f8:	f8d2 3090 	ldr.w	r3, [r2, #144]	; 0x90
 80029fc:	f023 0380 	bic.w	r3, r3, #128	; 0x80
 8002a00:	f8c2 3090 	str.w	r3, [r2, #144]	; 0x90
      while (READ_BIT(RCC->BDCR, RCC_BDCR_LSESYSRDY) != 0U)
 8002a04:	f04f 43b0 	mov.w	r3, #1476395008	; 0x58000000
 8002a08:	f8d3 3090 	ldr.w	r3, [r3, #144]	; 0x90
 8002a0c:	f413 6f00 	tst.w	r3, #2048	; 0x800
 8002a10:	d008      	beq.n	8002a24 <HAL_RCC_OscConfig+0x4ec>
        if ((HAL_GetTick() - tickstart) > RCC_LSE_TIMEOUT_VALUE)
 8002a12:	f7fd ffc3 	bl	800099c <HAL_GetTick>
 8002a16:	1b80      	subs	r0, r0, r6
 8002a18:	f241 3388 	movw	r3, #5000	; 0x1388
 8002a1c:	4298      	cmp	r0, r3
 8002a1e:	d9f1      	bls.n	8002a04 <HAL_RCC_OscConfig+0x4cc>
          return HAL_TIMEOUT;
 8002a20:	2003      	movs	r0, #3
 8002a22:	e0aa      	b.n	8002b7a <HAL_RCC_OscConfig+0x642>
      tickstart = HAL_GetTick();
 8002a24:	f7fd ffba 	bl	800099c <HAL_GetTick>
 8002a28:	4606      	mov	r6, r0
      CLEAR_BIT(RCC->BDCR, RCC_BDCR_LSEON);
 8002a2a:	f04f 42b0 	mov.w	r2, #1476395008	; 0x58000000
 8002a2e:	f8d2 3090 	ldr.w	r3, [r2, #144]	; 0x90
 8002a32:	f023 0301 	bic.w	r3, r3, #1
 8002a36:	f8c2 3090 	str.w	r3, [r2, #144]	; 0x90
 8002a3a:	f04f 43b0 	mov.w	r3, #1476395008	; 0x58000000
 8002a3e:	f8d3 3090 	ldr.w	r3, [r3, #144]	; 0x90
 8002a42:	f013 0f02 	tst.w	r3, #2
 8002a46:	d008      	beq.n	8002a5a <HAL_RCC_OscConfig+0x522>
        if ((HAL_GetTick() - tickstart) > RCC_LSE_TIMEOUT_VALUE)
 8002a48:	f7fd ffa8 	bl	800099c <HAL_GetTick>
 8002a4c:	1b80      	subs	r0, r0, r6
 8002a4e:	f241 3388 	movw	r3, #5000	; 0x1388
 8002a52:	4298      	cmp	r0, r3
 8002a54:	d9f1      	bls.n	8002a3a <HAL_RCC_OscConfig+0x502>
          return HAL_TIMEOUT;
 8002a56:	2003      	movs	r0, #3
 8002a58:	e08f      	b.n	8002b7a <HAL_RCC_OscConfig+0x642>
  if (RCC_OscInitStruct->PLL.PLLState != RCC_PLL_NONE)
 8002a5a:	6ae3      	ldr	r3, [r4, #44]	; 0x2c
 8002a5c:	2b00      	cmp	r3, #0
 8002a5e:	f000 808b 	beq.w	8002b78 <HAL_RCC_OscConfig+0x640>
    if (sysclk_source != RCC_SYSCLKSOURCE_STATUS_PLLCLK)
 8002a62:	2d0c      	cmp	r5, #12
 8002a64:	d060      	beq.n	8002b28 <HAL_RCC_OscConfig+0x5f0>
      if (RCC_OscInitStruct->PLL.PLLState == RCC_PLL_ON)
 8002a66:	2b02      	cmp	r3, #2
 8002a68:	d016      	beq.n	8002a98 <HAL_RCC_OscConfig+0x560>
  CLEAR_BIT(RCC->CR, RCC_CR_PLLON);
 8002a6a:	f04f 42b0 	mov.w	r2, #1476395008	; 0x58000000
 8002a6e:	6813      	ldr	r3, [r2, #0]
 8002a70:	f023 7380 	bic.w	r3, r3, #16777216	; 0x1000000
 8002a74:	6013      	str	r3, [r2, #0]
        tickstart = HAL_GetTick();
 8002a76:	f7fd ff91 	bl	800099c <HAL_GetTick>
 8002a7a:	4604      	mov	r4, r0
  return ((READ_BIT(RCC->CR, RCC_CR_PLLRDY) == (RCC_CR_PLLRDY)) ? 1UL : 0UL);
 8002a7c:	f04f 43b0 	mov.w	r3, #1476395008	; 0x58000000
 8002a80:	681b      	ldr	r3, [r3, #0]
 8002a82:	f013 7f00 	tst.w	r3, #33554432	; 0x2000000
 8002a86:	d148      	bne.n	8002b1a <HAL_RCC_OscConfig+0x5e2>
        CLEAR_BIT(RCC->PLLCFGR, (RCC_PLLCFGR_PLLSRC | RCC_PLLCFGR_PLLPEN | RCC_PLLCFGR_PLLQEN | RCC_PLLCFGR_PLLREN));
 8002a88:	f04f 42b0 	mov.w	r2, #1476395008	; 0x58000000
 8002a8c:	68d1      	ldr	r1, [r2, #12]
 8002a8e:	4b41      	ldr	r3, [pc, #260]	; (8002b94 <HAL_RCC_OscConfig+0x65c>)
 8002a90:	400b      	ands	r3, r1
 8002a92:	60d3      	str	r3, [r2, #12]
  return HAL_OK;
 8002a94:	2000      	movs	r0, #0
 8002a96:	e070      	b.n	8002b7a <HAL_RCC_OscConfig+0x642>
  CLEAR_BIT(RCC->CR, RCC_CR_PLLON);
 8002a98:	f04f 42b0 	mov.w	r2, #1476395008	; 0x58000000
 8002a9c:	6813      	ldr	r3, [r2, #0]
 8002a9e:	f023 7380 	bic.w	r3, r3, #16777216	; 0x1000000
 8002aa2:	6013      	str	r3, [r2, #0]
        tickstart = HAL_GetTick();
 8002aa4:	f7fd ff7a 	bl	800099c <HAL_GetTick>
 8002aa8:	4605      	mov	r5, r0
  return ((READ_BIT(RCC->CR, RCC_CR_PLLRDY) == (RCC_CR_PLLRDY)) ? 1UL : 0UL);
 8002aaa:	f04f 43b0 	mov.w	r3, #1476395008	; 0x58000000
 8002aae:	681b      	ldr	r3, [r3, #0]
 8002ab0:	f013 7f00 	tst.w	r3, #33554432	; 0x2000000
 8002ab4:	d12a      	bne.n	8002b0c <HAL_RCC_OscConfig+0x5d4>
        __HAL_RCC_PLL_CONFIG(RCC_OscInitStruct->PLL.PLLSource,
 8002ab6:	f04f 42b0 	mov.w	r2, #1476395008	; 0x58000000
 8002aba:	68d3      	ldr	r3, [r2, #12]
 8002abc:	4936      	ldr	r1, [pc, #216]	; (8002b98 <HAL_RCC_OscConfig+0x660>)
 8002abe:	4019      	ands	r1, r3
 8002ac0:	6b23      	ldr	r3, [r4, #48]	; 0x30
 8002ac2:	6b60      	ldr	r0, [r4, #52]	; 0x34
 8002ac4:	4303      	orrs	r3, r0
 8002ac6:	6ba0      	ldr	r0, [r4, #56]	; 0x38
 8002ac8:	ea43 2300 	orr.w	r3, r3, r0, lsl #8
 8002acc:	6be0      	ldr	r0, [r4, #60]	; 0x3c
 8002ace:	4303      	orrs	r3, r0
 8002ad0:	6c20      	ldr	r0, [r4, #64]	; 0x40
 8002ad2:	4303      	orrs	r3, r0
 8002ad4:	6c60      	ldr	r0, [r4, #68]	; 0x44
 8002ad6:	4303      	orrs	r3, r0
 8002ad8:	4319      	orrs	r1, r3
 8002ada:	60d1      	str	r1, [r2, #12]
  SET_BIT(RCC->CR, RCC_CR_PLLON);
 8002adc:	6813      	ldr	r3, [r2, #0]
 8002ade:	f043 7380 	orr.w	r3, r3, #16777216	; 0x1000000
 8002ae2:	6013      	str	r3, [r2, #0]
        __HAL_RCC_PLLCLKOUT_ENABLE(RCC_PLL_SYSCLK);
 8002ae4:	68d3      	ldr	r3, [r2, #12]
 8002ae6:	f043 5380 	orr.w	r3, r3, #268435456	; 0x10000000
 8002aea:	60d3      	str	r3, [r2, #12]
        tickstart = HAL_GetTick();
 8002aec:	f7fd ff56 	bl	800099c <HAL_GetTick>
 8002af0:	4604      	mov	r4, r0
  return ((READ_BIT(RCC->CR, RCC_CR_PLLRDY) == (RCC_CR_PLLRDY)) ? 1UL : 0UL);
 8002af2:	f04f 43b0 	mov.w	r3, #1476395008	; 0x58000000
 8002af6:	681b      	ldr	r3, [r3, #0]
 8002af8:	f013 7f00 	tst.w	r3, #33554432	; 0x2000000
 8002afc:	d13e      	bne.n	8002b7c <HAL_RCC_OscConfig+0x644>
          if ((HAL_GetTick() - tickstart) > PLL_TIMEOUT_VALUE)
 8002afe:	f7fd ff4d 	bl	800099c <HAL_GetTick>
 8002b02:	1b00      	subs	r0, r0, r4
 8002b04:	280a      	cmp	r0, #10
 8002b06:	d9f4      	bls.n	8002af2 <HAL_RCC_OscConfig+0x5ba>
            return HAL_TIMEOUT;
 8002b08:	2003      	movs	r0, #3
 8002b0a:	e036      	b.n	8002b7a <HAL_RCC_OscConfig+0x642>
          if ((HAL_GetTick() - tickstart) > PLL_TIMEOUT_VALUE)
 8002b0c:	f7fd ff46 	bl	800099c <HAL_GetTick>
 8002b10:	1b40      	subs	r0, r0, r5
 8002b12:	280a      	cmp	r0, #10
 8002b14:	d9c9      	bls.n	8002aaa <HAL_RCC_OscConfig+0x572>
            return HAL_TIMEOUT;
 8002b16:	2003      	movs	r0, #3
 8002b18:	e02f      	b.n	8002b7a <HAL_RCC_OscConfig+0x642>
          if ((HAL_GetTick() - tickstart) > PLL_TIMEOUT_VALUE)
 8002b1a:	f7fd ff3f 	bl	800099c <HAL_GetTick>
 8002b1e:	1b00      	subs	r0, r0, r4
 8002b20:	280a      	cmp	r0, #10
 8002b22:	d9ab      	bls.n	8002a7c <HAL_RCC_OscConfig+0x544>
            return HAL_TIMEOUT;
 8002b24:	2003      	movs	r0, #3
 8002b26:	e028      	b.n	8002b7a <HAL_RCC_OscConfig+0x642>
      if ((RCC_OscInitStruct->PLL.PLLState) == RCC_PLL_OFF)
 8002b28:	2b01      	cmp	r3, #1
 8002b2a:	d029      	beq.n	8002b80 <HAL_RCC_OscConfig+0x648>
        pll_config = RCC->PLLCFGR;
 8002b2c:	f04f 43b0 	mov.w	r3, #1476395008	; 0x58000000
 8002b30:	68db      	ldr	r3, [r3, #12]
        if ((READ_BIT(pll_config, RCC_PLLCFGR_PLLSRC) != RCC_OscInitStruct->PLL.PLLSource)
 8002b32:	f003 0103 	and.w	r1, r3, #3
 8002b36:	6b22      	ldr	r2, [r4, #48]	; 0x30
 8002b38:	4291      	cmp	r1, r2
 8002b3a:	d123      	bne.n	8002b84 <HAL_RCC_OscConfig+0x64c>
            || (READ_BIT(pll_config, RCC_PLLCFGR_PLLM)   != RCC_OscInitStruct->PLL.PLLM)
 8002b3c:	f003 0270 	and.w	r2, r3, #112	; 0x70
 8002b40:	6b61      	ldr	r1, [r4, #52]	; 0x34
 8002b42:	428a      	cmp	r2, r1
 8002b44:	d120      	bne.n	8002b88 <HAL_RCC_OscConfig+0x650>
            || (READ_BIT(pll_config, RCC_PLLCFGR_PLLN)   != (RCC_OscInitStruct->PLL.PLLN << RCC_PLLCFGR_PLLN_Pos))
 8002b46:	f403 42fe 	and.w	r2, r3, #32512	; 0x7f00
 8002b4a:	6ba1      	ldr	r1, [r4, #56]	; 0x38
 8002b4c:	ebb2 2f01 	cmp.w	r2, r1, lsl #8
 8002b50:	d11c      	bne.n	8002b8c <HAL_RCC_OscConfig+0x654>
            || (READ_BIT(pll_config, RCC_PLLCFGR_PLLR)   != RCC_OscInitStruct->PLL.PLLR))
 8002b52:	f003 4360 	and.w	r3, r3, #3758096384	; 0xe0000000
 8002b56:	6c62      	ldr	r2, [r4, #68]	; 0x44
 8002b58:	4293      	cmp	r3, r2
 8002b5a:	d119      	bne.n	8002b90 <HAL_RCC_OscConfig+0x658>
  return HAL_OK;
 8002b5c:	2000      	movs	r0, #0
 8002b5e:	e00c      	b.n	8002b7a <HAL_RCC_OscConfig+0x642>
    return HAL_ERROR;
 8002b60:	2001      	movs	r0, #1
}
 8002b62:	4770      	bx	lr
        return HAL_ERROR;
 8002b64:	2001      	movs	r0, #1
 8002b66:	e008      	b.n	8002b7a <HAL_RCC_OscConfig+0x642>
            return HAL_ERROR;
 8002b68:	2001      	movs	r0, #1
 8002b6a:	e006      	b.n	8002b7a <HAL_RCC_OscConfig+0x642>
        return HAL_ERROR;
 8002b6c:	2001      	movs	r0, #1
 8002b6e:	e004      	b.n	8002b7a <HAL_RCC_OscConfig+0x642>
        return HAL_ERROR;
 8002b70:	2001      	movs	r0, #1
 8002b72:	e002      	b.n	8002b7a <HAL_RCC_OscConfig+0x642>
          return HAL_ERROR;
 8002b74:	2001      	movs	r0, #1
 8002b76:	e000      	b.n	8002b7a <HAL_RCC_OscConfig+0x642>
  return HAL_OK;
 8002b78:	2000      	movs	r0, #0
}
 8002b7a:	bdf8      	pop	{r3, r4, r5, r6, r7, pc}
  return HAL_OK;
 8002b7c:	2000      	movs	r0, #0
 8002b7e:	e7fc      	b.n	8002b7a <HAL_RCC_OscConfig+0x642>
        return HAL_ERROR;
 8002b80:	2001      	movs	r0, #1
 8002b82:	e7fa      	b.n	8002b7a <HAL_RCC_OscConfig+0x642>
          return HAL_ERROR;
 8002b84:	2001      	movs	r0, #1
 8002b86:	e7f8      	b.n	8002b7a <HAL_RCC_OscConfig+0x642>
 8002b88:	2001      	movs	r0, #1
 8002b8a:	e7f6      	b.n	8002b7a <HAL_RCC_OscConfig+0x642>
 8002b8c:	2001      	movs	r0, #1
 8002b8e:	e7f4      	b.n	8002b7a <HAL_RCC_OscConfig+0x642>
 8002b90:	2001      	movs	r0, #1
 8002b92:	e7f2      	b.n	8002b7a <HAL_RCC_OscConfig+0x642>
 8002b94:	eefefffc 	.word	0xeefefffc
 8002b98:	11c1808c 	.word	0x11c1808c

08002b9c <HAL_RCC_ClockConfig>:
  if (RCC_ClkInitStruct == NULL)
 8002b9c:	2800      	cmp	r0, #0
 8002b9e:	f000 8127 	beq.w	8002df0 <HAL_RCC_ClockConfig+0x254>
{
 8002ba2:	b570      	push	{r4, r5, r6, lr}
 8002ba4:	460c      	mov	r4, r1
 8002ba6:	4605      	mov	r5, r0
  if (FLatency > __HAL_FLASH_GET_LATENCY())
 8002ba8:	4b93      	ldr	r3, [pc, #588]	; (8002df8 <HAL_RCC_ClockConfig+0x25c>)
 8002baa:	681b      	ldr	r3, [r3, #0]
 8002bac:	f003 0307 	and.w	r3, r3, #7
 8002bb0:	428b      	cmp	r3, r1
 8002bb2:	d32d      	bcc.n	8002c10 <HAL_RCC_ClockConfig+0x74>
  if (((RCC_ClkInitStruct->ClockType) & RCC_CLOCKTYPE_HCLK) == RCC_CLOCKTYPE_HCLK)
 8002bb4:	682b      	ldr	r3, [r5, #0]
 8002bb6:	f013 0f02 	tst.w	r3, #2
 8002bba:	d13f      	bne.n	8002c3c <HAL_RCC_ClockConfig+0xa0>
  if (((RCC_ClkInitStruct->ClockType) & RCC_CLOCKTYPE_HCLK2) == RCC_CLOCKTYPE_HCLK2)
 8002bbc:	682b      	ldr	r3, [r5, #0]
 8002bbe:	f013 0f20 	tst.w	r3, #32
 8002bc2:	d153      	bne.n	8002c6c <HAL_RCC_ClockConfig+0xd0>
  if (((RCC_ClkInitStruct->ClockType) & RCC_CLOCKTYPE_HCLK3) == RCC_CLOCKTYPE_HCLK3)
 8002bc4:	682b      	ldr	r3, [r5, #0]
 8002bc6:	f013 0f40 	tst.w	r3, #64	; 0x40
 8002bca:	d16a      	bne.n	8002ca2 <HAL_RCC_ClockConfig+0x106>
  if (((RCC_ClkInitStruct->ClockType) & RCC_CLOCKTYPE_PCLK1) == RCC_CLOCKTYPE_PCLK1)
 8002bcc:	682b      	ldr	r3, [r5, #0]
 8002bce:	f013 0f04 	tst.w	r3, #4
 8002bd2:	f040 8083 	bne.w	8002cdc <HAL_RCC_ClockConfig+0x140>
  if (((RCC_ClkInitStruct->ClockType) & RCC_CLOCKTYPE_PCLK2) == RCC_CLOCKTYPE_PCLK2)
 8002bd6:	682b      	ldr	r3, [r5, #0]
 8002bd8:	f013 0f08 	tst.w	r3, #8
 8002bdc:	f040 8097 	bne.w	8002d0e <HAL_RCC_ClockConfig+0x172>
  if (((RCC_ClkInitStruct->ClockType) & RCC_CLOCKTYPE_SYSCLK) == RCC_CLOCKTYPE_SYSCLK)
 8002be0:	682b      	ldr	r3, [r5, #0]
 8002be2:	f013 0f01 	tst.w	r3, #1
 8002be6:	f000 80de 	beq.w	8002da6 <HAL_RCC_ClockConfig+0x20a>
    if (RCC_ClkInitStruct->SYSCLKSource == RCC_SYSCLKSOURCE_HSE)
 8002bea:	686b      	ldr	r3, [r5, #4]
 8002bec:	2b02      	cmp	r3, #2
 8002bee:	f000 80a8 	beq.w	8002d42 <HAL_RCC_ClockConfig+0x1a6>
    else if (RCC_ClkInitStruct->SYSCLKSource == RCC_SYSCLKSOURCE_PLLCLK)
 8002bf2:	2b03      	cmp	r3, #3
 8002bf4:	f000 80ad 	beq.w	8002d52 <HAL_RCC_ClockConfig+0x1b6>
    else if (RCC_ClkInitStruct->SYSCLKSource == RCC_SYSCLKSOURCE_MSI)
 8002bf8:	2b00      	cmp	r3, #0
 8002bfa:	f040 80b2 	bne.w	8002d62 <HAL_RCC_ClockConfig+0x1c6>
  return ((READ_BIT(RCC->CR, RCC_CR_MSIRDY) == (RCC_CR_MSIRDY)) ? 1UL : 0UL);
 8002bfe:	f04f 42b0 	mov.w	r2, #1476395008	; 0x58000000
 8002c02:	6812      	ldr	r2, [r2, #0]
 8002c04:	f012 0f02 	tst.w	r2, #2
 8002c08:	f040 80b1 	bne.w	8002d6e <HAL_RCC_ClockConfig+0x1d2>
        return HAL_ERROR;
 8002c0c:	2001      	movs	r0, #1
 8002c0e:	e0ee      	b.n	8002dee <HAL_RCC_ClockConfig+0x252>
    __HAL_FLASH_SET_LATENCY(FLatency);
 8002c10:	4a79      	ldr	r2, [pc, #484]	; (8002df8 <HAL_RCC_ClockConfig+0x25c>)
 8002c12:	6813      	ldr	r3, [r2, #0]
 8002c14:	f023 0307 	bic.w	r3, r3, #7
 8002c18:	430b      	orrs	r3, r1
 8002c1a:	6013      	str	r3, [r2, #0]
    tickstart = HAL_GetTick();
 8002c1c:	f7fd febe 	bl	800099c <HAL_GetTick>
 8002c20:	4606      	mov	r6, r0
    while (__HAL_FLASH_GET_LATENCY() != FLatency)
 8002c22:	4b75      	ldr	r3, [pc, #468]	; (8002df8 <HAL_RCC_ClockConfig+0x25c>)
 8002c24:	681b      	ldr	r3, [r3, #0]
 8002c26:	f003 0307 	and.w	r3, r3, #7
 8002c2a:	42a3      	cmp	r3, r4
 8002c2c:	d0c2      	beq.n	8002bb4 <HAL_RCC_ClockConfig+0x18>
      if ((HAL_GetTick() - tickstart) > LATENCY_TIMEOUT_VALUE)
 8002c2e:	f7fd feb5 	bl	800099c <HAL_GetTick>
 8002c32:	1b80      	subs	r0, r0, r6
 8002c34:	2802      	cmp	r0, #2
 8002c36:	d9f4      	bls.n	8002c22 <HAL_RCC_ClockConfig+0x86>
        return HAL_TIMEOUT;
 8002c38:	2003      	movs	r0, #3
 8002c3a:	e0d8      	b.n	8002dee <HAL_RCC_ClockConfig+0x252>
    LL_RCC_SetAHBPrescaler(RCC_ClkInitStruct->AHBCLKDivider);
 8002c3c:	68ab      	ldr	r3, [r5, #8]
  MODIFY_REG(RCC->CFGR, RCC_CFGR_HPRE, Prescaler);
 8002c3e:	f04f 41b0 	mov.w	r1, #1476395008	; 0x58000000
 8002c42:	688a      	ldr	r2, [r1, #8]
 8002c44:	f022 02f0 	bic.w	r2, r2, #240	; 0xf0
 8002c48:	4313      	orrs	r3, r2
 8002c4a:	608b      	str	r3, [r1, #8]
    tickstart = HAL_GetTick();
 8002c4c:	f7fd fea6 	bl	800099c <HAL_GetTick>
 8002c50:	4606      	mov	r6, r0
  * @rmtoll CFGR         HPREF       LL_RCC_IsActiveFlag_HPRE
  * @retval State of bit (1 or 0).
  */
__STATIC_INLINE uint32_t LL_RCC_IsActiveFlag_HPRE(void)
{
  return ((READ_BIT(RCC->CFGR, RCC_CFGR_HPREF) == (RCC_CFGR_HPREF)) ? 1UL : 0UL);
 8002c52:	f04f 43b0 	mov.w	r3, #1476395008	; 0x58000000
 8002c56:	689b      	ldr	r3, [r3, #8]
 8002c58:	f413 3f80 	tst.w	r3, #65536	; 0x10000
 8002c5c:	d1ae      	bne.n	8002bbc <HAL_RCC_ClockConfig+0x20>
      if ((HAL_GetTick() - tickstart) > PRESCALER_TIMEOUT_VALUE)
 8002c5e:	f7fd fe9d 	bl	800099c <HAL_GetTick>
 8002c62:	1b80      	subs	r0, r0, r6
 8002c64:	2802      	cmp	r0, #2
 8002c66:	d9f4      	bls.n	8002c52 <HAL_RCC_ClockConfig+0xb6>
        return HAL_TIMEOUT;
 8002c68:	2003      	movs	r0, #3
 8002c6a:	e0c0      	b.n	8002dee <HAL_RCC_ClockConfig+0x252>
    LL_C2_RCC_SetAHBPrescaler(RCC_ClkInitStruct->AHBCLK2Divider);
 8002c6c:	696b      	ldr	r3, [r5, #20]
  MODIFY_REG(RCC->EXTCFGR, RCC_EXTCFGR_C2HPRE, Prescaler);
 8002c6e:	f04f 41b0 	mov.w	r1, #1476395008	; 0x58000000
 8002c72:	f8d1 2108 	ldr.w	r2, [r1, #264]	; 0x108
 8002c76:	f022 02f0 	bic.w	r2, r2, #240	; 0xf0
 8002c7a:	4313      	orrs	r3, r2
 8002c7c:	f8c1 3108 	str.w	r3, [r1, #264]	; 0x108
    tickstart = HAL_GetTick();
 8002c80:	f7fd fe8c 	bl	800099c <HAL_GetTick>
 8002c84:	4606      	mov	r6, r0
  * @rmtoll EXTCFGR         C2HPREF       LL_RCC_IsActiveFlag_C2HPRE
  * @retval State of bit (1 or 0).
  */
__STATIC_INLINE uint32_t LL_RCC_IsActiveFlag_C2HPRE(void)
{
  return ((READ_BIT(RCC->EXTCFGR, RCC_EXTCFGR_C2HPREF) == (RCC_EXTCFGR_C2HPREF)) ? 1UL : 0UL);
 8002c86:	f04f 43b0 	mov.w	r3, #1476395008	; 0x58000000
 8002c8a:	f8d3 3108 	ldr.w	r3, [r3, #264]	; 0x108
 8002c8e:	f413 3f00 	tst.w	r3, #131072	; 0x20000
 8002c92:	d197      	bne.n	8002bc4 <HAL_RCC_ClockConfig+0x28>
      if ((HAL_GetTick() - tickstart) > PRESCALER_TIMEOUT_VALUE)
 8002c94:	f7fd fe82 	bl	800099c <HAL_GetTick>
 8002c98:	1b80      	subs	r0, r0, r6
 8002c9a:	2802      	cmp	r0, #2
 8002c9c:	d9f3      	bls.n	8002c86 <HAL_RCC_ClockConfig+0xea>
        return HAL_TIMEOUT;
 8002c9e:	2003      	movs	r0, #3
 8002ca0:	e0a5      	b.n	8002dee <HAL_RCC_ClockConfig+0x252>
    LL_RCC_SetAHB3Prescaler(RCC_ClkInitStruct->AHBCLK3Divider);
 8002ca2:	69a9      	ldr	r1, [r5, #24]
  MODIFY_REG(RCC->EXTCFGR, RCC_EXTCFGR_SHDHPRE, Prescaler >> 4);
 8002ca4:	f04f 42b0 	mov.w	r2, #1476395008	; 0x58000000
 8002ca8:	f8d2 3108 	ldr.w	r3, [r2, #264]	; 0x108
 8002cac:	f023 030f 	bic.w	r3, r3, #15
 8002cb0:	ea43 1311 	orr.w	r3, r3, r1, lsr #4
 8002cb4:	f8c2 3108 	str.w	r3, [r2, #264]	; 0x108
    tickstart = HAL_GetTick();
 8002cb8:	f7fd fe70 	bl	800099c <HAL_GetTick>
 8002cbc:	4606      	mov	r6, r0
  * @rmtoll EXTCFGR         SHDHPREF       LL_RCC_IsActiveFlag_SHDHPRE
  * @retval State of bit (1 or 0).
  */
__STATIC_INLINE uint32_t LL_RCC_IsActiveFlag_SHDHPRE(void)
{
  return ((READ_BIT(RCC->EXTCFGR, RCC_EXTCFGR_SHDHPREF) == (RCC_EXTCFGR_SHDHPREF)) ? 1UL : 0UL);
 8002cbe:	f04f 43b0 	mov.w	r3, #1476395008	; 0x58000000
 8002cc2:	f8d3 3108 	ldr.w	r3, [r3, #264]	; 0x108
 8002cc6:	f413 3f80 	tst.w	r3, #65536	; 0x10000
 8002cca:	f47f af7f 	bne.w	8002bcc <HAL_RCC_ClockConfig+0x30>
      if ((HAL_GetTick() - tickstart) > PRESCALER_TIMEOUT_VALUE)
 8002cce:	f7fd fe65 	bl	800099c <HAL_GetTick>
 8002cd2:	1b80      	subs	r0, r0, r6
 8002cd4:	2802      	cmp	r0, #2
 8002cd6:	d9f2      	bls.n	8002cbe <HAL_RCC_ClockConfig+0x122>
        return HAL_TIMEOUT;
 8002cd8:	2003      	movs	r0, #3
 8002cda:	e088      	b.n	8002dee <HAL_RCC_ClockConfig+0x252>
    LL_RCC_SetAPB1Prescaler(RCC_ClkInitStruct->APB1CLKDivider);
 8002cdc:	68eb      	ldr	r3, [r5, #12]
  MODIFY_REG(RCC->CFGR, RCC_CFGR_PPRE1, Prescaler);
 8002cde:	f04f 41b0 	mov.w	r1, #1476395008	; 0x58000000
 8002ce2:	688a      	ldr	r2, [r1, #8]
 8002ce4:	f422 62e0 	bic.w	r2, r2, #1792	; 0x700
 8002ce8:	4313      	orrs	r3, r2
 8002cea:	608b      	str	r3, [r1, #8]
    tickstart = HAL_GetTick();
 8002cec:	f7fd fe56 	bl	800099c <HAL_GetTick>
 8002cf0:	4606      	mov	r6, r0
  * @rmtoll CFGR         PPRE1F       LL_RCC_IsActiveFlag_PPRE1
  * @retval State of bit (1 or 0).
  */
__STATIC_INLINE uint32_t LL_RCC_IsActiveFlag_PPRE1(void)
{
  return ((READ_BIT(RCC->CFGR, RCC_CFGR_PPRE1F) == (RCC_CFGR_PPRE1F)) ? 1UL : 0UL);
 8002cf2:	f04f 43b0 	mov.w	r3, #1476395008	; 0x58000000
 8002cf6:	689b      	ldr	r3, [r3, #8]
 8002cf8:	f413 3f00 	tst.w	r3, #131072	; 0x20000
 8002cfc:	f47f af6b 	bne.w	8002bd6 <HAL_RCC_ClockConfig+0x3a>
      if ((HAL_GetTick() - tickstart) > PRESCALER_TIMEOUT_VALUE)
 8002d00:	f7fd fe4c 	bl	800099c <HAL_GetTick>
 8002d04:	1b80      	subs	r0, r0, r6
 8002d06:	2802      	cmp	r0, #2
 8002d08:	d9f3      	bls.n	8002cf2 <HAL_RCC_ClockConfig+0x156>
        return HAL_TIMEOUT;
 8002d0a:	2003      	movs	r0, #3
 8002d0c:	e06f      	b.n	8002dee <HAL_RCC_ClockConfig+0x252>
    LL_RCC_SetAPB2Prescaler((RCC_ClkInitStruct->APB2CLKDivider) << 3U);
 8002d0e:	6929      	ldr	r1, [r5, #16]
  MODIFY_REG(RCC->CFGR, RCC_CFGR_PPRE2, Prescaler);
 8002d10:	f04f 42b0 	mov.w	r2, #1476395008	; 0x58000000
 8002d14:	6893      	ldr	r3, [r2, #8]
 8002d16:	f423 5360 	bic.w	r3, r3, #14336	; 0x3800
 8002d1a:	ea43 03c1 	orr.w	r3, r3, r1, lsl #3
 8002d1e:	6093      	str	r3, [r2, #8]
    tickstart = HAL_GetTick();
 8002d20:	f7fd fe3c 	bl	800099c <HAL_GetTick>
 8002d24:	4606      	mov	r6, r0
  * @rmtoll CFGR         PPRE2F       LL_RCC_IsActiveFlag_PPRE2
  * @retval State of bit (1 or 0).
  */
__STATIC_INLINE uint32_t LL_RCC_IsActiveFlag_PPRE2(void)
{
  return ((READ_BIT(RCC->CFGR, RCC_CFGR_PPRE2F) == (RCC_CFGR_PPRE2F)) ? 1UL : 0UL);
 8002d26:	f04f 43b0 	mov.w	r3, #1476395008	; 0x58000000
 8002d2a:	689b      	ldr	r3, [r3, #8]
 8002d2c:	f413 2f80 	tst.w	r3, #262144	; 0x40000
 8002d30:	f47f af56 	bne.w	8002be0 <HAL_RCC_ClockConfig+0x44>
      if ((HAL_GetTick() - tickstart) > PRESCALER_TIMEOUT_VALUE)
 8002d34:	f7fd fe32 	bl	800099c <HAL_GetTick>
 8002d38:	1b80      	subs	r0, r0, r6
 8002d3a:	2802      	cmp	r0, #2
 8002d3c:	d9f3      	bls.n	8002d26 <HAL_RCC_ClockConfig+0x18a>
        return HAL_TIMEOUT;
 8002d3e:	2003      	movs	r0, #3
 8002d40:	e055      	b.n	8002dee <HAL_RCC_ClockConfig+0x252>
  return ((READ_BIT(RCC->CR, RCC_CR_HSERDY) == (RCC_CR_HSERDY)) ? 1UL : 0UL);
 8002d42:	f04f 42b0 	mov.w	r2, #1476395008	; 0x58000000
 8002d46:	6812      	ldr	r2, [r2, #0]
 8002d48:	f412 3f00 	tst.w	r2, #131072	; 0x20000
 8002d4c:	d10f      	bne.n	8002d6e <HAL_RCC_ClockConfig+0x1d2>
        return HAL_ERROR;
 8002d4e:	2001      	movs	r0, #1
 8002d50:	e04d      	b.n	8002dee <HAL_RCC_ClockConfig+0x252>
  return ((READ_BIT(RCC->CR, RCC_CR_PLLRDY) == (RCC_CR_PLLRDY)) ? 1UL : 0UL);
 8002d52:	f04f 42b0 	mov.w	r2, #1476395008	; 0x58000000
 8002d56:	6812      	ldr	r2, [r2, #0]
 8002d58:	f012 7f00 	tst.w	r2, #33554432	; 0x2000000
 8002d5c:	d107      	bne.n	8002d6e <HAL_RCC_ClockConfig+0x1d2>
        return HAL_ERROR;
 8002d5e:	2001      	movs	r0, #1
 8002d60:	e045      	b.n	8002dee <HAL_RCC_ClockConfig+0x252>
  return ((READ_BIT(RCC->CR, RCC_CR_HSIRDY) == (RCC_CR_HSIRDY)) ? 1UL : 0UL);
 8002d62:	f04f 42b0 	mov.w	r2, #1476395008	; 0x58000000
 8002d66:	6812      	ldr	r2, [r2, #0]
 8002d68:	f412 6f80 	tst.w	r2, #1024	; 0x400
 8002d6c:	d042      	beq.n	8002df4 <HAL_RCC_ClockConfig+0x258>
  MODIFY_REG(RCC->CFGR, RCC_CFGR_SW, Source);
 8002d6e:	f04f 41b0 	mov.w	r1, #1476395008	; 0x58000000
 8002d72:	688a      	ldr	r2, [r1, #8]
 8002d74:	f022 0203 	bic.w	r2, r2, #3
 8002d78:	4313      	orrs	r3, r2
 8002d7a:	608b      	str	r3, [r1, #8]
    tickstart = HAL_GetTick();
 8002d7c:	f7fd fe0e 	bl	800099c <HAL_GetTick>
 8002d80:	4606      	mov	r6, r0
  return (uint32_t)(READ_BIT(RCC->CFGR, RCC_CFGR_SWS));
 8002d82:	f04f 43b0 	mov.w	r3, #1476395008	; 0x58000000
 8002d86:	689b      	ldr	r3, [r3, #8]
 8002d88:	f003 030c 	and.w	r3, r3, #12
    while (__HAL_RCC_GET_SYSCLK_SOURCE() != (RCC_ClkInitStruct->SYSCLKSource << RCC_CFGR_SWS_Pos))
 8002d8c:	686a      	ldr	r2, [r5, #4]
 8002d8e:	ebb3 0f82 	cmp.w	r3, r2, lsl #2
 8002d92:	d008      	beq.n	8002da6 <HAL_RCC_ClockConfig+0x20a>
      if ((HAL_GetTick() - tickstart) > CLOCKSWITCH_TIMEOUT_VALUE)
 8002d94:	f7fd fe02 	bl	800099c <HAL_GetTick>
 8002d98:	1b80      	subs	r0, r0, r6
 8002d9a:	f241 3388 	movw	r3, #5000	; 0x1388
 8002d9e:	4298      	cmp	r0, r3
 8002da0:	d9ef      	bls.n	8002d82 <HAL_RCC_ClockConfig+0x1e6>
        return HAL_TIMEOUT;
 8002da2:	2003      	movs	r0, #3
 8002da4:	e023      	b.n	8002dee <HAL_RCC_ClockConfig+0x252>
  if (FLatency < __HAL_FLASH_GET_LATENCY())
 8002da6:	4b14      	ldr	r3, [pc, #80]	; (8002df8 <HAL_RCC_ClockConfig+0x25c>)
 8002da8:	681b      	ldr	r3, [r3, #0]
 8002daa:	f003 0307 	and.w	r3, r3, #7
 8002dae:	42a3      	cmp	r3, r4
 8002db0:	d915      	bls.n	8002dde <HAL_RCC_ClockConfig+0x242>
    __HAL_FLASH_SET_LATENCY(FLatency);
 8002db2:	4a11      	ldr	r2, [pc, #68]	; (8002df8 <HAL_RCC_ClockConfig+0x25c>)
 8002db4:	6813      	ldr	r3, [r2, #0]
 8002db6:	f023 0307 	bic.w	r3, r3, #7
 8002dba:	4323      	orrs	r3, r4
 8002dbc:	6013      	str	r3, [r2, #0]
    tickstart = HAL_GetTick();
 8002dbe:	f7fd fded 	bl	800099c <HAL_GetTick>
 8002dc2:	4605      	mov	r5, r0
    while (__HAL_FLASH_GET_LATENCY() != FLatency)
 8002dc4:	4b0c      	ldr	r3, [pc, #48]	; (8002df8 <HAL_RCC_ClockConfig+0x25c>)
 8002dc6:	681b      	ldr	r3, [r3, #0]
 8002dc8:	f003 0307 	and.w	r3, r3, #7
 8002dcc:	42a3      	cmp	r3, r4
 8002dce:	d006      	beq.n	8002dde <HAL_RCC_ClockConfig+0x242>
      if ((HAL_GetTick() - tickstart) > LATENCY_TIMEOUT_VALUE)
 8002dd0:	f7fd fde4 	bl	800099c <HAL_GetTick>
 8002dd4:	1b40      	subs	r0, r0, r5
 8002dd6:	2802      	cmp	r0, #2
 8002dd8:	d9f4      	bls.n	8002dc4 <HAL_RCC_ClockConfig+0x228>
        return HAL_TIMEOUT;
 8002dda:	2003      	movs	r0, #3
 8002ddc:	e007      	b.n	8002dee <HAL_RCC_ClockConfig+0x252>
  SystemCoreClock = HAL_RCC_GetHCLKFreq();
 8002dde:	f7ff fb9b 	bl	8002518 <HAL_RCC_GetHCLKFreq>
 8002de2:	4b06      	ldr	r3, [pc, #24]	; (8002dfc <HAL_RCC_ClockConfig+0x260>)
 8002de4:	6018      	str	r0, [r3, #0]
  return HAL_InitTick(uwTickPrio);
 8002de6:	4b06      	ldr	r3, [pc, #24]	; (8002e00 <HAL_RCC_ClockConfig+0x264>)
 8002de8:	6818      	ldr	r0, [r3, #0]
 8002dea:	f7fd fdd5 	bl	8000998 <HAL_InitTick>
}
 8002dee:	bd70      	pop	{r4, r5, r6, pc}
    return HAL_ERROR;
 8002df0:	2001      	movs	r0, #1
}
 8002df2:	4770      	bx	lr
        return HAL_ERROR;
 8002df4:	2001      	movs	r0, #1
 8002df6:	e7fa      	b.n	8002dee <HAL_RCC_ClockConfig+0x252>
 8002df8:	58004000 	.word	0x58004000
 8002dfc:	20000024 	.word	0x20000024
 8002e00:	20000028 	.word	0x20000028

08002e04 <HAL_RCC_GetPCLK1Freq>:
{
 8002e04:	b508      	push	{r3, lr}
  return ((uint32_t)(__LL_RCC_CALC_PCLK1_FREQ(HAL_RCC_GetHCLKFreq(), LL_RCC_GetAPB1Prescaler())));
 8002e06:	f7ff fb87 	bl	8002518 <HAL_RCC_GetHCLKFreq>
  return (uint32_t)(READ_BIT(RCC->CFGR, RCC_CFGR_PPRE1));
 8002e0a:	f04f 43b0 	mov.w	r3, #1476395008	; 0x58000000
 8002e0e:	689b      	ldr	r3, [r3, #8]
 8002e10:	f3c3 2302 	ubfx	r3, r3, #8, #3
 8002e14:	4a02      	ldr	r2, [pc, #8]	; (8002e20 <HAL_RCC_GetPCLK1Freq+0x1c>)
 8002e16:	f852 3023 	ldr.w	r3, [r2, r3, lsl #2]
}
 8002e1a:	40d8      	lsrs	r0, r3
 8002e1c:	bd08      	pop	{r3, pc}
 8002e1e:	bf00      	nop
 8002e20:	08009604 	.word	0x08009604

08002e24 <HAL_RCC_GetPCLK2Freq>:
{
 8002e24:	b508      	push	{r3, lr}
  return ((uint32_t)(__LL_RCC_CALC_PCLK2_FREQ(HAL_RCC_GetHCLKFreq(), LL_RCC_GetAPB2Prescaler())));
 8002e26:	f7ff fb77 	bl	8002518 <HAL_RCC_GetHCLKFreq>
  return (uint32_t)(READ_BIT(RCC->CFGR, RCC_CFGR_PPRE2));
 8002e2a:	f04f 43b0 	mov.w	r3, #1476395008	; 0x58000000
 8002e2e:	689b      	ldr	r3, [r3, #8]
 8002e30:	f3c3 23c2 	ubfx	r3, r3, #11, #3
 8002e34:	4a02      	ldr	r2, [pc, #8]	; (8002e40 <HAL_RCC_GetPCLK2Freq+0x1c>)
 8002e36:	f852 3023 	ldr.w	r3, [r2, r3, lsl #2]
}
 8002e3a:	40d8      	lsrs	r0, r3
 8002e3c:	bd08      	pop	{r3, pc}
 8002e3e:	bf00      	nop
 8002e40:	08009604 	.word	0x08009604

08002e44 <HAL_RCCEx_PeriphCLKConfig>:
  *         the RTC clock source: in this case the access to Backup domain is enabled.
  *
  * @retval HAL status
  */
HAL_StatusTypeDef HAL_RCCEx_PeriphCLKConfig(RCC_PeriphCLKInitTypeDef  *PeriphClkInit)
{
 8002e44:	b570      	push	{r4, r5, r6, lr}
 8002e46:	4604      	mov	r4, r0

  /* Check the parameters */
  assert_param(IS_RCC_PERIPHCLOCK(PeriphClkInit->PeriphClockSelection));

  /*-------------------------- RTC clock source configuration ----------------------*/
  if ((PeriphClkInit->PeriphClockSelection & RCC_PERIPHCLK_RTC) == RCC_PERIPHCLK_RTC)
 8002e48:	6803      	ldr	r3, [r0, #0]
 8002e4a:	f413 3f80 	tst.w	r3, #65536	; 0x10000
 8002e4e:	f040 80ab 	bne.w	8002fa8 <HAL_RCCEx_PeriphCLKConfig+0x164>
  HAL_StatusTypeDef status  = HAL_OK;   /* Final status */
 8002e52:	2500      	movs	r5, #0
    }

  }

  /*-------------------- USART1 clock source configuration -------------------*/
  if (((PeriphClkInit->PeriphClockSelection) & RCC_PERIPHCLK_USART1) == RCC_PERIPHCLK_USART1)
 8002e54:	6823      	ldr	r3, [r4, #0]
 8002e56:	f013 0f01 	tst.w	r3, #1
 8002e5a:	d00a      	beq.n	8002e72 <HAL_RCCEx_PeriphCLKConfig+0x2e>
  {
    /* Check the parameters */
    assert_param(IS_RCC_USART1CLKSOURCE(PeriphClkInit->Usart1ClockSelection));

    /* Configure the USART1 clock source */
    __HAL_RCC_USART1_CONFIG(PeriphClkInit->Usart1ClockSelection);
 8002e5c:	6862      	ldr	r2, [r4, #4]
  MODIFY_REG(RCC->CCIPR, (USARTxSource >> 16), (USARTxSource & 0x0000FFFFU));
 8002e5e:	f04f 41b0 	mov.w	r1, #1476395008	; 0x58000000
 8002e62:	f8d1 3088 	ldr.w	r3, [r1, #136]	; 0x88
 8002e66:	ea23 4312 	bic.w	r3, r3, r2, lsr #16
 8002e6a:	b292      	uxth	r2, r2
 8002e6c:	4313      	orrs	r3, r2
 8002e6e:	f8c1 3088 	str.w	r3, [r1, #136]	; 0x88
  }

  /*-------------------- USART2 clock source configuration -------------------*/
  if (((PeriphClkInit->PeriphClockSelection) & RCC_PERIPHCLK_USART2) == RCC_PERIPHCLK_USART2)
 8002e72:	6823      	ldr	r3, [r4, #0]
 8002e74:	f013 0f02 	tst.w	r3, #2
 8002e78:	d00a      	beq.n	8002e90 <HAL_RCCEx_PeriphCLKConfig+0x4c>
  {
    /* Check the parameters */
    assert_param(IS_RCC_USART2CLKSOURCE(PeriphClkInit->Usart2ClockSelection));

    /* Configure the USART2 clock source */
    __HAL_RCC_USART2_CONFIG(PeriphClkInit->Usart2ClockSelection);
 8002e7a:	68a2      	ldr	r2, [r4, #8]
 8002e7c:	f04f 41b0 	mov.w	r1, #1476395008	; 0x58000000
 8002e80:	f8d1 3088 	ldr.w	r3, [r1, #136]	; 0x88
 8002e84:	ea23 4312 	bic.w	r3, r3, r2, lsr #16
 8002e88:	b292      	uxth	r2, r2
 8002e8a:	4313      	orrs	r3, r2
 8002e8c:	f8c1 3088 	str.w	r3, [r1, #136]	; 0x88
  }

  /*-------------------- LPUART1 clock source configuration ------------------*/
  if (((PeriphClkInit->PeriphClockSelection) & RCC_PERIPHCLK_LPUART1) == RCC_PERIPHCLK_LPUART1)
 8002e90:	6823      	ldr	r3, [r4, #0]
 8002e92:	f013 0f20 	tst.w	r3, #32
 8002e96:	d009      	beq.n	8002eac <HAL_RCCEx_PeriphCLKConfig+0x68>
  {
    /* Check the parameters */
    assert_param(IS_RCC_LPUART1CLKSOURCE(PeriphClkInit->Lpuart1ClockSelection));

    /* Configure the LPUAR1 clock source */
    __HAL_RCC_LPUART1_CONFIG(PeriphClkInit->Lpuart1ClockSelection);
 8002e98:	6923      	ldr	r3, [r4, #16]
  MODIFY_REG(RCC->CCIPR, RCC_CCIPR_LPUART1SEL, LPUARTxSource);
 8002e9a:	f04f 41b0 	mov.w	r1, #1476395008	; 0x58000000
 8002e9e:	f8d1 2088 	ldr.w	r2, [r1, #136]	; 0x88
 8002ea2:	f422 6240 	bic.w	r2, r2, #3072	; 0xc00
 8002ea6:	4313      	orrs	r3, r2
 8002ea8:	f8c1 3088 	str.w	r3, [r1, #136]	; 0x88
  }

  /*-------------------- LPTIM1 clock source configuration -------------------*/
  if (((PeriphClkInit->PeriphClockSelection) & RCC_PERIPHCLK_LPTIM1) == (RCC_PERIPHCLK_LPTIM1))
 8002eac:	6823      	ldr	r3, [r4, #0]
 8002eae:	f413 7f00 	tst.w	r3, #512	; 0x200
 8002eb2:	d00c      	beq.n	8002ece <HAL_RCCEx_PeriphCLKConfig+0x8a>
  {
    /* Check the parameters */
    assert_param(IS_RCC_LPTIM1CLKSOURCE(PeriphClkInit->Lptim1ClockSelection));

    /* Configure the LPTIM1 clock source */
    __HAL_RCC_LPTIM1_CONFIG(PeriphClkInit->Lptim1ClockSelection);
 8002eb4:	6a20      	ldr	r0, [r4, #32]
  MODIFY_REG(RCC->CCIPR, (LPTIMxSource & 0xFFFF0000U), (LPTIMxSource << 16));
 8002eb6:	f04f 41b0 	mov.w	r1, #1476395008	; 0x58000000
 8002eba:	f8d1 3088 	ldr.w	r3, [r1, #136]	; 0x88
 8002ebe:	0c02      	lsrs	r2, r0, #16
 8002ec0:	0412      	lsls	r2, r2, #16
 8002ec2:	ea23 0302 	bic.w	r3, r3, r2
 8002ec6:	ea43 4300 	orr.w	r3, r3, r0, lsl #16
 8002eca:	f8c1 3088 	str.w	r3, [r1, #136]	; 0x88
  }

  /*-------------------- LPTIM2 clock source configuration -------------------*/
  if (((PeriphClkInit->PeriphClockSelection) & RCC_PERIPHCLK_LPTIM2) == (RCC_PERIPHCLK_LPTIM2))
 8002ece:	6823      	ldr	r3, [r4, #0]
 8002ed0:	f413 6f80 	tst.w	r3, #1024	; 0x400
 8002ed4:	d00c      	beq.n	8002ef0 <HAL_RCCEx_PeriphCLKConfig+0xac>
  {
    /* Check the parameters */
    assert_param(IS_RCC_LPTIM2CLKSOURCE(PeriphClkInit->Lptim2ClockSelection));

    /* Configure the LPTIM2 clock source */
    __HAL_RCC_LPTIM2_CONFIG(PeriphClkInit->Lptim2ClockSelection);
 8002ed6:	6a60      	ldr	r0, [r4, #36]	; 0x24
 8002ed8:	f04f 41b0 	mov.w	r1, #1476395008	; 0x58000000
 8002edc:	f8d1 3088 	ldr.w	r3, [r1, #136]	; 0x88
 8002ee0:	0c02      	lsrs	r2, r0, #16
 8002ee2:	0412      	lsls	r2, r2, #16
 8002ee4:	ea23 0302 	bic.w	r3, r3, r2
 8002ee8:	ea43 4300 	orr.w	r3, r3, r0, lsl #16
 8002eec:	f8c1 3088 	str.w	r3, [r1, #136]	; 0x88
  }

  /*-------------------- LPTIM3 clock source configuration -------------------*/
  if (((PeriphClkInit->PeriphClockSelection) & RCC_PERIPHCLK_LPTIM3) == (RCC_PERIPHCLK_LPTIM3))
 8002ef0:	6823      	ldr	r3, [r4, #0]
 8002ef2:	f413 6f00 	tst.w	r3, #2048	; 0x800
 8002ef6:	d00c      	beq.n	8002f12 <HAL_RCCEx_PeriphCLKConfig+0xce>
  {
    /* Check the parameters */
    assert_param(IS_RCC_LPTIM3CLKSOURCE(PeriphClkInit->Lptim3ClockSelection));

    /* Configure the LPTIM3 clock source */
    __HAL_RCC_LPTIM3_CONFIG(PeriphClkInit->Lptim3ClockSelection);
 8002ef8:	6aa0      	ldr	r0, [r4, #40]	; 0x28
 8002efa:	f04f 41b0 	mov.w	r1, #1476395008	; 0x58000000
 8002efe:	f8d1 3088 	ldr.w	r3, [r1, #136]	; 0x88
 8002f02:	0c02      	lsrs	r2, r0, #16
 8002f04:	0412      	lsls	r2, r2, #16
 8002f06:	ea23 0302 	bic.w	r3, r3, r2
 8002f0a:	ea43 4300 	orr.w	r3, r3, r0, lsl #16
 8002f0e:	f8c1 3088 	str.w	r3, [r1, #136]	; 0x88
  }

  /*-------------------- I2C1 clock source configuration ---------------------*/
  if (((PeriphClkInit->PeriphClockSelection) & RCC_PERIPHCLK_I2C1) == RCC_PERIPHCLK_I2C1)
 8002f12:	6823      	ldr	r3, [r4, #0]
 8002f14:	f013 0f40 	tst.w	r3, #64	; 0x40
 8002f18:	f040 809e 	bne.w	8003058 <HAL_RCCEx_PeriphCLKConfig+0x214>
    /* Configure the I2C1 clock source */
    __HAL_RCC_I2C1_CONFIG(PeriphClkInit->I2c1ClockSelection);
  }

  /*-------------------- I2C2 clock source configuration ---------------------*/
  if (((PeriphClkInit->PeriphClockSelection) & RCC_PERIPHCLK_I2C2) == RCC_PERIPHCLK_I2C2)
 8002f1c:	6823      	ldr	r3, [r4, #0]
 8002f1e:	f013 0f80 	tst.w	r3, #128	; 0x80
 8002f22:	f040 80aa 	bne.w	800307a <HAL_RCCEx_PeriphCLKConfig+0x236>
    /* Configure the I2C2 clock source */
    __HAL_RCC_I2C2_CONFIG(PeriphClkInit->I2c2ClockSelection);
  }

  /*-------------------- I2C3 clock source configuration ---------------------*/
  if (((PeriphClkInit->PeriphClockSelection) & RCC_PERIPHCLK_I2C3) == RCC_PERIPHCLK_I2C3)
 8002f26:	6823      	ldr	r3, [r4, #0]
 8002f28:	f413 7f80 	tst.w	r3, #256	; 0x100
 8002f2c:	f040 80b6 	bne.w	800309c <HAL_RCCEx_PeriphCLKConfig+0x258>
    /* Configure the I2C3 clock source */
    __HAL_RCC_I2C3_CONFIG(PeriphClkInit->I2c3ClockSelection);
  }

  /*-------------------- I2S2 clock source configuration ---------------------*/
  if (((PeriphClkInit->PeriphClockSelection) & RCC_PERIPHCLK_I2S2) == (RCC_PERIPHCLK_I2S2))
 8002f30:	6823      	ldr	r3, [r4, #0]
 8002f32:	f013 0f10 	tst.w	r3, #16
 8002f36:	d00e      	beq.n	8002f56 <HAL_RCCEx_PeriphCLKConfig+0x112>
  {
    /* Check the parameters */
    assert_param(IS_RCC_I2S2CLKSOURCE(PeriphClkInit->I2s2ClockSelection));

    /* Configure the I2S2 clock source */
    __HAL_RCC_I2S2_CONFIG(PeriphClkInit->I2s2ClockSelection);
 8002f38:	68e3      	ldr	r3, [r4, #12]
  MODIFY_REG(RCC->CCIPR, RCC_CCIPR_I2S2SEL, I2SxSource);
 8002f3a:	f04f 41b0 	mov.w	r1, #1476395008	; 0x58000000
 8002f3e:	f8d1 2088 	ldr.w	r2, [r1, #136]	; 0x88
 8002f42:	f422 7240 	bic.w	r2, r2, #768	; 0x300
 8002f46:	4313      	orrs	r3, r2
 8002f48:	f8c1 3088 	str.w	r3, [r1, #136]	; 0x88

    if (PeriphClkInit->I2s2ClockSelection == RCC_I2S2CLKSOURCE_PLL)
 8002f4c:	68e3      	ldr	r3, [r4, #12]
 8002f4e:	f5b3 7f80 	cmp.w	r3, #256	; 0x100
 8002f52:	f000 80b4 	beq.w	80030be <HAL_RCCEx_PeriphCLKConfig+0x27a>
      __HAL_RCC_PLLCLKOUT_ENABLE(RCC_PLL_I2S2CLK);
    }
  }

  /*-------------------- RNG clock source configuration ----------------------*/
  if (((PeriphClkInit->PeriphClockSelection) & RCC_PERIPHCLK_RNG) == (RCC_PERIPHCLK_RNG))
 8002f56:	6823      	ldr	r3, [r4, #0]
 8002f58:	f413 4f00 	tst.w	r3, #32768	; 0x8000
 8002f5c:	d00f      	beq.n	8002f7e <HAL_RCCEx_PeriphCLKConfig+0x13a>
  {
    assert_param(IS_RCC_RNGCLKSOURCE(PeriphClkInit->RngClockSelection));
    __HAL_RCC_RNG_CONFIG(PeriphClkInit->RngClockSelection);
 8002f5e:	6b23      	ldr	r3, [r4, #48]	; 0x30
  MODIFY_REG(RCC->CCIPR, RCC_CCIPR_RNGSEL, RNGxSource);
 8002f60:	f04f 41b0 	mov.w	r1, #1476395008	; 0x58000000
 8002f64:	f8d1 2088 	ldr.w	r2, [r1, #136]	; 0x88
 8002f68:	f022 4240 	bic.w	r2, r2, #3221225472	; 0xc0000000
 8002f6c:	4313      	orrs	r3, r2
 8002f6e:	f8c1 3088 	str.w	r3, [r1, #136]	; 0x88

    if (PeriphClkInit->RngClockSelection == RCC_RNGCLKSOURCE_PLL)
 8002f72:	6b23      	ldr	r3, [r4, #48]	; 0x30
 8002f74:	b91b      	cbnz	r3, 8002f7e <HAL_RCCEx_PeriphCLKConfig+0x13a>
    {
      /* Enable RCC_PLL_RNGCLK output */
      __HAL_RCC_PLLCLKOUT_ENABLE(RCC_PLL_RNGCLK);
 8002f76:	68cb      	ldr	r3, [r1, #12]
 8002f78:	f043 7380 	orr.w	r3, r3, #16777216	; 0x1000000
 8002f7c:	60cb      	str	r3, [r1, #12]
    }
  }

  /*-------------------- ADC clock source configuration ----------------------*/
  if (((PeriphClkInit->PeriphClockSelection) & RCC_PERIPHCLK_ADC) == RCC_PERIPHCLK_ADC)
 8002f7e:	6823      	ldr	r3, [r4, #0]
 8002f80:	f413 4f80 	tst.w	r3, #16384	; 0x4000
 8002f84:	d00e      	beq.n	8002fa4 <HAL_RCCEx_PeriphCLKConfig+0x160>
  {
    /* Check the parameters */
    assert_param(IS_RCC_ADCCLKSOURCE(PeriphClkInit->AdcClockSelection));

    /* Configure the ADC interface clock source */
    __HAL_RCC_ADC_CONFIG(PeriphClkInit->AdcClockSelection);
 8002f86:	6ae3      	ldr	r3, [r4, #44]	; 0x2c
  MODIFY_REG(RCC->CCIPR, RCC_CCIPR_ADCSEL, ADCxSource);
 8002f88:	f04f 41b0 	mov.w	r1, #1476395008	; 0x58000000
 8002f8c:	f8d1 2088 	ldr.w	r2, [r1, #136]	; 0x88
 8002f90:	f022 5240 	bic.w	r2, r2, #805306368	; 0x30000000
 8002f94:	4313      	orrs	r3, r2
 8002f96:	f8c1 3088 	str.w	r3, [r1, #136]	; 0x88

    if (PeriphClkInit->AdcClockSelection == RCC_ADCCLKSOURCE_PLL)
 8002f9a:	6ae3      	ldr	r3, [r4, #44]	; 0x2c
 8002f9c:	f1b3 5f00 	cmp.w	r3, #536870912	; 0x20000000
 8002fa0:	f000 8092 	beq.w	80030c8 <HAL_RCCEx_PeriphCLKConfig+0x284>
      __HAL_RCC_PLLCLKOUT_ENABLE(RCC_PLL_ADCCLK);
    }
  }

  return status;
}
 8002fa4:	4628      	mov	r0, r5
 8002fa6:	bd70      	pop	{r4, r5, r6, pc}
    HAL_PWR_EnableBkUpAccess();
 8002fa8:	f7ff f92c 	bl	8002204 <HAL_PWR_EnableBkUpAccess>
    tickstart = HAL_GetTick();
 8002fac:	f7fd fcf6 	bl	800099c <HAL_GetTick>
 8002fb0:	4605      	mov	r5, r0
    while (!(READ_BIT(PWR->CR1, PWR_CR1_DBP) == (PWR_CR1_DBP)))
 8002fb2:	4b48      	ldr	r3, [pc, #288]	; (80030d4 <HAL_RCCEx_PeriphCLKConfig+0x290>)
 8002fb4:	681b      	ldr	r3, [r3, #0]
 8002fb6:	f413 7f80 	tst.w	r3, #256	; 0x100
 8002fba:	d106      	bne.n	8002fca <HAL_RCCEx_PeriphCLKConfig+0x186>
      if ((HAL_GetTick() - tickstart) > RCC_DBP_TIMEOUT_VALUE)
 8002fbc:	f7fd fcee 	bl	800099c <HAL_GetTick>
 8002fc0:	1b40      	subs	r0, r0, r5
 8002fc2:	2802      	cmp	r0, #2
 8002fc4:	d9f5      	bls.n	8002fb2 <HAL_RCCEx_PeriphCLKConfig+0x16e>
        ret = HAL_TIMEOUT;
 8002fc6:	2503      	movs	r5, #3
 8002fc8:	e000      	b.n	8002fcc <HAL_RCCEx_PeriphCLKConfig+0x188>
  HAL_StatusTypeDef ret = HAL_OK;   /* Intermediate status */
 8002fca:	2500      	movs	r5, #0
    if (ret == HAL_OK)
 8002fcc:	2d00      	cmp	r5, #0
 8002fce:	f47f af41 	bne.w	8002e54 <HAL_RCCEx_PeriphCLKConfig+0x10>
  return (uint32_t)(READ_BIT(RCC->BDCR, RCC_BDCR_RTCSEL));
 8002fd2:	f04f 43b0 	mov.w	r3, #1476395008	; 0x58000000
 8002fd6:	f8d3 3090 	ldr.w	r3, [r3, #144]	; 0x90
 8002fda:	f403 7340 	and.w	r3, r3, #768	; 0x300
      if (LL_RCC_GetRTCClockSource() != PeriphClkInit->RTCClockSelection)
 8002fde:	6b62      	ldr	r2, [r4, #52]	; 0x34
 8002fe0:	429a      	cmp	r2, r3
 8002fe2:	d024      	beq.n	800302e <HAL_RCCEx_PeriphCLKConfig+0x1ea>
        tmpregister = READ_BIT(RCC->BDCR, ~(RCC_BDCR_RTCSEL));
 8002fe4:	f04f 43b0 	mov.w	r3, #1476395008	; 0x58000000
 8002fe8:	f8d3 2090 	ldr.w	r2, [r3, #144]	; 0x90
 8002fec:	f422 7240 	bic.w	r2, r2, #768	; 0x300
  SET_BIT(RCC->BDCR, RCC_BDCR_BDRST);
 8002ff0:	f8d3 1090 	ldr.w	r1, [r3, #144]	; 0x90
 8002ff4:	f441 3180 	orr.w	r1, r1, #65536	; 0x10000
 8002ff8:	f8c3 1090 	str.w	r1, [r3, #144]	; 0x90
  CLEAR_BIT(RCC->BDCR, RCC_BDCR_BDRST);
 8002ffc:	f8d3 1090 	ldr.w	r1, [r3, #144]	; 0x90
 8003000:	f421 3180 	bic.w	r1, r1, #65536	; 0x10000
 8003004:	f8c3 1090 	str.w	r1, [r3, #144]	; 0x90
        RCC->BDCR = tmpregister;
 8003008:	f8c3 2090 	str.w	r2, [r3, #144]	; 0x90
      if (HAL_IS_BIT_SET(tmpregister, RCC_BDCR_LSERDY))
 800300c:	f012 0f02 	tst.w	r2, #2
 8003010:	d10f      	bne.n	8003032 <HAL_RCCEx_PeriphCLKConfig+0x1ee>
      if (ret == HAL_OK)
 8003012:	2d00      	cmp	r5, #0
 8003014:	f47f af1e 	bne.w	8002e54 <HAL_RCCEx_PeriphCLKConfig+0x10>
        __HAL_RCC_RTC_CONFIG(PeriphClkInit->RTCClockSelection);
 8003018:	6b63      	ldr	r3, [r4, #52]	; 0x34
  MODIFY_REG(RCC->BDCR, RCC_BDCR_RTCSEL, Source);
 800301a:	f04f 41b0 	mov.w	r1, #1476395008	; 0x58000000
 800301e:	f8d1 2090 	ldr.w	r2, [r1, #144]	; 0x90
 8003022:	f422 7240 	bic.w	r2, r2, #768	; 0x300
 8003026:	4313      	orrs	r3, r2
 8003028:	f8c1 3090 	str.w	r3, [r1, #144]	; 0x90
}
 800302c:	e712      	b.n	8002e54 <HAL_RCCEx_PeriphCLKConfig+0x10>
  uint32_t tmpregister = 0;
 800302e:	2200      	movs	r2, #0
 8003030:	e7ec      	b.n	800300c <HAL_RCCEx_PeriphCLKConfig+0x1c8>
        tickstart = HAL_GetTick();
 8003032:	f7fd fcb3 	bl	800099c <HAL_GetTick>
 8003036:	4606      	mov	r6, r0
  return ((READ_BIT(RCC->BDCR, RCC_BDCR_LSERDY) == (RCC_BDCR_LSERDY)) ? 1UL : 0UL);
 8003038:	f04f 43b0 	mov.w	r3, #1476395008	; 0x58000000
 800303c:	f8d3 3090 	ldr.w	r3, [r3, #144]	; 0x90
 8003040:	f013 0f02 	tst.w	r3, #2
 8003044:	d1e5      	bne.n	8003012 <HAL_RCCEx_PeriphCLKConfig+0x1ce>
          if ((HAL_GetTick() - tickstart) > RCC_LSE_TIMEOUT_VALUE)
 8003046:	f7fd fca9 	bl	800099c <HAL_GetTick>
 800304a:	1b80      	subs	r0, r0, r6
 800304c:	f241 3388 	movw	r3, #5000	; 0x1388
 8003050:	4298      	cmp	r0, r3
 8003052:	d9f1      	bls.n	8003038 <HAL_RCCEx_PeriphCLKConfig+0x1f4>
            ret = HAL_TIMEOUT;
 8003054:	2503      	movs	r5, #3
 8003056:	e7dc      	b.n	8003012 <HAL_RCCEx_PeriphCLKConfig+0x1ce>
    __HAL_RCC_I2C1_CONFIG(PeriphClkInit->I2c1ClockSelection);
 8003058:	6963      	ldr	r3, [r4, #20]
  MODIFY_REG(RCC->CCIPR, ((I2CxSource >> 4) & 0x000FF000U), ((I2CxSource << 4) & 0x000FF000U));
 800305a:	f04f 40b0 	mov.w	r0, #1476395008	; 0x58000000
 800305e:	f8d0 2088 	ldr.w	r2, [r0, #136]	; 0x88
 8003062:	0919      	lsrs	r1, r3, #4
 8003064:	f401 217f 	and.w	r1, r1, #1044480	; 0xff000
 8003068:	ea22 0201 	bic.w	r2, r2, r1
 800306c:	011b      	lsls	r3, r3, #4
 800306e:	f403 237f 	and.w	r3, r3, #1044480	; 0xff000
 8003072:	4313      	orrs	r3, r2
 8003074:	f8c0 3088 	str.w	r3, [r0, #136]	; 0x88
}
 8003078:	e750      	b.n	8002f1c <HAL_RCCEx_PeriphCLKConfig+0xd8>
    __HAL_RCC_I2C2_CONFIG(PeriphClkInit->I2c2ClockSelection);
 800307a:	69a3      	ldr	r3, [r4, #24]
  MODIFY_REG(RCC->CCIPR, ((I2CxSource >> 4) & 0x000FF000U), ((I2CxSource << 4) & 0x000FF000U));
 800307c:	f04f 40b0 	mov.w	r0, #1476395008	; 0x58000000
 8003080:	f8d0 2088 	ldr.w	r2, [r0, #136]	; 0x88
 8003084:	0919      	lsrs	r1, r3, #4
 8003086:	f401 217f 	and.w	r1, r1, #1044480	; 0xff000
 800308a:	ea22 0201 	bic.w	r2, r2, r1
 800308e:	011b      	lsls	r3, r3, #4
 8003090:	f403 237f 	and.w	r3, r3, #1044480	; 0xff000
 8003094:	4313      	orrs	r3, r2
 8003096:	f8c0 3088 	str.w	r3, [r0, #136]	; 0x88
}
 800309a:	e744      	b.n	8002f26 <HAL_RCCEx_PeriphCLKConfig+0xe2>
    __HAL_RCC_I2C3_CONFIG(PeriphClkInit->I2c3ClockSelection);
 800309c:	69e3      	ldr	r3, [r4, #28]
  MODIFY_REG(RCC->CCIPR, ((I2CxSource >> 4) & 0x000FF000U), ((I2CxSource << 4) & 0x000FF000U));
 800309e:	f04f 40b0 	mov.w	r0, #1476395008	; 0x58000000
 80030a2:	f8d0 2088 	ldr.w	r2, [r0, #136]	; 0x88
 80030a6:	0919      	lsrs	r1, r3, #4
 80030a8:	f401 217f 	and.w	r1, r1, #1044480	; 0xff000
 80030ac:	ea22 0201 	bic.w	r2, r2, r1
 80030b0:	011b      	lsls	r3, r3, #4
 80030b2:	f403 237f 	and.w	r3, r3, #1044480	; 0xff000
 80030b6:	4313      	orrs	r3, r2
 80030b8:	f8c0 3088 	str.w	r3, [r0, #136]	; 0x88
}
 80030bc:	e738      	b.n	8002f30 <HAL_RCCEx_PeriphCLKConfig+0xec>
      __HAL_RCC_PLLCLKOUT_ENABLE(RCC_PLL_I2S2CLK);
 80030be:	68cb      	ldr	r3, [r1, #12]
 80030c0:	f043 7380 	orr.w	r3, r3, #16777216	; 0x1000000
 80030c4:	60cb      	str	r3, [r1, #12]
 80030c6:	e746      	b.n	8002f56 <HAL_RCCEx_PeriphCLKConfig+0x112>
      __HAL_RCC_PLLCLKOUT_ENABLE(RCC_PLL_ADCCLK);
 80030c8:	68cb      	ldr	r3, [r1, #12]
 80030ca:	f443 3380 	orr.w	r3, r3, #65536	; 0x10000
 80030ce:	60cb      	str	r3, [r1, #12]
 80030d0:	e768      	b.n	8002fa4 <HAL_RCCEx_PeriphCLKConfig+0x160>
 80030d2:	bf00      	nop
 80030d4:	58000400 	.word	0x58000400

080030d8 <HAL_RTC_DeactivateAlarm>:
  *            @arg RTC_ALARM_A:  AlarmA
  *            @arg RTC_ALARM_B:  AlarmB
  * @retval HAL status
  */
HAL_StatusTypeDef HAL_RTC_DeactivateAlarm(RTC_HandleTypeDef *hrtc, uint32_t Alarm)
{
 80030d8:	4603      	mov	r3, r0
  /* Check the parameters */
  assert_param(IS_RTC_ALARM(Alarm));

  /* Process Locked */
  __HAL_LOCK(hrtc);
 80030da:	f890 202c 	ldrb.w	r2, [r0, #44]	; 0x2c
 80030de:	2a01      	cmp	r2, #1
 80030e0:	d035      	beq.n	800314e <HAL_RTC_DeactivateAlarm+0x76>
 80030e2:	2201      	movs	r2, #1
 80030e4:	f880 202c 	strb.w	r2, [r0, #44]	; 0x2c

  hrtc->State = HAL_RTC_STATE_BUSY;
 80030e8:	2202      	movs	r2, #2
 80030ea:	f880 202d 	strb.w	r2, [r0, #45]	; 0x2d

  /* Disable the write protection for RTC registers */
  __HAL_RTC_WRITEPROTECTION_DISABLE(hrtc);
 80030ee:	4a19      	ldr	r2, [pc, #100]	; (8003154 <HAL_RTC_DeactivateAlarm+0x7c>)
 80030f0:	20ca      	movs	r0, #202	; 0xca
 80030f2:	6250      	str	r0, [r2, #36]	; 0x24
 80030f4:	2053      	movs	r0, #83	; 0x53
 80030f6:	6250      	str	r0, [r2, #36]	; 0x24

  if (Alarm == RTC_ALARM_A)
 80030f8:	f5b1 7f80 	cmp.w	r1, #256	; 0x100
 80030fc:	d018      	beq.n	8003130 <HAL_RTC_DeactivateAlarm+0x58>
    WRITE_REG(RTC->SCR, RTC_SCR_CALRAF);
  }
  else
  {
    /* AlarmB, In case of interrupt mode is used, the interrupt source must disabled */
    CLEAR_BIT(RTC->CR, RTC_CR_ALRBE | RTC_CR_ALRBIE);
 80030fe:	4a15      	ldr	r2, [pc, #84]	; (8003154 <HAL_RTC_DeactivateAlarm+0x7c>)
 8003100:	6991      	ldr	r1, [r2, #24]
 8003102:	f421 5108 	bic.w	r1, r1, #8704	; 0x2200
 8003106:	6191      	str	r1, [r2, #24]

    /* AlarmB, Clear SSCLR */
    CLEAR_BIT(RTC->ALRMBSSR, RTC_ALRMBSSR_SSCLR);
 8003108:	6cd1      	ldr	r1, [r2, #76]	; 0x4c
 800310a:	f021 4100 	bic.w	r1, r1, #2147483648	; 0x80000000
 800310e:	64d1      	str	r1, [r2, #76]	; 0x4c

    /* Store in the handle the Alarm B disabled */
    CLEAR_BIT(hrtc->IsEnabled.RtcFeatures, RTC_MISR_ALRBMF);
 8003110:	6b19      	ldr	r1, [r3, #48]	; 0x30
 8003112:	f021 0102 	bic.w	r1, r1, #2
 8003116:	6319      	str	r1, [r3, #48]	; 0x30

    /* Clear AlarmB flag */
    WRITE_REG(RTC->SCR, RTC_SCR_CALRBF);
 8003118:	2102      	movs	r1, #2
 800311a:	65d1      	str	r1, [r2, #92]	; 0x5c
  }

  /* Enable the write protection for RTC registers */
  __HAL_RTC_WRITEPROTECTION_ENABLE(hrtc);
 800311c:	4a0d      	ldr	r2, [pc, #52]	; (8003154 <HAL_RTC_DeactivateAlarm+0x7c>)
 800311e:	21ff      	movs	r1, #255	; 0xff
 8003120:	6251      	str	r1, [r2, #36]	; 0x24

  hrtc->State = HAL_RTC_STATE_READY;
 8003122:	2201      	movs	r2, #1
 8003124:	f883 202d 	strb.w	r2, [r3, #45]	; 0x2d

  /* Process Unlocked */
  __HAL_UNLOCK(hrtc);
 8003128:	2000      	movs	r0, #0
 800312a:	f883 002c 	strb.w	r0, [r3, #44]	; 0x2c

  return HAL_OK;
 800312e:	4770      	bx	lr
    CLEAR_BIT(RTC->CR, RTC_CR_ALRAE | RTC_CR_ALRAIE);
 8003130:	6991      	ldr	r1, [r2, #24]
 8003132:	f421 5188 	bic.w	r1, r1, #4352	; 0x1100
 8003136:	6191      	str	r1, [r2, #24]
    CLEAR_BIT(RTC->ALRMASSR, RTC_ALRMASSR_SSCLR);
 8003138:	6c51      	ldr	r1, [r2, #68]	; 0x44
 800313a:	f021 4100 	bic.w	r1, r1, #2147483648	; 0x80000000
 800313e:	6451      	str	r1, [r2, #68]	; 0x44
    CLEAR_BIT(hrtc->IsEnabled.RtcFeatures, RTC_MISR_ALRAMF);
 8003140:	6b19      	ldr	r1, [r3, #48]	; 0x30
 8003142:	f021 0101 	bic.w	r1, r1, #1
 8003146:	6319      	str	r1, [r3, #48]	; 0x30
    WRITE_REG(RTC->SCR, RTC_SCR_CALRAF);
 8003148:	2101      	movs	r1, #1
 800314a:	65d1      	str	r1, [r2, #92]	; 0x5c
 800314c:	e7e6      	b.n	800311c <HAL_RTC_DeactivateAlarm+0x44>
  __HAL_LOCK(hrtc);
 800314e:	2002      	movs	r0, #2
}
 8003150:	4770      	bx	lr
 8003152:	bf00      	nop
 8003154:	40002800 	.word	0x40002800

08003158 <HAL_RTC_AlarmIRQHandler>:
  * @brief  Handle Alarm interrupt request.
  * @param  hrtc RTC handle
  * @retval None
  */
void HAL_RTC_AlarmIRQHandler(RTC_HandleTypeDef *hrtc)
{
 8003158:	b538      	push	{r3, r4, r5, lr}
 800315a:	4604      	mov	r4, r0
  uint32_t tmp = READ_REG(RTC->MISR) & READ_REG(hrtc->IsEnabled.RtcFeatures);
 800315c:	4b0d      	ldr	r3, [pc, #52]	; (8003194 <HAL_RTC_AlarmIRQHandler+0x3c>)
 800315e:	6d5d      	ldr	r5, [r3, #84]	; 0x54
 8003160:	6b03      	ldr	r3, [r0, #48]	; 0x30
 8003162:	401d      	ands	r5, r3

  if ((tmp & RTC_MISR_ALRAMF) != 0U)
 8003164:	f015 0f01 	tst.w	r5, #1
 8003168:	d106      	bne.n	8003178 <HAL_RTC_AlarmIRQHandler+0x20>
#else
    HAL_RTC_AlarmAEventCallback(hrtc);
#endif
  }

  if ((tmp & RTC_MISR_ALRBMF) != 0U)
 800316a:	f015 0f02 	tst.w	r5, #2
 800316e:	d109      	bne.n	8003184 <HAL_RTC_AlarmIRQHandler+0x2c>
    HAL_RTCEx_AlarmBEventCallback(hrtc);
#endif
  }

  /* Change RTC state */
  hrtc->State = HAL_RTC_STATE_READY;
 8003170:	2301      	movs	r3, #1
 8003172:	f884 302d 	strb.w	r3, [r4, #45]	; 0x2d
}
 8003176:	bd38      	pop	{r3, r4, r5, pc}
    WRITE_REG(RTC->SCR, RTC_SCR_CALRAF);
 8003178:	4b06      	ldr	r3, [pc, #24]	; (8003194 <HAL_RTC_AlarmIRQHandler+0x3c>)
 800317a:	2201      	movs	r2, #1
 800317c:	65da      	str	r2, [r3, #92]	; 0x5c
    HAL_RTC_AlarmAEventCallback(hrtc);
 800317e:	f7fd fdf5 	bl	8000d6c <HAL_RTC_AlarmAEventCallback>
 8003182:	e7f2      	b.n	800316a <HAL_RTC_AlarmIRQHandler+0x12>
    WRITE_REG(RTC->SCR, RTC_SCR_CALRBF);
 8003184:	4b03      	ldr	r3, [pc, #12]	; (8003194 <HAL_RTC_AlarmIRQHandler+0x3c>)
 8003186:	2202      	movs	r2, #2
 8003188:	65da      	str	r2, [r3, #92]	; 0x5c
    HAL_RTCEx_AlarmBEventCallback(hrtc);
 800318a:	4620      	mov	r0, r4
 800318c:	f000 f9ec 	bl	8003568 <HAL_RTCEx_AlarmBEventCallback>
 8003190:	e7ee      	b.n	8003170 <HAL_RTC_AlarmIRQHandler+0x18>
 8003192:	bf00      	nop
 8003194:	40002800 	.word	0x40002800

08003198 <HAL_RTC_WaitForSynchro>:
  *         correctly copied into the RTC_TR and RTC_DR shadow registers.
  * @param  hrtc RTC handle
  * @retval HAL status
  */
HAL_StatusTypeDef HAL_RTC_WaitForSynchro(RTC_HandleTypeDef *hrtc)
{
 8003198:	b510      	push	{r4, lr}
  uint32_t tickstart;

  UNUSED(hrtc);
  /* Clear RSF flag */
  CLEAR_BIT(RTC->ICSR, RTC_ICSR_RSF);
 800319a:	4a0b      	ldr	r2, [pc, #44]	; (80031c8 <HAL_RTC_WaitForSynchro+0x30>)
 800319c:	68d3      	ldr	r3, [r2, #12]
 800319e:	f023 0320 	bic.w	r3, r3, #32
 80031a2:	60d3      	str	r3, [r2, #12]

  tickstart = HAL_GetTick();
 80031a4:	f7fd fbfa 	bl	800099c <HAL_GetTick>
 80031a8:	4604      	mov	r4, r0

  /* Wait the registers to be synchronised */
  while (READ_BIT(RTC->ICSR, RTC_ICSR_RSF) == 0U)
 80031aa:	4b07      	ldr	r3, [pc, #28]	; (80031c8 <HAL_RTC_WaitForSynchro+0x30>)
 80031ac:	68db      	ldr	r3, [r3, #12]
 80031ae:	f013 0f20 	tst.w	r3, #32
 80031b2:	d107      	bne.n	80031c4 <HAL_RTC_WaitForSynchro+0x2c>
  {
    if ((HAL_GetTick() - tickstart) > RTC_TIMEOUT_VALUE)
 80031b4:	f7fd fbf2 	bl	800099c <HAL_GetTick>
 80031b8:	1b00      	subs	r0, r0, r4
 80031ba:	f5b0 7f7a 	cmp.w	r0, #1000	; 0x3e8
 80031be:	d9f4      	bls.n	80031aa <HAL_RTC_WaitForSynchro+0x12>
    {
      return HAL_TIMEOUT;
 80031c0:	2003      	movs	r0, #3
 80031c2:	e000      	b.n	80031c6 <HAL_RTC_WaitForSynchro+0x2e>
    }
  }

  return HAL_OK;
 80031c4:	2000      	movs	r0, #0
}
 80031c6:	bd10      	pop	{r4, pc}
 80031c8:	40002800 	.word	0x40002800

080031cc <RTC_EnterInitMode>:
  *         __HAL_RTC_WRITEPROTECTION_DISABLE() before calling this function.
  * @param  hrtc RTC handle
  * @retval HAL status
  */
HAL_StatusTypeDef RTC_EnterInitMode(RTC_HandleTypeDef *hrtc)
{
 80031cc:	b570      	push	{r4, r5, r6, lr}
  uint32_t tickstart;
  HAL_StatusTypeDef status = HAL_OK;

  UNUSED(hrtc);
  /* Check if the Initialization mode is set */
  if (READ_BIT(RTC->ICSR, RTC_ICSR_INITF) == 0U)
 80031ce:	4b11      	ldr	r3, [pc, #68]	; (8003214 <RTC_EnterInitMode+0x48>)
 80031d0:	68db      	ldr	r3, [r3, #12]
 80031d2:	f013 0f40 	tst.w	r3, #64	; 0x40
 80031d6:	d002      	beq.n	80031de <RTC_EnterInitMode+0x12>
  HAL_StatusTypeDef status = HAL_OK;
 80031d8:	2400      	movs	r4, #0
      }
    }
  }

  return status;
}
 80031da:	4620      	mov	r0, r4
 80031dc:	bd70      	pop	{r4, r5, r6, pc}
 80031de:	4606      	mov	r6, r0
    SET_BIT(RTC->ICSR, RTC_ICSR_INIT);
 80031e0:	4a0c      	ldr	r2, [pc, #48]	; (8003214 <RTC_EnterInitMode+0x48>)
 80031e2:	68d3      	ldr	r3, [r2, #12]
 80031e4:	f043 0380 	orr.w	r3, r3, #128	; 0x80
 80031e8:	60d3      	str	r3, [r2, #12]
    tickstart = HAL_GetTick();
 80031ea:	f7fd fbd7 	bl	800099c <HAL_GetTick>
 80031ee:	4605      	mov	r5, r0
  HAL_StatusTypeDef status = HAL_OK;
 80031f0:	2400      	movs	r4, #0
    while ((READ_BIT(RTC->ICSR, RTC_ICSR_INITF) == 0U) && (status != HAL_TIMEOUT))
 80031f2:	4b08      	ldr	r3, [pc, #32]	; (8003214 <RTC_EnterInitMode+0x48>)
 80031f4:	68db      	ldr	r3, [r3, #12]
 80031f6:	f013 0f40 	tst.w	r3, #64	; 0x40
 80031fa:	d1ee      	bne.n	80031da <RTC_EnterInitMode+0xe>
 80031fc:	2c03      	cmp	r4, #3
 80031fe:	d0ec      	beq.n	80031da <RTC_EnterInitMode+0xe>
      if ((HAL_GetTick()  - tickstart) > RTC_TIMEOUT_VALUE)
 8003200:	f7fd fbcc 	bl	800099c <HAL_GetTick>
 8003204:	1b43      	subs	r3, r0, r5
 8003206:	f5b3 7f7a 	cmp.w	r3, #1000	; 0x3e8
 800320a:	d9f2      	bls.n	80031f2 <RTC_EnterInitMode+0x26>
        hrtc->State = HAL_RTC_STATE_TIMEOUT;
 800320c:	2403      	movs	r4, #3
 800320e:	f886 402d 	strb.w	r4, [r6, #45]	; 0x2d
 8003212:	e7ee      	b.n	80031f2 <RTC_EnterInitMode+0x26>
 8003214:	40002800 	.word	0x40002800

08003218 <RTC_ExitInitMode>:
  * @brief  Exit the RTC Initialization mode.
  * @param  hrtc RTC handle
  * @retval HAL status
  */
HAL_StatusTypeDef RTC_ExitInitMode(RTC_HandleTypeDef *hrtc)
{
 8003218:	b510      	push	{r4, lr}
 800321a:	4604      	mov	r4, r0
  HAL_StatusTypeDef status = HAL_OK;

  /* Exit Initialization mode */
  CLEAR_BIT(RTC->ICSR, RTC_ICSR_INIT);
 800321c:	4b10      	ldr	r3, [pc, #64]	; (8003260 <RTC_ExitInitMode+0x48>)
 800321e:	68da      	ldr	r2, [r3, #12]
 8003220:	f022 0280 	bic.w	r2, r2, #128	; 0x80
 8003224:	60da      	str	r2, [r3, #12]

  /* If CR_BYPSHAD bit = 0, wait for synchro */
  if (READ_BIT(RTC->CR, RTC_CR_BYPSHAD) == 0U)
 8003226:	699b      	ldr	r3, [r3, #24]
 8003228:	f013 0f20 	tst.w	r3, #32
 800322c:	d106      	bne.n	800323c <RTC_ExitInitMode+0x24>
  {
    if (HAL_RTC_WaitForSynchro(hrtc) != HAL_OK)
 800322e:	f7ff ffb3 	bl	8003198 <HAL_RTC_WaitForSynchro>
 8003232:	b198      	cbz	r0, 800325c <RTC_ExitInitMode+0x44>
    {
      hrtc->State = HAL_RTC_STATE_TIMEOUT;
 8003234:	2003      	movs	r0, #3
 8003236:	f884 002d 	strb.w	r0, [r4, #45]	; 0x2d
      status = HAL_TIMEOUT;
 800323a:	e00f      	b.n	800325c <RTC_ExitInitMode+0x44>
    }
  }
  else /* WA 2.9.6 Calendar initialization may fail in case of consecutive INIT mode entry. */
  {
    /* Clear BYPSHAD bit */
    CLEAR_BIT(RTC->CR, RTC_CR_BYPSHAD);
 800323c:	4a08      	ldr	r2, [pc, #32]	; (8003260 <RTC_ExitInitMode+0x48>)
 800323e:	6993      	ldr	r3, [r2, #24]
 8003240:	f023 0320 	bic.w	r3, r3, #32
 8003244:	6193      	str	r3, [r2, #24]
    if (HAL_RTC_WaitForSynchro(hrtc) != HAL_OK)
 8003246:	f7ff ffa7 	bl	8003198 <HAL_RTC_WaitForSynchro>
 800324a:	b110      	cbz	r0, 8003252 <RTC_ExitInitMode+0x3a>
    {
      hrtc->State = HAL_RTC_STATE_TIMEOUT;
 800324c:	2003      	movs	r0, #3
 800324e:	f884 002d 	strb.w	r0, [r4, #45]	; 0x2d
      status = HAL_TIMEOUT;
    }
    /* Restore BYPSHAD bit */
    SET_BIT(RTC->CR, RTC_CR_BYPSHAD);
 8003252:	4a03      	ldr	r2, [pc, #12]	; (8003260 <RTC_ExitInitMode+0x48>)
 8003254:	6993      	ldr	r3, [r2, #24]
 8003256:	f043 0320 	orr.w	r3, r3, #32
 800325a:	6193      	str	r3, [r2, #24]
  }

  return status;
}
 800325c:	bd10      	pop	{r4, pc}
 800325e:	bf00      	nop
 8003260:	40002800 	.word	0x40002800

08003264 <HAL_RTC_Init>:
  if (hrtc != NULL)
 8003264:	2800      	cmp	r0, #0
 8003266:	d052      	beq.n	800330e <HAL_RTC_Init+0xaa>
{
 8003268:	b538      	push	{r3, r4, r5, lr}
 800326a:	4604      	mov	r4, r0
    if (hrtc->State == HAL_RTC_STATE_RESET)
 800326c:	f890 302d 	ldrb.w	r3, [r0, #45]	; 0x2d
 8003270:	b163      	cbz	r3, 800328c <HAL_RTC_Init+0x28>
    hrtc->State = HAL_RTC_STATE_BUSY;
 8003272:	2302      	movs	r3, #2
 8003274:	f884 302d 	strb.w	r3, [r4, #45]	; 0x2d
    if (__HAL_RTC_IS_CALENDAR_INITIALIZED(hrtc) == 0U)
 8003278:	4b26      	ldr	r3, [pc, #152]	; (8003314 <HAL_RTC_Init+0xb0>)
 800327a:	68db      	ldr	r3, [r3, #12]
 800327c:	f013 0f10 	tst.w	r3, #16
 8003280:	d009      	beq.n	8003296 <HAL_RTC_Init+0x32>
      status = HAL_OK;
 8003282:	2000      	movs	r0, #0
      hrtc->State = HAL_RTC_STATE_READY;
 8003284:	2301      	movs	r3, #1
 8003286:	f884 302d 	strb.w	r3, [r4, #45]	; 0x2d
}
 800328a:	bd38      	pop	{r3, r4, r5, pc}
      hrtc->Lock = HAL_UNLOCKED;
 800328c:	f880 302c 	strb.w	r3, [r0, #44]	; 0x2c
      HAL_RTC_MspInit(hrtc);
 8003290:	f7fd fa6a 	bl	8000768 <HAL_RTC_MspInit>
 8003294:	e7ed      	b.n	8003272 <HAL_RTC_Init+0xe>
      __HAL_RTC_WRITEPROTECTION_DISABLE(hrtc);
 8003296:	4b1f      	ldr	r3, [pc, #124]	; (8003314 <HAL_RTC_Init+0xb0>)
 8003298:	22ca      	movs	r2, #202	; 0xca
 800329a:	625a      	str	r2, [r3, #36]	; 0x24
 800329c:	2253      	movs	r2, #83	; 0x53
 800329e:	625a      	str	r2, [r3, #36]	; 0x24
      status = RTC_EnterInitMode(hrtc);
 80032a0:	4620      	mov	r0, r4
 80032a2:	f7ff ff93 	bl	80031cc <RTC_EnterInitMode>
      if (status == HAL_OK)
 80032a6:	b128      	cbz	r0, 80032b4 <HAL_RTC_Init+0x50>
      __HAL_RTC_WRITEPROTECTION_ENABLE(hrtc);
 80032a8:	4b1a      	ldr	r3, [pc, #104]	; (8003314 <HAL_RTC_Init+0xb0>)
 80032aa:	22ff      	movs	r2, #255	; 0xff
 80032ac:	625a      	str	r2, [r3, #36]	; 0x24
    if (status == HAL_OK)
 80032ae:	2800      	cmp	r0, #0
 80032b0:	d1eb      	bne.n	800328a <HAL_RTC_Init+0x26>
 80032b2:	e7e7      	b.n	8003284 <HAL_RTC_Init+0x20>
        CLEAR_BIT(RTC->CR, (RTC_CR_FMT | RTC_CR_POL | RTC_CR_OSEL | RTC_CR_TAMPOE));
 80032b4:	4b17      	ldr	r3, [pc, #92]	; (8003314 <HAL_RTC_Init+0xb0>)
 80032b6:	699a      	ldr	r2, [r3, #24]
 80032b8:	f022 628e 	bic.w	r2, r2, #74448896	; 0x4700000
 80032bc:	f022 0240 	bic.w	r2, r2, #64	; 0x40
 80032c0:	619a      	str	r2, [r3, #24]
        SET_BIT(RTC->CR, (hrtc->Init.HourFormat | hrtc->Init.OutPut | hrtc->Init.OutPutPolarity));
 80032c2:	6999      	ldr	r1, [r3, #24]
 80032c4:	6862      	ldr	r2, [r4, #4]
 80032c6:	6920      	ldr	r0, [r4, #16]
 80032c8:	4302      	orrs	r2, r0
 80032ca:	69a0      	ldr	r0, [r4, #24]
 80032cc:	4302      	orrs	r2, r0
 80032ce:	430a      	orrs	r2, r1
 80032d0:	619a      	str	r2, [r3, #24]
        WRITE_REG(RTC->PRER, ((hrtc->Init.SynchPrediv) | (hrtc->Init.AsynchPrediv << RTC_PRER_PREDIV_A_Pos)));
 80032d2:	68e2      	ldr	r2, [r4, #12]
 80032d4:	68a1      	ldr	r1, [r4, #8]
 80032d6:	ea42 4201 	orr.w	r2, r2, r1, lsl #16
 80032da:	611a      	str	r2, [r3, #16]
        MODIFY_REG(RTC->ICSR, RTC_ICSR_BIN | RTC_ICSR_BCDU, hrtc->Init.BinMode | hrtc->Init.BinMixBcdU);
 80032dc:	68da      	ldr	r2, [r3, #12]
 80032de:	f422 52f8 	bic.w	r2, r2, #7936	; 0x1f00
 80032e2:	6a61      	ldr	r1, [r4, #36]	; 0x24
 80032e4:	6aa0      	ldr	r0, [r4, #40]	; 0x28
 80032e6:	4301      	orrs	r1, r0
 80032e8:	430a      	orrs	r2, r1
 80032ea:	60da      	str	r2, [r3, #12]
        status = RTC_ExitInitMode(hrtc);
 80032ec:	4620      	mov	r0, r4
 80032ee:	f7ff ff93 	bl	8003218 <RTC_ExitInitMode>
        if (status == HAL_OK)
 80032f2:	2800      	cmp	r0, #0
 80032f4:	d1d8      	bne.n	80032a8 <HAL_RTC_Init+0x44>
          MODIFY_REG(RTC->CR, \
 80032f6:	4907      	ldr	r1, [pc, #28]	; (8003314 <HAL_RTC_Init+0xb0>)
 80032f8:	698b      	ldr	r3, [r1, #24]
 80032fa:	f023 4360 	bic.w	r3, r3, #3758096384	; 0xe0000000
 80032fe:	6a22      	ldr	r2, [r4, #32]
 8003300:	69e5      	ldr	r5, [r4, #28]
 8003302:	432a      	orrs	r2, r5
 8003304:	6965      	ldr	r5, [r4, #20]
 8003306:	432a      	orrs	r2, r5
 8003308:	4313      	orrs	r3, r2
 800330a:	618b      	str	r3, [r1, #24]
 800330c:	e7cc      	b.n	80032a8 <HAL_RTC_Init+0x44>
  HAL_StatusTypeDef status = HAL_ERROR;
 800330e:	2001      	movs	r0, #1
}
 8003310:	4770      	bx	lr
 8003312:	bf00      	nop
 8003314:	40002800 	.word	0x40002800

08003318 <RTC_ByteToBcd2>:
  * @param  Value Byte to be converted
  * @retval Converted byte
  */
uint8_t RTC_ByteToBcd2(uint8_t Value)
{
  uint32_t bcdhigh = 0U;
 8003318:	2300      	movs	r3, #0
  uint8_t tmp_Value = Value;

  while (tmp_Value >= 10U)
 800331a:	e002      	b.n	8003322 <RTC_ByteToBcd2+0xa>
  {
    bcdhigh++;
 800331c:	3301      	adds	r3, #1
    tmp_Value -= 10U;
 800331e:	380a      	subs	r0, #10
 8003320:	b2c0      	uxtb	r0, r0
  while (tmp_Value >= 10U)
 8003322:	2809      	cmp	r0, #9
 8003324:	d8fa      	bhi.n	800331c <RTC_ByteToBcd2+0x4>
  }

  return ((uint8_t)(bcdhigh << 4U) | tmp_Value);
 8003326:	011b      	lsls	r3, r3, #4
 8003328:	b2db      	uxtb	r3, r3
}
 800332a:	4318      	orrs	r0, r3
 800332c:	4770      	bx	lr
	...

08003330 <HAL_RTC_SetAlarm_IT>:
  __HAL_LOCK(hrtc);
 8003330:	f890 302c 	ldrb.w	r3, [r0, #44]	; 0x2c
 8003334:	2b01      	cmp	r3, #1
 8003336:	f000 80b0 	beq.w	800349a <HAL_RTC_SetAlarm_IT+0x16a>
{
 800333a:	e92d 41f0 	stmdb	sp!, {r4, r5, r6, r7, r8, lr}
 800333e:	4605      	mov	r5, r0
 8003340:	460c      	mov	r4, r1
  __HAL_LOCK(hrtc);
 8003342:	2301      	movs	r3, #1
 8003344:	f880 302c 	strb.w	r3, [r0, #44]	; 0x2c
  hrtc->State = HAL_RTC_STATE_BUSY;
 8003348:	2302      	movs	r3, #2
 800334a:	f880 302d 	strb.w	r3, [r0, #45]	; 0x2d
  binaryMode = READ_BIT(RTC->ICSR, RTC_ICSR_BIN);
 800334e:	4b54      	ldr	r3, [pc, #336]	; (80034a0 <HAL_RTC_SetAlarm_IT+0x170>)
 8003350:	68de      	ldr	r6, [r3, #12]
 8003352:	f406 7640 	and.w	r6, r6, #768	; 0x300
  if (binaryMode != RTC_BINARY_ONLY)
 8003356:	f5b6 7f80 	cmp.w	r6, #256	; 0x100
 800335a:	d043      	beq.n	80033e4 <HAL_RTC_SetAlarm_IT+0xb4>
    if (Format == RTC_FORMAT_BIN)
 800335c:	bb12      	cbnz	r2, 80033a4 <HAL_RTC_SetAlarm_IT+0x74>
      if (READ_BIT(RTC->CR, RTC_CR_FMT) != 0U)
 800335e:	699b      	ldr	r3, [r3, #24]
 8003360:	f013 0f40 	tst.w	r3, #64	; 0x40
 8003364:	d101      	bne.n	800336a <HAL_RTC_SetAlarm_IT+0x3a>
        sAlarm->AlarmTime.TimeFormat = 0x00U;
 8003366:	2300      	movs	r3, #0
 8003368:	70cb      	strb	r3, [r1, #3]
      if( sAlarm->AlarmMask != RTC_ALARMMASK_DATEWEEKDAY )
 800336a:	f8d4 8014 	ldr.w	r8, [r4, #20]
      tmpreg = (((uint32_t)RTC_ByteToBcd2(sAlarm->AlarmTime.Hours) << RTC_ALRMAR_HU_Pos) | \
 800336e:	7820      	ldrb	r0, [r4, #0]
 8003370:	f7ff ffd2 	bl	8003318 <RTC_ByteToBcd2>
 8003374:	0407      	lsls	r7, r0, #16
                ((uint32_t)RTC_ByteToBcd2(sAlarm->AlarmTime.Minutes) << RTC_ALRMAR_MNU_Pos) | \
 8003376:	7860      	ldrb	r0, [r4, #1]
 8003378:	f7ff ffce 	bl	8003318 <RTC_ByteToBcd2>
      tmpreg = (((uint32_t)RTC_ByteToBcd2(sAlarm->AlarmTime.Hours) << RTC_ALRMAR_HU_Pos) | \
 800337c:	ea47 2700 	orr.w	r7, r7, r0, lsl #8
                ((uint32_t)RTC_ByteToBcd2(sAlarm->AlarmTime.Seconds) << RTC_ALRMAR_SU_Pos) | \
 8003380:	78a0      	ldrb	r0, [r4, #2]
 8003382:	f7ff ffc9 	bl	8003318 <RTC_ByteToBcd2>
                ((uint32_t)RTC_ByteToBcd2(sAlarm->AlarmTime.Minutes) << RTC_ALRMAR_MNU_Pos) | \
 8003386:	4307      	orrs	r7, r0
                ((uint32_t)(sAlarm->AlarmTime.TimeFormat) << RTC_ALRMAR_PM_Pos) | \
 8003388:	78e3      	ldrb	r3, [r4, #3]
                ((uint32_t)RTC_ByteToBcd2(sAlarm->AlarmTime.Seconds) << RTC_ALRMAR_SU_Pos) | \
 800338a:	ea47 5783 	orr.w	r7, r7, r3, lsl #22
                ((uint32_t)RTC_ByteToBcd2(sAlarm->AlarmDateWeekDay) << RTC_ALRMAR_DU_Pos) | \
 800338e:	f894 0024 	ldrb.w	r0, [r4, #36]	; 0x24
 8003392:	f7ff ffc1 	bl	8003318 <RTC_ByteToBcd2>
                ((uint32_t)(sAlarm->AlarmTime.TimeFormat) << RTC_ALRMAR_PM_Pos) | \
 8003396:	ea47 6000 	orr.w	r0, r7, r0, lsl #24
                ((uint32_t)sAlarm->AlarmDateWeekDaySel) | \
 800339a:	6a23      	ldr	r3, [r4, #32]
                ((uint32_t)RTC_ByteToBcd2(sAlarm->AlarmDateWeekDay) << RTC_ALRMAR_DU_Pos) | \
 800339c:	4318      	orrs	r0, r3
      tmpreg = (((uint32_t)RTC_ByteToBcd2(sAlarm->AlarmTime.Hours) << RTC_ALRMAR_HU_Pos) | \
 800339e:	ea48 0000 	orr.w	r0, r8, r0
 80033a2:	e020      	b.n	80033e6 <HAL_RTC_SetAlarm_IT+0xb6>
      if( sAlarm->AlarmMask != RTC_ALARMMASK_ALL )
 80033a4:	6948      	ldr	r0, [r1, #20]
 80033a6:	f1b0 3f80 	cmp.w	r0, #2155905152	; 0x80808080
 80033aa:	d009      	beq.n	80033c0 <HAL_RTC_SetAlarm_IT+0x90>
        if( sAlarm->AlarmMask != RTC_ALARMMASK_HOURS )
 80033ac:	f5b0 0f00 	cmp.w	r0, #8388608	; 0x800000
 80033b0:	d006      	beq.n	80033c0 <HAL_RTC_SetAlarm_IT+0x90>
          if (READ_BIT(RTC->CR, RTC_CR_FMT) != 0U)
 80033b2:	4b3b      	ldr	r3, [pc, #236]	; (80034a0 <HAL_RTC_SetAlarm_IT+0x170>)
 80033b4:	699b      	ldr	r3, [r3, #24]
 80033b6:	f013 0f40 	tst.w	r3, #64	; 0x40
 80033ba:	d101      	bne.n	80033c0 <HAL_RTC_SetAlarm_IT+0x90>
            sAlarm->AlarmTime.TimeFormat = 0x00U;
 80033bc:	2300      	movs	r3, #0
 80033be:	70cb      	strb	r3, [r1, #3]
      tmpreg = (((uint32_t)(sAlarm->AlarmTime.Hours) << RTC_ALRMAR_HU_Pos) | \
 80033c0:	7822      	ldrb	r2, [r4, #0]
                ((uint32_t)(sAlarm->AlarmTime.Minutes) << RTC_ALRMAR_MNU_Pos) | \
 80033c2:	7863      	ldrb	r3, [r4, #1]
 80033c4:	021b      	lsls	r3, r3, #8
      tmpreg = (((uint32_t)(sAlarm->AlarmTime.Hours) << RTC_ALRMAR_HU_Pos) | \
 80033c6:	ea43 4302 	orr.w	r3, r3, r2, lsl #16
                ((uint32_t)(sAlarm->AlarmTime.Seconds) << RTC_ALRMAR_SU_Pos) | \
 80033ca:	78a2      	ldrb	r2, [r4, #2]
                ((uint32_t)(sAlarm->AlarmTime.Minutes) << RTC_ALRMAR_MNU_Pos) | \
 80033cc:	4313      	orrs	r3, r2
                ((uint32_t)(sAlarm->AlarmTime.TimeFormat) << RTC_ALRMAR_PM_Pos) | \
 80033ce:	78e2      	ldrb	r2, [r4, #3]
                ((uint32_t)(sAlarm->AlarmTime.Seconds) << RTC_ALRMAR_SU_Pos) | \
 80033d0:	ea43 5382 	orr.w	r3, r3, r2, lsl #22
                ((uint32_t)(sAlarm->AlarmDateWeekDay) << RTC_ALRMAR_DU_Pos) | \
 80033d4:	f894 2024 	ldrb.w	r2, [r4, #36]	; 0x24
                ((uint32_t)(sAlarm->AlarmTime.TimeFormat) << RTC_ALRMAR_PM_Pos) | \
 80033d8:	ea43 6302 	orr.w	r3, r3, r2, lsl #24
                ((uint32_t)sAlarm->AlarmDateWeekDaySel) | \
 80033dc:	6a22      	ldr	r2, [r4, #32]
                ((uint32_t)(sAlarm->AlarmDateWeekDay) << RTC_ALRMAR_DU_Pos) | \
 80033de:	4313      	orrs	r3, r2
      tmpreg = (((uint32_t)(sAlarm->AlarmTime.Hours) << RTC_ALRMAR_HU_Pos) | \
 80033e0:	4318      	orrs	r0, r3
 80033e2:	e000      	b.n	80033e6 <HAL_RTC_SetAlarm_IT+0xb6>
  uint32_t tmpreg = 0;
 80033e4:	2000      	movs	r0, #0
  __HAL_RTC_WRITEPROTECTION_DISABLE(hrtc);
 80033e6:	4b2e      	ldr	r3, [pc, #184]	; (80034a0 <HAL_RTC_SetAlarm_IT+0x170>)
 80033e8:	22ca      	movs	r2, #202	; 0xca
 80033ea:	625a      	str	r2, [r3, #36]	; 0x24
 80033ec:	2253      	movs	r2, #83	; 0x53
 80033ee:	625a      	str	r2, [r3, #36]	; 0x24
  if (sAlarm->Alarm == RTC_ALARM_A)
 80033f0:	6aa3      	ldr	r3, [r4, #40]	; 0x28
 80033f2:	f5b3 7f80 	cmp.w	r3, #256	; 0x100
 80033f6:	d02a      	beq.n	800344e <HAL_RTC_SetAlarm_IT+0x11e>
    CLEAR_BIT(RTC->CR, RTC_CR_ALRBE | RTC_CR_ALRBIE);
 80033f8:	4b29      	ldr	r3, [pc, #164]	; (80034a0 <HAL_RTC_SetAlarm_IT+0x170>)
 80033fa:	699a      	ldr	r2, [r3, #24]
 80033fc:	f422 5208 	bic.w	r2, r2, #8704	; 0x2200
 8003400:	619a      	str	r2, [r3, #24]
    WRITE_REG(RTC->SCR, RTC_SCR_CALRBF);
 8003402:	2202      	movs	r2, #2
 8003404:	65da      	str	r2, [r3, #92]	; 0x5c
    if (binaryMode == RTC_BINARY_ONLY)
 8003406:	f5b6 7f80 	cmp.w	r6, #256	; 0x100
 800340a:	d040      	beq.n	800348e <HAL_RTC_SetAlarm_IT+0x15e>
      WRITE_REG(RTC->ALRMBR, tmpreg);
 800340c:	4b24      	ldr	r3, [pc, #144]	; (80034a0 <HAL_RTC_SetAlarm_IT+0x170>)
 800340e:	6498      	str	r0, [r3, #72]	; 0x48
      WRITE_REG(RTC->ALRMBSSR, sAlarm->AlarmSubSecondMask);
 8003410:	69a2      	ldr	r2, [r4, #24]
 8003412:	64da      	str	r2, [r3, #76]	; 0x4c
    WRITE_REG(RTC->ALRBBINR, sAlarm->AlarmTime.SubSeconds);
 8003414:	6862      	ldr	r2, [r4, #4]
 8003416:	4b22      	ldr	r3, [pc, #136]	; (80034a0 <HAL_RTC_SetAlarm_IT+0x170>)
 8003418:	675a      	str	r2, [r3, #116]	; 0x74
    SET_BIT(hrtc->IsEnabled.RtcFeatures, RTC_MISR_ALRBMF);
 800341a:	6b2a      	ldr	r2, [r5, #48]	; 0x30
 800341c:	f042 0202 	orr.w	r2, r2, #2
 8003420:	632a      	str	r2, [r5, #48]	; 0x30
    SET_BIT(RTC->CR, RTC_CR_ALRBE | RTC_CR_ALRBIE);
 8003422:	699a      	ldr	r2, [r3, #24]
 8003424:	f442 5208 	orr.w	r2, r2, #8704	; 0x2200
 8003428:	619a      	str	r2, [r3, #24]
  __HAL_RTC_ALARM_EXTI_ENABLE_IT();
 800342a:	4a1e      	ldr	r2, [pc, #120]	; (80034a4 <HAL_RTC_SetAlarm_IT+0x174>)
 800342c:	f8d2 3080 	ldr.w	r3, [r2, #128]	; 0x80
 8003430:	f443 3300 	orr.w	r3, r3, #131072	; 0x20000
 8003434:	f8c2 3080 	str.w	r3, [r2, #128]	; 0x80
  __HAL_RTC_WRITEPROTECTION_ENABLE(hrtc);
 8003438:	4b19      	ldr	r3, [pc, #100]	; (80034a0 <HAL_RTC_SetAlarm_IT+0x170>)
 800343a:	22ff      	movs	r2, #255	; 0xff
 800343c:	625a      	str	r2, [r3, #36]	; 0x24
  hrtc->State = HAL_RTC_STATE_READY;
 800343e:	2301      	movs	r3, #1
 8003440:	f885 302d 	strb.w	r3, [r5, #45]	; 0x2d
  __HAL_UNLOCK(hrtc);
 8003444:	2000      	movs	r0, #0
 8003446:	f885 002c 	strb.w	r0, [r5, #44]	; 0x2c
}
 800344a:	e8bd 81f0 	ldmia.w	sp!, {r4, r5, r6, r7, r8, pc}
    CLEAR_BIT(RTC->CR, RTC_CR_ALRAE | RTC_CR_ALRAIE);
 800344e:	4b14      	ldr	r3, [pc, #80]	; (80034a0 <HAL_RTC_SetAlarm_IT+0x170>)
 8003450:	699a      	ldr	r2, [r3, #24]
 8003452:	f422 5288 	bic.w	r2, r2, #4352	; 0x1100
 8003456:	619a      	str	r2, [r3, #24]
    WRITE_REG(RTC->SCR, RTC_SCR_CALRAF);
 8003458:	2201      	movs	r2, #1
 800345a:	65da      	str	r2, [r3, #92]	; 0x5c
    if (binaryMode == RTC_BINARY_ONLY)
 800345c:	f5b6 7f80 	cmp.w	r6, #256	; 0x100
 8003460:	d00f      	beq.n	8003482 <HAL_RTC_SetAlarm_IT+0x152>
      WRITE_REG(RTC->ALRMAR, tmpreg);
 8003462:	4b0f      	ldr	r3, [pc, #60]	; (80034a0 <HAL_RTC_SetAlarm_IT+0x170>)
 8003464:	6418      	str	r0, [r3, #64]	; 0x40
      WRITE_REG(RTC->ALRMASSR, sAlarm->AlarmSubSecondMask);
 8003466:	69a2      	ldr	r2, [r4, #24]
 8003468:	645a      	str	r2, [r3, #68]	; 0x44
    WRITE_REG(RTC->ALRABINR, sAlarm->AlarmTime.SubSeconds);
 800346a:	6862      	ldr	r2, [r4, #4]
 800346c:	4b0c      	ldr	r3, [pc, #48]	; (80034a0 <HAL_RTC_SetAlarm_IT+0x170>)
 800346e:	671a      	str	r2, [r3, #112]	; 0x70
    SET_BIT(hrtc->IsEnabled.RtcFeatures, RTC_MISR_ALRAMF);
 8003470:	6b2a      	ldr	r2, [r5, #48]	; 0x30
 8003472:	f042 0201 	orr.w	r2, r2, #1
 8003476:	632a      	str	r2, [r5, #48]	; 0x30
    SET_BIT(RTC->CR, RTC_CR_ALRAE | RTC_CR_ALRAIE);
 8003478:	699a      	ldr	r2, [r3, #24]
 800347a:	f442 5288 	orr.w	r2, r2, #4352	; 0x1100
 800347e:	619a      	str	r2, [r3, #24]
 8003480:	e7d3      	b.n	800342a <HAL_RTC_SetAlarm_IT+0xfa>
      RTC->ALRMASSR = sAlarm->AlarmSubSecondMask | sAlarm->BinaryAutoClr;
 8003482:	69a3      	ldr	r3, [r4, #24]
 8003484:	69e2      	ldr	r2, [r4, #28]
 8003486:	4313      	orrs	r3, r2
 8003488:	4a05      	ldr	r2, [pc, #20]	; (80034a0 <HAL_RTC_SetAlarm_IT+0x170>)
 800348a:	6453      	str	r3, [r2, #68]	; 0x44
 800348c:	e7ed      	b.n	800346a <HAL_RTC_SetAlarm_IT+0x13a>
      WRITE_REG(RTC->ALRMBSSR, sAlarm->AlarmSubSecondMask | sAlarm->BinaryAutoClr);
 800348e:	69a3      	ldr	r3, [r4, #24]
 8003490:	69e2      	ldr	r2, [r4, #28]
 8003492:	4313      	orrs	r3, r2
 8003494:	4a02      	ldr	r2, [pc, #8]	; (80034a0 <HAL_RTC_SetAlarm_IT+0x170>)
 8003496:	64d3      	str	r3, [r2, #76]	; 0x4c
 8003498:	e7bc      	b.n	8003414 <HAL_RTC_SetAlarm_IT+0xe4>
  __HAL_LOCK(hrtc);
 800349a:	2002      	movs	r0, #2
}
 800349c:	4770      	bx	lr
 800349e:	bf00      	nop
 80034a0:	40002800 	.word	0x40002800
 80034a4:	58000800 	.word	0x58000800

080034a8 <HAL_RTCEx_EnableBypassShadow>:
  * @retval HAL status
  */
HAL_StatusTypeDef HAL_RTCEx_EnableBypassShadow(RTC_HandleTypeDef *hrtc)
{
  /* Process Locked */
  __HAL_LOCK(hrtc);
 80034a8:	f890 302c 	ldrb.w	r3, [r0, #44]	; 0x2c
 80034ac:	2b01      	cmp	r3, #1
 80034ae:	d017      	beq.n	80034e0 <HAL_RTCEx_EnableBypassShadow+0x38>
 80034b0:	2101      	movs	r1, #1
 80034b2:	f880 102c 	strb.w	r1, [r0, #44]	; 0x2c

  hrtc->State = HAL_RTC_STATE_BUSY;
 80034b6:	2302      	movs	r3, #2
 80034b8:	f880 302d 	strb.w	r3, [r0, #45]	; 0x2d

  /* Disable the write protection for RTC registers */
  __HAL_RTC_WRITEPROTECTION_DISABLE(hrtc);
 80034bc:	4b09      	ldr	r3, [pc, #36]	; (80034e4 <HAL_RTCEx_EnableBypassShadow+0x3c>)
 80034be:	22ca      	movs	r2, #202	; 0xca
 80034c0:	625a      	str	r2, [r3, #36]	; 0x24
 80034c2:	2253      	movs	r2, #83	; 0x53
 80034c4:	625a      	str	r2, [r3, #36]	; 0x24

  /* Set the BYPSHAD bit */
  SET_BIT(RTC->CR, RTC_CR_BYPSHAD);
 80034c6:	699a      	ldr	r2, [r3, #24]
 80034c8:	f042 0220 	orr.w	r2, r2, #32
 80034cc:	619a      	str	r2, [r3, #24]

  /* Enable the write protection for RTC registers */
  __HAL_RTC_WRITEPROTECTION_ENABLE(hrtc);
 80034ce:	22ff      	movs	r2, #255	; 0xff
 80034d0:	625a      	str	r2, [r3, #36]	; 0x24

  /* Change RTC state */
  hrtc->State = HAL_RTC_STATE_READY;
 80034d2:	f880 102d 	strb.w	r1, [r0, #45]	; 0x2d

  /* Process Unlocked */
  __HAL_UNLOCK(hrtc);
 80034d6:	2300      	movs	r3, #0
 80034d8:	f880 302c 	strb.w	r3, [r0, #44]	; 0x2c

  return HAL_OK;
 80034dc:	4618      	mov	r0, r3
 80034de:	4770      	bx	lr
  __HAL_LOCK(hrtc);
 80034e0:	2002      	movs	r0, #2
}
 80034e2:	4770      	bx	lr
 80034e4:	40002800 	.word	0x40002800

080034e8 <HAL_RTCEx_SetSSRU_IT>:
  * @retval HAL status
  */
HAL_StatusTypeDef HAL_RTCEx_SetSSRU_IT(RTC_HandleTypeDef *hrtc)
{
  /* Process Locked */
  __HAL_LOCK(hrtc);
 80034e8:	f890 302c 	ldrb.w	r3, [r0, #44]	; 0x2c
 80034ec:	2b01      	cmp	r3, #1
 80034ee:	d020      	beq.n	8003532 <HAL_RTCEx_SetSSRU_IT+0x4a>
{
 80034f0:	b410      	push	{r4}
  __HAL_LOCK(hrtc);
 80034f2:	2101      	movs	r1, #1
 80034f4:	f880 102c 	strb.w	r1, [r0, #44]	; 0x2c

  hrtc->State = HAL_RTC_STATE_BUSY;
 80034f8:	2302      	movs	r3, #2
 80034fa:	f880 302d 	strb.w	r3, [r0, #45]	; 0x2d

  /* Disable the write protection for RTC registers */
  __HAL_RTC_WRITEPROTECTION_DISABLE(hrtc);
 80034fe:	4b0e      	ldr	r3, [pc, #56]	; (8003538 <HAL_RTCEx_SetSSRU_IT+0x50>)
 8003500:	22ca      	movs	r2, #202	; 0xca
 8003502:	625a      	str	r2, [r3, #36]	; 0x24
 8003504:	2253      	movs	r2, #83	; 0x53
 8003506:	625a      	str	r2, [r3, #36]	; 0x24

  /* Enable IT SSRU */
  __HAL_RTC_SSRU_ENABLE_IT(hrtc, RTC_IT_SSRU);
 8003508:	699a      	ldr	r2, [r3, #24]
 800350a:	f042 0280 	orr.w	r2, r2, #128	; 0x80
 800350e:	619a      	str	r2, [r3, #24]

  /* RTC SSRU Interrupt Configuration: EXTI configuration */
  __HAL_RTC_SSRU_EXTI_ENABLE_IT();
 8003510:	4c0a      	ldr	r4, [pc, #40]	; (800353c <HAL_RTCEx_SetSSRU_IT+0x54>)
 8003512:	f8d4 2080 	ldr.w	r2, [r4, #128]	; 0x80
 8003516:	f442 2280 	orr.w	r2, r2, #262144	; 0x40000
 800351a:	f8c4 2080 	str.w	r2, [r4, #128]	; 0x80

  /* Enable the write protection for RTC registers */
  __HAL_RTC_WRITEPROTECTION_ENABLE(hrtc);
 800351e:	22ff      	movs	r2, #255	; 0xff
 8003520:	625a      	str	r2, [r3, #36]	; 0x24

  hrtc->State = HAL_RTC_STATE_READY;
 8003522:	f880 102d 	strb.w	r1, [r0, #45]	; 0x2d

  /* Process Unlocked */
  __HAL_UNLOCK(hrtc);
 8003526:	2300      	movs	r3, #0
 8003528:	f880 302c 	strb.w	r3, [r0, #44]	; 0x2c

  return HAL_OK;
 800352c:	4618      	mov	r0, r3
}
 800352e:	bc10      	pop	{r4}
 8003530:	4770      	bx	lr
  __HAL_LOCK(hrtc);
 8003532:	2002      	movs	r0, #2
}
 8003534:	4770      	bx	lr
 8003536:	bf00      	nop
 8003538:	40002800 	.word	0x40002800
 800353c:	58000800 	.word	0x58000800

08003540 <HAL_RTCEx_SSRUIRQHandler>:
  * @brief  Handle SSR underflow interrupt request.
  * @param  hrtc RTC handle
  * @retval None
  */
void HAL_RTCEx_SSRUIRQHandler(RTC_HandleTypeDef *hrtc)
{
 8003540:	b510      	push	{r4, lr}
 8003542:	4604      	mov	r4, r0
  if ((RTC->MISR & RTC_MISR_SSRUMF) != 0u)
 8003544:	4b07      	ldr	r3, [pc, #28]	; (8003564 <HAL_RTCEx_SSRUIRQHandler+0x24>)
 8003546:	6d5b      	ldr	r3, [r3, #84]	; 0x54
 8003548:	f013 0f40 	tst.w	r3, #64	; 0x40
 800354c:	d103      	bne.n	8003556 <HAL_RTCEx_SSRUIRQHandler+0x16>
    HAL_RTCEx_SSRUEventCallback(hrtc);
#endif /* USE_HAL_RTC_REGISTER_CALLBACKS */
  }

  /* Change RTC state */
  hrtc->State = HAL_RTC_STATE_READY;
 800354e:	2301      	movs	r3, #1
 8003550:	f884 302d 	strb.w	r3, [r4, #45]	; 0x2d
}
 8003554:	bd10      	pop	{r4, pc}
    RTC->SCR = RTC_SCR_CSSRUF;
 8003556:	4b03      	ldr	r3, [pc, #12]	; (8003564 <HAL_RTCEx_SSRUIRQHandler+0x24>)
 8003558:	2240      	movs	r2, #64	; 0x40
 800355a:	65da      	str	r2, [r3, #92]	; 0x5c
    HAL_RTCEx_SSRUEventCallback(hrtc);
 800355c:	f7fd fc0a 	bl	8000d74 <HAL_RTCEx_SSRUEventCallback>
 8003560:	e7f5      	b.n	800354e <HAL_RTCEx_SSRUIRQHandler+0xe>
 8003562:	bf00      	nop
 8003564:	40002800 	.word	0x40002800

08003568 <HAL_RTCEx_AlarmBEventCallback>:
  UNUSED(hrtc);

  /* NOTE : This function should not be modified, when the callback is needed,
            the HAL_RTCEx_AlarmBEventCallback could be implemented in the user file
   */
}
 8003568:	4770      	bx	lr

0800356a <HAL_RTCEx_BKUPWrite>:
  UNUSED(hrtc);
  /* Check the parameters */
  assert_param(IS_RTC_BKP(BackupRegister));

  tmp = (uint32_t) & (TAMP->BKP0R);
  tmp += (BackupRegister * 4U);
 800356a:	0089      	lsls	r1, r1, #2
 800356c:	f101 4180 	add.w	r1, r1, #1073741824	; 0x40000000
 8003570:	f501 4131 	add.w	r1, r1, #45312	; 0xb100

  /* Write the specified register */
  *(__IO uint32_t *)tmp = (uint32_t)Data;
 8003574:	600a      	str	r2, [r1, #0]
}
 8003576:	4770      	bx	lr

08003578 <HAL_RTCEx_BKUPRead>:
  UNUSED(hrtc);
  /* Check the parameters */
  assert_param(IS_RTC_BKP(BackupRegister));

  tmp = (uint32_t) & (TAMP->BKP0R);
  tmp += (BackupRegister * 4U);
 8003578:	0089      	lsls	r1, r1, #2
 800357a:	f101 4180 	add.w	r1, r1, #1073741824	; 0x40000000
 800357e:	f501 4131 	add.w	r1, r1, #45312	; 0xb100

  /* Read the specified register */
  return (*(__IO uint32_t *)tmp);
 8003582:	6808      	ldr	r0, [r1, #0]
}
 8003584:	4770      	bx	lr
	...

08003588 <SUBGHZSPI_Init>:
{
  /* Check the parameters */
  assert_param(IS_SUBGHZ_ALL_INSTANCE(SUBGHZSPI));

  /* Disable SUBGHZSPI Peripheral */
  CLEAR_BIT(SUBGHZSPI->CR1, SPI_CR1_SPE);
 8003588:	4b07      	ldr	r3, [pc, #28]	; (80035a8 <SUBGHZSPI_Init+0x20>)
 800358a:	681a      	ldr	r2, [r3, #0]
 800358c:	f022 0240 	bic.w	r2, r2, #64	; 0x40
 8003590:	601a      	str	r2, [r3, #0]
   *       NSS management: Internal (Done with External bit inside PWR        *
   *  Communication speed: BaudratePrescaler                             *
   *            First bit: MSB                                                *
   *      CRC calculation: Disable                                            *
   *--------------------------------------------------------------------------*/
  WRITE_REG(SUBGHZSPI->CR1, (SPI_CR1_MSTR | SPI_CR1_SSI | BaudratePrescaler | SPI_CR1_SSM));
 8003592:	f440 7041 	orr.w	r0, r0, #772	; 0x304
 8003596:	6018      	str	r0, [r3, #0]
   *            Data Size: 8bits                                              *
   *              TI Mode: Disable                                            *
   *            NSS Pulse: Disable                                            *
   *    Rx FIFO Threshold: 8bits                                              *
   *--------------------------------------------------------------------------*/
  WRITE_REG(SUBGHZSPI->CR2, (SPI_CR2_FRXTH |  SPI_CR2_DS_0 | SPI_CR2_DS_1 | SPI_CR2_DS_2));
 8003598:	f44f 52b8 	mov.w	r2, #5888	; 0x1700
 800359c:	605a      	str	r2, [r3, #4]

  /* Enable SUBGHZSPI Peripheral */
  SET_BIT(SUBGHZSPI->CR1, SPI_CR1_SPE);
 800359e:	681a      	ldr	r2, [r3, #0]
 80035a0:	f042 0240 	orr.w	r2, r2, #64	; 0x40
 80035a4:	601a      	str	r2, [r3, #0]
}
 80035a6:	4770      	bx	lr
 80035a8:	58010000 	.word	0x58010000

080035ac <HAL_SUBGHZ_Init>:
{
 80035ac:	b530      	push	{r4, r5, lr}
 80035ae:	b083      	sub	sp, #12
  if (hsubghz == NULL)
 80035b0:	2800      	cmp	r0, #0
 80035b2:	d058      	beq.n	8003666 <HAL_SUBGHZ_Init+0xba>
 80035b4:	4604      	mov	r4, r0
  subghz_state = hsubghz->State;
 80035b6:	7983      	ldrb	r3, [r0, #6]
  if ((subghz_state == HAL_SUBGHZ_STATE_RESET) ||
 80035b8:	f003 05ff 	and.w	r5, r3, #255	; 0xff
 80035bc:	b10b      	cbz	r3, 80035c2 <HAL_SUBGHZ_Init+0x16>
 80035be:	2d03      	cmp	r5, #3
 80035c0:	d10b      	bne.n	80035da <HAL_SUBGHZ_Init+0x2e>
    hsubghz->Lock = HAL_UNLOCKED;
 80035c2:	2300      	movs	r3, #0
 80035c4:	7163      	strb	r3, [r4, #5]
    HAL_SUBGHZ_MspInit(hsubghz);
 80035c6:	4620      	mov	r0, r4
 80035c8:	f7fd f976 	bl	80008b8 <HAL_SUBGHZ_MspInit>
  *         (*) value not defined in all devices
  * @retval None
  */
__STATIC_INLINE void LL_EXTI_EnableIT_32_63(uint32_t ExtiLine)
{
  SET_BIT(EXTI->IMR2, ExtiLine);
 80035cc:	4a27      	ldr	r2, [pc, #156]	; (800366c <HAL_SUBGHZ_Init+0xc0>)
 80035ce:	f8d2 3090 	ldr.w	r3, [r2, #144]	; 0x90
 80035d2:	f443 5380 	orr.w	r3, r3, #4096	; 0x1000
 80035d6:	f8c2 3090 	str.w	r3, [r2, #144]	; 0x90
  if (subghz_state == HAL_SUBGHZ_STATE_RESET)
 80035da:	b185      	cbz	r5, 80035fe <HAL_SUBGHZ_Init+0x52>
  WRITE_REG(PWR->SCR, PWR_SCR_CWRFBUSYF);
 80035dc:	4b24      	ldr	r3, [pc, #144]	; (8003670 <HAL_SUBGHZ_Init+0xc4>)
 80035de:	f44f 6200 	mov.w	r2, #2048	; 0x800
 80035e2:	619a      	str	r2, [r3, #24]
    status = HAL_OK;
 80035e4:	2500      	movs	r5, #0
    SUBGHZSPI_Init(hsubghz->Init.BaudratePrescaler);
 80035e6:	6820      	ldr	r0, [r4, #0]
 80035e8:	f7ff ffce 	bl	8003588 <SUBGHZSPI_Init>
    hsubghz->DeepSleep = SUBGHZ_DEEP_SLEEP_ENABLE;
 80035ec:	2301      	movs	r3, #1
 80035ee:	7123      	strb	r3, [r4, #4]
    hsubghz->ErrorCode = HAL_SUBGHZ_ERROR_NONE;
 80035f0:	2300      	movs	r3, #0
 80035f2:	60a3      	str	r3, [r4, #8]
  hsubghz->State = HAL_SUBGHZ_STATE_READY;
 80035f4:	2301      	movs	r3, #1
 80035f6:	71a3      	strb	r3, [r4, #6]
}
 80035f8:	4628      	mov	r0, r5
 80035fa:	b003      	add	sp, #12
 80035fc:	bd30      	pop	{r4, r5, pc}
    hsubghz->State = HAL_SUBGHZ_STATE_BUSY;
 80035fe:	2302      	movs	r3, #2
 8003600:	71a3      	strb	r3, [r4, #6]
  CLEAR_BIT(RCC->CSR, RCC_CSR_RFRST);
 8003602:	f04f 42b0 	mov.w	r2, #1476395008	; 0x58000000
 8003606:	f8d2 3094 	ldr.w	r3, [r2, #148]	; 0x94
 800360a:	f423 4300 	bic.w	r3, r3, #32768	; 0x8000
 800360e:	f8c2 3094 	str.w	r3, [r2, #148]	; 0x94
    count  = SUBGHZ_DEFAULT_TIMEOUT * SUBGHZ_DEFAULT_LOOP_TIME;
 8003612:	4b18      	ldr	r3, [pc, #96]	; (8003674 <HAL_SUBGHZ_Init+0xc8>)
 8003614:	681b      	ldr	r3, [r3, #0]
 8003616:	ebc3 03c3 	rsb	r3, r3, r3, lsl #3
 800361a:	f3c3 434c 	ubfx	r3, r3, #17, #13
 800361e:	2264      	movs	r2, #100	; 0x64
 8003620:	fb02 f303 	mul.w	r3, r2, r3
 8003624:	9301      	str	r3, [sp, #4]
      if (count == 0U)
 8003626:	9b01      	ldr	r3, [sp, #4]
 8003628:	b1d3      	cbz	r3, 8003660 <HAL_SUBGHZ_Init+0xb4>
      count--;
 800362a:	9b01      	ldr	r3, [sp, #4]
 800362c:	3b01      	subs	r3, #1
 800362e:	9301      	str	r3, [sp, #4]
  return ((READ_BIT(RCC->CSR, RCC_CSR_RFRSTF) == (RCC_CSR_RFRSTF)) ? 1UL : 0UL);
 8003630:	f04f 43b0 	mov.w	r3, #1476395008	; 0x58000000
 8003634:	f8d3 3094 	ldr.w	r3, [r3, #148]	; 0x94
 8003638:	f413 4f80 	tst.w	r3, #16384	; 0x4000
 800363c:	d1f3      	bne.n	8003626 <HAL_SUBGHZ_Init+0x7a>
  SET_BIT(PWR->SUBGHZSPICR, PWR_SUBGHZSPICR_NSS);
 800363e:	4b0c      	ldr	r3, [pc, #48]	; (8003670 <HAL_SUBGHZ_Init+0xc4>)
 8003640:	f8d3 2090 	ldr.w	r2, [r3, #144]	; 0x90
 8003644:	f442 4200 	orr.w	r2, r2, #32768	; 0x8000
 8003648:	f8c3 2090 	str.w	r2, [r3, #144]	; 0x90
  MODIFY_REG(PWR->CR3, PWR_CR3_EWRFBUSY, RadioBusyTrigger);
 800364c:	689a      	ldr	r2, [r3, #8]
 800364e:	f442 6200 	orr.w	r2, r2, #2048	; 0x800
 8003652:	609a      	str	r2, [r3, #8]
  WRITE_REG(PWR->SCR, PWR_SCR_CWRFBUSYF);
 8003654:	f44f 6200 	mov.w	r2, #2048	; 0x800
 8003658:	619a      	str	r2, [r3, #24]
  if (status == HAL_OK)
 800365a:	2d00      	cmp	r5, #0
 800365c:	d1ca      	bne.n	80035f4 <HAL_SUBGHZ_Init+0x48>
 800365e:	e7c2      	b.n	80035e6 <HAL_SUBGHZ_Init+0x3a>
        hsubghz->ErrorCode = HAL_SUBGHZ_ERROR_TIMEOUT;
 8003660:	2501      	movs	r5, #1
 8003662:	60a5      	str	r5, [r4, #8]
        break;
 8003664:	e7eb      	b.n	800363e <HAL_SUBGHZ_Init+0x92>
    return status;
 8003666:	2501      	movs	r5, #1
 8003668:	e7c6      	b.n	80035f8 <HAL_SUBGHZ_Init+0x4c>
 800366a:	bf00      	nop
 800366c:	58000800 	.word	0x58000800
 8003670:	58000400 	.word	0x58000400
 8003674:	20000024 	.word	0x20000024

08003678 <SUBGHZSPI_Transmit>:
  * @param  Data  data to transmit
  * @retval HAL status
  */
HAL_StatusTypeDef SUBGHZSPI_Transmit(SUBGHZ_HandleTypeDef *hsubghz,
                                     uint8_t Data)
{
 8003678:	b082      	sub	sp, #8
 800367a:	4602      	mov	r2, r0
  HAL_StatusTypeDef status = HAL_OK;
  __IO uint32_t count;

  /* Handle Tx transmission from SUBGHZSPI peripheral to Radio ****************/
  /* Initialize Timeout */
  count = SUBGHZ_DEFAULT_TIMEOUT * SUBGHZ_DEFAULT_LOOP_TIME;
 800367c:	4b1a      	ldr	r3, [pc, #104]	; (80036e8 <SUBGHZSPI_Transmit+0x70>)
 800367e:	681b      	ldr	r3, [r3, #0]
 8003680:	ebc3 03c3 	rsb	r3, r3, r3, lsl #3
 8003684:	f3c3 434c 	ubfx	r3, r3, #17, #13
 8003688:	2064      	movs	r0, #100	; 0x64
 800368a:	fb00 f303 	mul.w	r3, r0, r3
 800368e:	9301      	str	r3, [sp, #4]

  /* Wait until TXE flag is set */
  do
  {
    if (count == 0U)
 8003690:	9b01      	ldr	r3, [sp, #4]
 8003692:	b14b      	cbz	r3, 80036a8 <SUBGHZSPI_Transmit+0x30>
    {
      status = HAL_ERROR;
      hsubghz->ErrorCode = HAL_SUBGHZ_ERROR_TIMEOUT;
      break;
    }
    count--;
 8003694:	9b01      	ldr	r3, [sp, #4]
 8003696:	3b01      	subs	r3, #1
 8003698:	9301      	str	r3, [sp, #4]
  } while (READ_BIT(SUBGHZSPI->SR, SPI_SR_TXE) != (SPI_SR_TXE));
 800369a:	4b14      	ldr	r3, [pc, #80]	; (80036ec <SUBGHZSPI_Transmit+0x74>)
 800369c:	689b      	ldr	r3, [r3, #8]
 800369e:	f013 0f02 	tst.w	r3, #2
 80036a2:	d0f5      	beq.n	8003690 <SUBGHZSPI_Transmit+0x18>
  HAL_StatusTypeDef status = HAL_OK;
 80036a4:	2000      	movs	r0, #0
 80036a6:	e001      	b.n	80036ac <SUBGHZSPI_Transmit+0x34>
      hsubghz->ErrorCode = HAL_SUBGHZ_ERROR_TIMEOUT;
 80036a8:	2001      	movs	r0, #1
 80036aa:	6090      	str	r0, [r2, #8]

  /* Transmit Data*/
#if defined (__GNUC__)
  __IO uint8_t *spidr = ((__IO uint8_t *)&SUBGHZSPI->DR);
  *spidr = Data;
 80036ac:	4b0f      	ldr	r3, [pc, #60]	; (80036ec <SUBGHZSPI_Transmit+0x74>)
 80036ae:	7319      	strb	r1, [r3, #12]
  *((__IO uint8_t *)&SUBGHZSPI->DR) = Data;
#endif /* __GNUC__ */

  /* Handle Rx transmission from SUBGHZSPI peripheral to Radio ****************/
  /* Initialize Timeout */
  count = SUBGHZ_DEFAULT_TIMEOUT * SUBGHZ_DEFAULT_LOOP_TIME;
 80036b0:	4b0d      	ldr	r3, [pc, #52]	; (80036e8 <SUBGHZSPI_Transmit+0x70>)
 80036b2:	681b      	ldr	r3, [r3, #0]
 80036b4:	ebc3 03c3 	rsb	r3, r3, r3, lsl #3
 80036b8:	f3c3 434c 	ubfx	r3, r3, #17, #13
 80036bc:	2164      	movs	r1, #100	; 0x64
 80036be:	fb01 f303 	mul.w	r3, r1, r3
 80036c2:	9301      	str	r3, [sp, #4]

  /* Wait until RXNE flag is set */
  do
  {
    if (count == 0U)
 80036c4:	9b01      	ldr	r3, [sp, #4]
 80036c6:	b143      	cbz	r3, 80036da <SUBGHZSPI_Transmit+0x62>
    {
      status = HAL_ERROR;
      hsubghz->ErrorCode = HAL_SUBGHZ_ERROR_TIMEOUT;
      break;
    }
    count--;
 80036c8:	9b01      	ldr	r3, [sp, #4]
 80036ca:	3b01      	subs	r3, #1
 80036cc:	9301      	str	r3, [sp, #4]
  } while (READ_BIT(SUBGHZSPI->SR, SPI_SR_RXNE) != (SPI_SR_RXNE));
 80036ce:	4b07      	ldr	r3, [pc, #28]	; (80036ec <SUBGHZSPI_Transmit+0x74>)
 80036d0:	689b      	ldr	r3, [r3, #8]
 80036d2:	f013 0f01 	tst.w	r3, #1
 80036d6:	d0f5      	beq.n	80036c4 <SUBGHZSPI_Transmit+0x4c>
 80036d8:	e001      	b.n	80036de <SUBGHZSPI_Transmit+0x66>
      hsubghz->ErrorCode = HAL_SUBGHZ_ERROR_TIMEOUT;
 80036da:	2001      	movs	r0, #1
 80036dc:	6090      	str	r0, [r2, #8]

  /* Flush Rx data */
  READ_REG(SUBGHZSPI->DR);
 80036de:	4b03      	ldr	r3, [pc, #12]	; (80036ec <SUBGHZSPI_Transmit+0x74>)
 80036e0:	68db      	ldr	r3, [r3, #12]

  return status;
}
 80036e2:	b002      	add	sp, #8
 80036e4:	4770      	bx	lr
 80036e6:	bf00      	nop
 80036e8:	20000024 	.word	0x20000024
 80036ec:	58010000 	.word	0x58010000

080036f0 <SUBGHZSPI_Receive>:
  * @param  pData  pointer on data to receive
  * @retval HAL status
  */
HAL_StatusTypeDef SUBGHZSPI_Receive(SUBGHZ_HandleTypeDef *hsubghz,
                                    uint8_t *pData)
{
 80036f0:	b082      	sub	sp, #8
 80036f2:	4602      	mov	r2, r0
  HAL_StatusTypeDef status = HAL_OK;
  __IO uint32_t count;

  /* Handle Tx transmission from SUBGHZSPI peripheral to Radio ****************/
  /* Initialize Timeout */
  count = SUBGHZ_DEFAULT_TIMEOUT * SUBGHZ_DEFAULT_LOOP_TIME;
 80036f4:	4b1c      	ldr	r3, [pc, #112]	; (8003768 <SUBGHZSPI_Receive+0x78>)
 80036f6:	681b      	ldr	r3, [r3, #0]
 80036f8:	ebc3 03c3 	rsb	r3, r3, r3, lsl #3
 80036fc:	f3c3 434c 	ubfx	r3, r3, #17, #13
 8003700:	2064      	movs	r0, #100	; 0x64
 8003702:	fb00 f303 	mul.w	r3, r0, r3
 8003706:	9301      	str	r3, [sp, #4]

  /* Wait until TXE flag is set */
  do
  {
    if (count == 0U)
 8003708:	9b01      	ldr	r3, [sp, #4]
 800370a:	b14b      	cbz	r3, 8003720 <SUBGHZSPI_Receive+0x30>
    {
      status = HAL_ERROR;
      hsubghz->ErrorCode = HAL_SUBGHZ_ERROR_TIMEOUT;
      break;
    }
    count--;
 800370c:	9b01      	ldr	r3, [sp, #4]
 800370e:	3b01      	subs	r3, #1
 8003710:	9301      	str	r3, [sp, #4]
  } while (READ_BIT(SUBGHZSPI->SR, SPI_SR_TXE) != (SPI_SR_TXE));
 8003712:	4b16      	ldr	r3, [pc, #88]	; (800376c <SUBGHZSPI_Receive+0x7c>)
 8003714:	689b      	ldr	r3, [r3, #8]
 8003716:	f013 0f02 	tst.w	r3, #2
 800371a:	d0f5      	beq.n	8003708 <SUBGHZSPI_Receive+0x18>
  HAL_StatusTypeDef status = HAL_OK;
 800371c:	2000      	movs	r0, #0
 800371e:	e001      	b.n	8003724 <SUBGHZSPI_Receive+0x34>
      hsubghz->ErrorCode = HAL_SUBGHZ_ERROR_TIMEOUT;
 8003720:	2001      	movs	r0, #1
 8003722:	6090      	str	r0, [r2, #8]

  /* Transmit Data*/
#if defined (__GNUC__)
  __IO uint8_t *spidr = ((__IO uint8_t *)&SUBGHZSPI->DR);
  *spidr = SUBGHZ_DUMMY_DATA;
 8003724:	4b11      	ldr	r3, [pc, #68]	; (800376c <SUBGHZSPI_Receive+0x7c>)
 8003726:	f04f 0cff 	mov.w	ip, #255	; 0xff
 800372a:	f883 c00c 	strb.w	ip, [r3, #12]
  *((__IO uint8_t *)&SUBGHZSPI->DR) = SUBGHZ_DUMMY_DATA;
#endif /* __GNUC__ */

  /* Handle Rx transmission from SUBGHZSPI peripheral to Radio ****************/
  /* Initialize Timeout */
  count = SUBGHZ_DEFAULT_TIMEOUT * SUBGHZ_DEFAULT_LOOP_TIME;
 800372e:	4b0e      	ldr	r3, [pc, #56]	; (8003768 <SUBGHZSPI_Receive+0x78>)
 8003730:	681b      	ldr	r3, [r3, #0]
 8003732:	ebc3 03c3 	rsb	r3, r3, r3, lsl #3
 8003736:	f3c3 434c 	ubfx	r3, r3, #17, #13
 800373a:	f04f 0c64 	mov.w	ip, #100	; 0x64
 800373e:	fb0c f303 	mul.w	r3, ip, r3
 8003742:	9301      	str	r3, [sp, #4]

  /* Wait until RXNE flag is set */
  do
  {
    if (count == 0U)
 8003744:	9b01      	ldr	r3, [sp, #4]
 8003746:	b143      	cbz	r3, 800375a <SUBGHZSPI_Receive+0x6a>
    {
      status = HAL_ERROR;
      hsubghz->ErrorCode = HAL_SUBGHZ_ERROR_TIMEOUT;
      break;
    }
    count--;
 8003748:	9b01      	ldr	r3, [sp, #4]
 800374a:	3b01      	subs	r3, #1
 800374c:	9301      	str	r3, [sp, #4]
  } while (READ_BIT(SUBGHZSPI->SR, SPI_SR_RXNE) != (SPI_SR_RXNE));
 800374e:	4b07      	ldr	r3, [pc, #28]	; (800376c <SUBGHZSPI_Receive+0x7c>)
 8003750:	689b      	ldr	r3, [r3, #8]
 8003752:	f013 0f01 	tst.w	r3, #1
 8003756:	d0f5      	beq.n	8003744 <SUBGHZSPI_Receive+0x54>
 8003758:	e001      	b.n	800375e <SUBGHZSPI_Receive+0x6e>
      hsubghz->ErrorCode = HAL_SUBGHZ_ERROR_TIMEOUT;
 800375a:	2001      	movs	r0, #1
 800375c:	6090      	str	r0, [r2, #8]

  /* Retrieve pData */
  *pData = (uint8_t)(READ_REG(SUBGHZSPI->DR));
 800375e:	4b03      	ldr	r3, [pc, #12]	; (800376c <SUBGHZSPI_Receive+0x7c>)
 8003760:	68db      	ldr	r3, [r3, #12]
 8003762:	700b      	strb	r3, [r1, #0]

  return status;
}
 8003764:	b002      	add	sp, #8
 8003766:	4770      	bx	lr
 8003768:	20000024 	.word	0x20000024
 800376c:	58010000 	.word	0x58010000

08003770 <SUBGHZ_WaitOnBusy>:
  * @param  hsubghz pointer to a SUBGHZ_HandleTypeDef structure that contains
  *         the handle information for SUBGHZ module.
  * @retval HAL status
  */
HAL_StatusTypeDef SUBGHZ_WaitOnBusy(SUBGHZ_HandleTypeDef *hsubghz)
{
 8003770:	b082      	sub	sp, #8
  HAL_StatusTypeDef status;
  __IO uint32_t count;
  uint32_t mask;

  status = HAL_OK;
  count  = SUBGHZ_DEFAULT_TIMEOUT * SUBGHZ_RFBUSY_LOOP_TIME;
 8003772:	4b13      	ldr	r3, [pc, #76]	; (80037c0 <SUBGHZ_WaitOnBusy+0x50>)
 8003774:	681b      	ldr	r3, [r3, #0]
 8003776:	eb03 0343 	add.w	r3, r3, r3, lsl #1
 800377a:	f3c3 434b 	ubfx	r3, r3, #17, #12
 800377e:	2264      	movs	r2, #100	; 0x64
 8003780:	fb02 f303 	mul.w	r3, r2, r3
 8003784:	9301      	str	r3, [sp, #4]
 8003786:	e006      	b.n	8003796 <SUBGHZ_WaitOnBusy+0x26>
    mask = LL_PWR_IsActiveFlag_RFBUSYMS();

    if (count == 0U)
    {
      status  = HAL_ERROR;
      hsubghz->ErrorCode = HAL_SUBGHZ_ERROR_RF_BUSY;
 8003788:	2302      	movs	r3, #2
 800378a:	6083      	str	r3, [r0, #8]
      status  = HAL_ERROR;
 800378c:	2001      	movs	r0, #1
    }
    count--;
  } while ((LL_PWR_IsActiveFlag_RFBUSYS()& mask) == 1UL);

  return status;
}
 800378e:	b002      	add	sp, #8
 8003790:	4770      	bx	lr
  } while ((LL_PWR_IsActiveFlag_RFBUSYS()& mask) == 1UL);
 8003792:	4213      	tst	r3, r2
 8003794:	d012      	beq.n	80037bc <SUBGHZ_WaitOnBusy+0x4c>
  return ((READ_BIT(PWR->SR2, PWR_SR2_RFBUSYMS) == (PWR_SR2_RFBUSYMS)) ? 1UL : 0UL);
 8003796:	4b0b      	ldr	r3, [pc, #44]	; (80037c4 <SUBGHZ_WaitOnBusy+0x54>)
 8003798:	695b      	ldr	r3, [r3, #20]
 800379a:	f013 0304 	ands.w	r3, r3, #4
 800379e:	d000      	beq.n	80037a2 <SUBGHZ_WaitOnBusy+0x32>
 80037a0:	2301      	movs	r3, #1
    if (count == 0U)
 80037a2:	9a01      	ldr	r2, [sp, #4]
 80037a4:	2a00      	cmp	r2, #0
 80037a6:	d0ef      	beq.n	8003788 <SUBGHZ_WaitOnBusy+0x18>
    count--;
 80037a8:	9a01      	ldr	r2, [sp, #4]
 80037aa:	3a01      	subs	r2, #1
 80037ac:	9201      	str	r2, [sp, #4]
  return ((READ_BIT(PWR->SR2, PWR_SR2_RFBUSYS) == (PWR_SR2_RFBUSYS)) ? 1UL : 0UL);
 80037ae:	4a05      	ldr	r2, [pc, #20]	; (80037c4 <SUBGHZ_WaitOnBusy+0x54>)
 80037b0:	6952      	ldr	r2, [r2, #20]
 80037b2:	f012 0202 	ands.w	r2, r2, #2
 80037b6:	d0ec      	beq.n	8003792 <SUBGHZ_WaitOnBusy+0x22>
 80037b8:	2201      	movs	r2, #1
 80037ba:	e7ea      	b.n	8003792 <SUBGHZ_WaitOnBusy+0x22>
  status = HAL_OK;
 80037bc:	2000      	movs	r0, #0
 80037be:	e7e6      	b.n	800378e <SUBGHZ_WaitOnBusy+0x1e>
 80037c0:	20000024 	.word	0x20000024
 80037c4:	58000400 	.word	0x58000400

080037c8 <SUBGHZ_CheckDeviceReady>:
{
 80037c8:	b500      	push	{lr}
 80037ca:	b083      	sub	sp, #12
  if (hsubghz->DeepSleep == SUBGHZ_DEEP_SLEEP_ENABLE)
 80037cc:	7903      	ldrb	r3, [r0, #4]
 80037ce:	2b01      	cmp	r3, #1
 80037d0:	d004      	beq.n	80037dc <SUBGHZ_CheckDeviceReady+0x14>
  return (SUBGHZ_WaitOnBusy(hsubghz));
 80037d2:	f7ff ffcd 	bl	8003770 <SUBGHZ_WaitOnBusy>
}
 80037d6:	b003      	add	sp, #12
 80037d8:	f85d fb04 	ldr.w	pc, [sp], #4
    count  = SUBGHZ_NSS_LOOP_TIME;
 80037dc:	4b0d      	ldr	r3, [pc, #52]	; (8003814 <SUBGHZ_CheckDeviceReady+0x4c>)
 80037de:	681b      	ldr	r3, [r3, #0]
 80037e0:	eb03 0343 	add.w	r3, r3, r3, lsl #1
 80037e4:	f3c3 334f 	ubfx	r3, r3, #13, #16
 80037e8:	9301      	str	r3, [sp, #4]
  CLEAR_BIT(PWR->SUBGHZSPICR, PWR_SUBGHZSPICR_NSS);
 80037ea:	4a0b      	ldr	r2, [pc, #44]	; (8003818 <SUBGHZ_CheckDeviceReady+0x50>)
 80037ec:	f8d2 3090 	ldr.w	r3, [r2, #144]	; 0x90
 80037f0:	f423 4300 	bic.w	r3, r3, #32768	; 0x8000
 80037f4:	f8c2 3090 	str.w	r3, [r2, #144]	; 0x90
      count--;
 80037f8:	9b01      	ldr	r3, [sp, #4]
 80037fa:	3b01      	subs	r3, #1
 80037fc:	9301      	str	r3, [sp, #4]
    } while (count != 0UL);
 80037fe:	9b01      	ldr	r3, [sp, #4]
 8003800:	2b00      	cmp	r3, #0
 8003802:	d1f9      	bne.n	80037f8 <SUBGHZ_CheckDeviceReady+0x30>
  SET_BIT(PWR->SUBGHZSPICR, PWR_SUBGHZSPICR_NSS);
 8003804:	4a04      	ldr	r2, [pc, #16]	; (8003818 <SUBGHZ_CheckDeviceReady+0x50>)
 8003806:	f8d2 3090 	ldr.w	r3, [r2, #144]	; 0x90
 800380a:	f443 4300 	orr.w	r3, r3, #32768	; 0x8000
 800380e:	f8c2 3090 	str.w	r3, [r2, #144]	; 0x90
}
 8003812:	e7de      	b.n	80037d2 <SUBGHZ_CheckDeviceReady+0xa>
 8003814:	20000024 	.word	0x20000024
 8003818:	58000400 	.word	0x58000400

0800381c <HAL_SUBGHZ_WriteRegisters>:
{
 800381c:	e92d 41f0 	stmdb	sp!, {r4, r5, r6, r7, r8, lr}
 8003820:	4605      	mov	r5, r0
  if (hsubghz->State == HAL_SUBGHZ_STATE_READY)
 8003822:	7980      	ldrb	r0, [r0, #6]
 8003824:	fa5f f880 	uxtb.w	r8, r0
 8003828:	f1b8 0f01 	cmp.w	r8, #1
 800382c:	d13e      	bne.n	80038ac <HAL_SUBGHZ_WriteRegisters+0x90>
 800382e:	460c      	mov	r4, r1
 8003830:	4617      	mov	r7, r2
 8003832:	461e      	mov	r6, r3
    __HAL_LOCK(hsubghz);
 8003834:	796b      	ldrb	r3, [r5, #5]
 8003836:	2b01      	cmp	r3, #1
 8003838:	d03b      	beq.n	80038b2 <HAL_SUBGHZ_WriteRegisters+0x96>
 800383a:	2301      	movs	r3, #1
 800383c:	716b      	strb	r3, [r5, #5]
    hsubghz->State = HAL_SUBGHZ_STATE_BUSY;
 800383e:	2302      	movs	r3, #2
 8003840:	71ab      	strb	r3, [r5, #6]
    (void)SUBGHZ_CheckDeviceReady(hsubghz);
 8003842:	4628      	mov	r0, r5
 8003844:	f7ff ffc0 	bl	80037c8 <SUBGHZ_CheckDeviceReady>
  CLEAR_BIT(PWR->SUBGHZSPICR, PWR_SUBGHZSPICR_NSS);
 8003848:	4a1b      	ldr	r2, [pc, #108]	; (80038b8 <HAL_SUBGHZ_WriteRegisters+0x9c>)
 800384a:	f8d2 3090 	ldr.w	r3, [r2, #144]	; 0x90
 800384e:	f423 4300 	bic.w	r3, r3, #32768	; 0x8000
 8003852:	f8c2 3090 	str.w	r3, [r2, #144]	; 0x90
    (void)SUBGHZSPI_Transmit(hsubghz, SUBGHZ_RADIO_WRITE_REGISTER);
 8003856:	210d      	movs	r1, #13
 8003858:	4628      	mov	r0, r5
 800385a:	f7ff ff0d 	bl	8003678 <SUBGHZSPI_Transmit>
    (void)SUBGHZSPI_Transmit(hsubghz, (uint8_t)((Address & 0xFF00U) >> 8U));
 800385e:	0a21      	lsrs	r1, r4, #8
 8003860:	4628      	mov	r0, r5
 8003862:	f7ff ff09 	bl	8003678 <SUBGHZSPI_Transmit>
    (void)SUBGHZSPI_Transmit(hsubghz, (uint8_t)(Address & 0x00FFU));
 8003866:	b2e1      	uxtb	r1, r4
 8003868:	4628      	mov	r0, r5
 800386a:	f7ff ff05 	bl	8003678 <SUBGHZSPI_Transmit>
    for (uint16_t i = 0U; i < Size; i++)
 800386e:	2400      	movs	r4, #0
 8003870:	e005      	b.n	800387e <HAL_SUBGHZ_WriteRegisters+0x62>
      (void)SUBGHZSPI_Transmit(hsubghz, pBuffer[i]);
 8003872:	5d39      	ldrb	r1, [r7, r4]
 8003874:	4628      	mov	r0, r5
 8003876:	f7ff feff 	bl	8003678 <SUBGHZSPI_Transmit>
    for (uint16_t i = 0U; i < Size; i++)
 800387a:	3401      	adds	r4, #1
 800387c:	b2a4      	uxth	r4, r4
 800387e:	42b4      	cmp	r4, r6
 8003880:	d3f7      	bcc.n	8003872 <HAL_SUBGHZ_WriteRegisters+0x56>
  SET_BIT(PWR->SUBGHZSPICR, PWR_SUBGHZSPICR_NSS);
 8003882:	4a0d      	ldr	r2, [pc, #52]	; (80038b8 <HAL_SUBGHZ_WriteRegisters+0x9c>)
 8003884:	f8d2 3090 	ldr.w	r3, [r2, #144]	; 0x90
 8003888:	f443 4300 	orr.w	r3, r3, #32768	; 0x8000
 800388c:	f8c2 3090 	str.w	r3, [r2, #144]	; 0x90
    (void)SUBGHZ_WaitOnBusy(hsubghz);
 8003890:	4628      	mov	r0, r5
 8003892:	f7ff ff6d 	bl	8003770 <SUBGHZ_WaitOnBusy>
    if (hsubghz->ErrorCode != HAL_SUBGHZ_ERROR_NONE)
 8003896:	68ab      	ldr	r3, [r5, #8]
 8003898:	b90b      	cbnz	r3, 800389e <HAL_SUBGHZ_WriteRegisters+0x82>
      status = HAL_OK;
 800389a:	f04f 0800 	mov.w	r8, #0
    hsubghz->State = HAL_SUBGHZ_STATE_READY;
 800389e:	2301      	movs	r3, #1
 80038a0:	71ab      	strb	r3, [r5, #6]
    __HAL_UNLOCK(hsubghz);
 80038a2:	2300      	movs	r3, #0
 80038a4:	716b      	strb	r3, [r5, #5]
}
 80038a6:	4640      	mov	r0, r8
 80038a8:	e8bd 81f0 	ldmia.w	sp!, {r4, r5, r6, r7, r8, pc}
    return HAL_BUSY;
 80038ac:	f04f 0802 	mov.w	r8, #2
 80038b0:	e7f9      	b.n	80038a6 <HAL_SUBGHZ_WriteRegisters+0x8a>
    __HAL_LOCK(hsubghz);
 80038b2:	f04f 0802 	mov.w	r8, #2
 80038b6:	e7f6      	b.n	80038a6 <HAL_SUBGHZ_WriteRegisters+0x8a>
 80038b8:	58000400 	.word	0x58000400

080038bc <HAL_SUBGHZ_ReadRegisters>:
{
 80038bc:	e92d 41f0 	stmdb	sp!, {r4, r5, r6, r7, r8, lr}
 80038c0:	4606      	mov	r6, r0
  if (hsubghz->State == HAL_SUBGHZ_STATE_READY)
 80038c2:	7980      	ldrb	r0, [r0, #6]
 80038c4:	fa5f f880 	uxtb.w	r8, r0
 80038c8:	f1b8 0f01 	cmp.w	r8, #1
 80038cc:	d141      	bne.n	8003952 <HAL_SUBGHZ_ReadRegisters+0x96>
 80038ce:	460c      	mov	r4, r1
 80038d0:	4615      	mov	r5, r2
 80038d2:	461f      	mov	r7, r3
    __HAL_LOCK(hsubghz);
 80038d4:	7973      	ldrb	r3, [r6, #5]
 80038d6:	2b01      	cmp	r3, #1
 80038d8:	d03e      	beq.n	8003958 <HAL_SUBGHZ_ReadRegisters+0x9c>
 80038da:	2301      	movs	r3, #1
 80038dc:	7173      	strb	r3, [r6, #5]
    (void)SUBGHZ_CheckDeviceReady(hsubghz);
 80038de:	4630      	mov	r0, r6
 80038e0:	f7ff ff72 	bl	80037c8 <SUBGHZ_CheckDeviceReady>
  CLEAR_BIT(PWR->SUBGHZSPICR, PWR_SUBGHZSPICR_NSS);
 80038e4:	4a1e      	ldr	r2, [pc, #120]	; (8003960 <HAL_SUBGHZ_ReadRegisters+0xa4>)
 80038e6:	f8d2 3090 	ldr.w	r3, [r2, #144]	; 0x90
 80038ea:	f423 4300 	bic.w	r3, r3, #32768	; 0x8000
 80038ee:	f8c2 3090 	str.w	r3, [r2, #144]	; 0x90
    (void)SUBGHZSPI_Transmit(hsubghz, SUBGHZ_RADIO_READ_REGISTER);
 80038f2:	211d      	movs	r1, #29
 80038f4:	4630      	mov	r0, r6
 80038f6:	f7ff febf 	bl	8003678 <SUBGHZSPI_Transmit>
    (void)SUBGHZSPI_Transmit(hsubghz, (uint8_t)((Address & 0xFF00U) >> 8U));
 80038fa:	0a21      	lsrs	r1, r4, #8
 80038fc:	4630      	mov	r0, r6
 80038fe:	f7ff febb 	bl	8003678 <SUBGHZSPI_Transmit>
    (void)SUBGHZSPI_Transmit(hsubghz, (uint8_t)(Address & 0x00FFU));
 8003902:	b2e1      	uxtb	r1, r4
 8003904:	4630      	mov	r0, r6
 8003906:	f7ff feb7 	bl	8003678 <SUBGHZSPI_Transmit>
    (void)SUBGHZSPI_Transmit(hsubghz, 0U);
 800390a:	2100      	movs	r1, #0
 800390c:	4630      	mov	r0, r6
 800390e:	f7ff feb3 	bl	8003678 <SUBGHZSPI_Transmit>
    for (uint16_t i = 0U; i < Size; i++)
 8003912:	2400      	movs	r4, #0
 8003914:	e006      	b.n	8003924 <HAL_SUBGHZ_ReadRegisters+0x68>
      (void)SUBGHZSPI_Receive(hsubghz, (pData));
 8003916:	4629      	mov	r1, r5
 8003918:	4630      	mov	r0, r6
 800391a:	f7ff fee9 	bl	80036f0 <SUBGHZSPI_Receive>
      pData++;
 800391e:	3501      	adds	r5, #1
    for (uint16_t i = 0U; i < Size; i++)
 8003920:	3401      	adds	r4, #1
 8003922:	b2a4      	uxth	r4, r4
 8003924:	42bc      	cmp	r4, r7
 8003926:	d3f6      	bcc.n	8003916 <HAL_SUBGHZ_ReadRegisters+0x5a>
  SET_BIT(PWR->SUBGHZSPICR, PWR_SUBGHZSPICR_NSS);
 8003928:	4a0d      	ldr	r2, [pc, #52]	; (8003960 <HAL_SUBGHZ_ReadRegisters+0xa4>)
 800392a:	f8d2 3090 	ldr.w	r3, [r2, #144]	; 0x90
 800392e:	f443 4300 	orr.w	r3, r3, #32768	; 0x8000
 8003932:	f8c2 3090 	str.w	r3, [r2, #144]	; 0x90
    (void)SUBGHZ_WaitOnBusy(hsubghz);
 8003936:	4630      	mov	r0, r6
 8003938:	f7ff ff1a 	bl	8003770 <SUBGHZ_WaitOnBusy>
    if (hsubghz->ErrorCode != HAL_SUBGHZ_ERROR_NONE)
 800393c:	68b3      	ldr	r3, [r6, #8]
 800393e:	b90b      	cbnz	r3, 8003944 <HAL_SUBGHZ_ReadRegisters+0x88>
      status = HAL_OK;
 8003940:	f04f 0800 	mov.w	r8, #0
    hsubghz->State = HAL_SUBGHZ_STATE_READY;
 8003944:	2301      	movs	r3, #1
 8003946:	71b3      	strb	r3, [r6, #6]
    __HAL_UNLOCK(hsubghz);
 8003948:	2300      	movs	r3, #0
 800394a:	7173      	strb	r3, [r6, #5]
}
 800394c:	4640      	mov	r0, r8
 800394e:	e8bd 81f0 	ldmia.w	sp!, {r4, r5, r6, r7, r8, pc}
    return HAL_BUSY;
 8003952:	f04f 0802 	mov.w	r8, #2
 8003956:	e7f9      	b.n	800394c <HAL_SUBGHZ_ReadRegisters+0x90>
    __HAL_LOCK(hsubghz);
 8003958:	f04f 0802 	mov.w	r8, #2
 800395c:	e7f6      	b.n	800394c <HAL_SUBGHZ_ReadRegisters+0x90>
 800395e:	bf00      	nop
 8003960:	58000400 	.word	0x58000400

08003964 <HAL_SUBGHZ_ExecSetCmd>:
{
 8003964:	e92d 43f8 	stmdb	sp!, {r3, r4, r5, r6, r7, r8, r9, lr}
 8003968:	4605      	mov	r5, r0
  if (hsubghz->State == HAL_SUBGHZ_STATE_READY)
 800396a:	7980      	ldrb	r0, [r0, #6]
 800396c:	fa5f f980 	uxtb.w	r9, r0
 8003970:	f1b9 0f01 	cmp.w	r9, #1
 8003974:	d143      	bne.n	80039fe <HAL_SUBGHZ_ExecSetCmd+0x9a>
 8003976:	4688      	mov	r8, r1
 8003978:	4617      	mov	r7, r2
 800397a:	461e      	mov	r6, r3
    __HAL_LOCK(hsubghz);
 800397c:	796b      	ldrb	r3, [r5, #5]
 800397e:	2b01      	cmp	r3, #1
 8003980:	d040      	beq.n	8003a04 <HAL_SUBGHZ_ExecSetCmd+0xa0>
 8003982:	2301      	movs	r3, #1
 8003984:	716b      	strb	r3, [r5, #5]
    (void)SUBGHZ_CheckDeviceReady(hsubghz);
 8003986:	4628      	mov	r0, r5
 8003988:	f7ff ff1e 	bl	80037c8 <SUBGHZ_CheckDeviceReady>
    if ((Command == RADIO_SET_SLEEP) || (Command == RADIO_SET_RXDUTYCYCLE))
 800398c:	f1b8 0f84 	cmp.w	r8, #132	; 0x84
 8003990:	d005      	beq.n	800399e <HAL_SUBGHZ_ExecSetCmd+0x3a>
 8003992:	f1b8 0f94 	cmp.w	r8, #148	; 0x94
 8003996:	d002      	beq.n	800399e <HAL_SUBGHZ_ExecSetCmd+0x3a>
      hsubghz->DeepSleep = SUBGHZ_DEEP_SLEEP_DISABLE;
 8003998:	2300      	movs	r3, #0
 800399a:	712b      	strb	r3, [r5, #4]
 800399c:	e001      	b.n	80039a2 <HAL_SUBGHZ_ExecSetCmd+0x3e>
      hsubghz->DeepSleep = SUBGHZ_DEEP_SLEEP_ENABLE;
 800399e:	2301      	movs	r3, #1
 80039a0:	712b      	strb	r3, [r5, #4]
  CLEAR_BIT(PWR->SUBGHZSPICR, PWR_SUBGHZSPICR_NSS);
 80039a2:	4a1a      	ldr	r2, [pc, #104]	; (8003a0c <HAL_SUBGHZ_ExecSetCmd+0xa8>)
 80039a4:	f8d2 3090 	ldr.w	r3, [r2, #144]	; 0x90
 80039a8:	f423 4300 	bic.w	r3, r3, #32768	; 0x8000
 80039ac:	f8c2 3090 	str.w	r3, [r2, #144]	; 0x90
    (void)SUBGHZSPI_Transmit(hsubghz, (uint8_t)Command);
 80039b0:	4641      	mov	r1, r8
 80039b2:	4628      	mov	r0, r5
 80039b4:	f7ff fe60 	bl	8003678 <SUBGHZSPI_Transmit>
    for (uint16_t i = 0U; i < Size; i++)
 80039b8:	2400      	movs	r4, #0
 80039ba:	e005      	b.n	80039c8 <HAL_SUBGHZ_ExecSetCmd+0x64>
      (void)SUBGHZSPI_Transmit(hsubghz, pBuffer[i]);
 80039bc:	5d39      	ldrb	r1, [r7, r4]
 80039be:	4628      	mov	r0, r5
 80039c0:	f7ff fe5a 	bl	8003678 <SUBGHZSPI_Transmit>
    for (uint16_t i = 0U; i < Size; i++)
 80039c4:	3401      	adds	r4, #1
 80039c6:	b2a4      	uxth	r4, r4
 80039c8:	42b4      	cmp	r4, r6
 80039ca:	d3f7      	bcc.n	80039bc <HAL_SUBGHZ_ExecSetCmd+0x58>
  SET_BIT(PWR->SUBGHZSPICR, PWR_SUBGHZSPICR_NSS);
 80039cc:	4a0f      	ldr	r2, [pc, #60]	; (8003a0c <HAL_SUBGHZ_ExecSetCmd+0xa8>)
 80039ce:	f8d2 3090 	ldr.w	r3, [r2, #144]	; 0x90
 80039d2:	f443 4300 	orr.w	r3, r3, #32768	; 0x8000
 80039d6:	f8c2 3090 	str.w	r3, [r2, #144]	; 0x90
    if (Command != RADIO_SET_SLEEP)
 80039da:	f1b8 0f84 	cmp.w	r8, #132	; 0x84
 80039de:	d10a      	bne.n	80039f6 <HAL_SUBGHZ_ExecSetCmd+0x92>
    if (hsubghz->ErrorCode != HAL_SUBGHZ_ERROR_NONE)
 80039e0:	68ab      	ldr	r3, [r5, #8]
 80039e2:	b90b      	cbnz	r3, 80039e8 <HAL_SUBGHZ_ExecSetCmd+0x84>
      status = HAL_OK;
 80039e4:	f04f 0900 	mov.w	r9, #0
    hsubghz->State = HAL_SUBGHZ_STATE_READY;
 80039e8:	2301      	movs	r3, #1
 80039ea:	71ab      	strb	r3, [r5, #6]
    __HAL_UNLOCK(hsubghz);
 80039ec:	2300      	movs	r3, #0
 80039ee:	716b      	strb	r3, [r5, #5]
}
 80039f0:	4648      	mov	r0, r9
 80039f2:	e8bd 83f8 	ldmia.w	sp!, {r3, r4, r5, r6, r7, r8, r9, pc}
      (void)SUBGHZ_WaitOnBusy(hsubghz);
 80039f6:	4628      	mov	r0, r5
 80039f8:	f7ff feba 	bl	8003770 <SUBGHZ_WaitOnBusy>
 80039fc:	e7f0      	b.n	80039e0 <HAL_SUBGHZ_ExecSetCmd+0x7c>
    return HAL_BUSY;
 80039fe:	f04f 0902 	mov.w	r9, #2
 8003a02:	e7f5      	b.n	80039f0 <HAL_SUBGHZ_ExecSetCmd+0x8c>
    __HAL_LOCK(hsubghz);
 8003a04:	f04f 0902 	mov.w	r9, #2
 8003a08:	e7f2      	b.n	80039f0 <HAL_SUBGHZ_ExecSetCmd+0x8c>
 8003a0a:	bf00      	nop
 8003a0c:	58000400 	.word	0x58000400

08003a10 <HAL_SUBGHZ_ExecGetCmd>:
{
 8003a10:	e92d 41f0 	stmdb	sp!, {r4, r5, r6, r7, r8, lr}
 8003a14:	4606      	mov	r6, r0
  if (hsubghz->State == HAL_SUBGHZ_STATE_READY)
 8003a16:	7980      	ldrb	r0, [r0, #6]
 8003a18:	fa5f f880 	uxtb.w	r8, r0
 8003a1c:	f1b8 0f01 	cmp.w	r8, #1
 8003a20:	d139      	bne.n	8003a96 <HAL_SUBGHZ_ExecGetCmd+0x86>
 8003a22:	460c      	mov	r4, r1
 8003a24:	4615      	mov	r5, r2
 8003a26:	461f      	mov	r7, r3
    __HAL_LOCK(hsubghz);
 8003a28:	7973      	ldrb	r3, [r6, #5]
 8003a2a:	2b01      	cmp	r3, #1
 8003a2c:	d036      	beq.n	8003a9c <HAL_SUBGHZ_ExecGetCmd+0x8c>
 8003a2e:	2301      	movs	r3, #1
 8003a30:	7173      	strb	r3, [r6, #5]
    (void)SUBGHZ_CheckDeviceReady(hsubghz);
 8003a32:	4630      	mov	r0, r6
 8003a34:	f7ff fec8 	bl	80037c8 <SUBGHZ_CheckDeviceReady>
  CLEAR_BIT(PWR->SUBGHZSPICR, PWR_SUBGHZSPICR_NSS);
 8003a38:	4a1a      	ldr	r2, [pc, #104]	; (8003aa4 <HAL_SUBGHZ_ExecGetCmd+0x94>)
 8003a3a:	f8d2 3090 	ldr.w	r3, [r2, #144]	; 0x90
 8003a3e:	f423 4300 	bic.w	r3, r3, #32768	; 0x8000
 8003a42:	f8c2 3090 	str.w	r3, [r2, #144]	; 0x90
    (void)SUBGHZSPI_Transmit(hsubghz, (uint8_t)Command);
 8003a46:	4621      	mov	r1, r4
 8003a48:	4630      	mov	r0, r6
 8003a4a:	f7ff fe15 	bl	8003678 <SUBGHZSPI_Transmit>
    (void)SUBGHZSPI_Transmit(hsubghz, 0x00U);
 8003a4e:	2100      	movs	r1, #0
 8003a50:	4630      	mov	r0, r6
 8003a52:	f7ff fe11 	bl	8003678 <SUBGHZSPI_Transmit>
    for (uint16_t i = 0U; i < Size; i++)
 8003a56:	2400      	movs	r4, #0
 8003a58:	e006      	b.n	8003a68 <HAL_SUBGHZ_ExecGetCmd+0x58>
      (void)SUBGHZSPI_Receive(hsubghz, (pData));
 8003a5a:	4629      	mov	r1, r5
 8003a5c:	4630      	mov	r0, r6
 8003a5e:	f7ff fe47 	bl	80036f0 <SUBGHZSPI_Receive>
      pData++;
 8003a62:	3501      	adds	r5, #1
    for (uint16_t i = 0U; i < Size; i++)
 8003a64:	3401      	adds	r4, #1
 8003a66:	b2a4      	uxth	r4, r4
 8003a68:	42bc      	cmp	r4, r7
 8003a6a:	d3f6      	bcc.n	8003a5a <HAL_SUBGHZ_ExecGetCmd+0x4a>
  SET_BIT(PWR->SUBGHZSPICR, PWR_SUBGHZSPICR_NSS);
 8003a6c:	4a0d      	ldr	r2, [pc, #52]	; (8003aa4 <HAL_SUBGHZ_ExecGetCmd+0x94>)
 8003a6e:	f8d2 3090 	ldr.w	r3, [r2, #144]	; 0x90
 8003a72:	f443 4300 	orr.w	r3, r3, #32768	; 0x8000
 8003a76:	f8c2 3090 	str.w	r3, [r2, #144]	; 0x90
    (void)SUBGHZ_WaitOnBusy(hsubghz);
 8003a7a:	4630      	mov	r0, r6
 8003a7c:	f7ff fe78 	bl	8003770 <SUBGHZ_WaitOnBusy>
    if (hsubghz->ErrorCode != HAL_SUBGHZ_ERROR_NONE)
 8003a80:	68b3      	ldr	r3, [r6, #8]
 8003a82:	b90b      	cbnz	r3, 8003a88 <HAL_SUBGHZ_ExecGetCmd+0x78>
      status = HAL_OK;
 8003a84:	f04f 0800 	mov.w	r8, #0
    hsubghz->State = HAL_SUBGHZ_STATE_READY;
 8003a88:	2301      	movs	r3, #1
 8003a8a:	71b3      	strb	r3, [r6, #6]
    __HAL_UNLOCK(hsubghz);
 8003a8c:	2300      	movs	r3, #0
 8003a8e:	7173      	strb	r3, [r6, #5]
}
 8003a90:	4640      	mov	r0, r8
 8003a92:	e8bd 81f0 	ldmia.w	sp!, {r4, r5, r6, r7, r8, pc}
    return HAL_BUSY;
 8003a96:	f04f 0802 	mov.w	r8, #2
 8003a9a:	e7f9      	b.n	8003a90 <HAL_SUBGHZ_ExecGetCmd+0x80>
    __HAL_LOCK(hsubghz);
 8003a9c:	f04f 0802 	mov.w	r8, #2
 8003aa0:	e7f6      	b.n	8003a90 <HAL_SUBGHZ_ExecGetCmd+0x80>
 8003aa2:	bf00      	nop
 8003aa4:	58000400 	.word	0x58000400

08003aa8 <HAL_SUBGHZ_IRQHandler>:
{
 8003aa8:	b530      	push	{r4, r5, lr}
 8003aaa:	b083      	sub	sp, #12
 8003aac:	4605      	mov	r5, r0
  uint8_t tmpisr[2U] = {0U};
 8003aae:	2300      	movs	r3, #0
 8003ab0:	f8ad 3004 	strh.w	r3, [sp, #4]
  (void)HAL_SUBGHZ_ExecGetCmd(hsubghz, RADIO_GET_IRQSTATUS, tmpisr, 2U);
 8003ab4:	2302      	movs	r3, #2
 8003ab6:	aa01      	add	r2, sp, #4
 8003ab8:	2112      	movs	r1, #18
 8003aba:	f7ff ffa9 	bl	8003a10 <HAL_SUBGHZ_ExecGetCmd>
  itsource = tmpisr[0U];
 8003abe:	f89d 3004 	ldrb.w	r3, [sp, #4]
  itsource = (itsource << 8U) | tmpisr[1U];
 8003ac2:	f89d 4005 	ldrb.w	r4, [sp, #5]
 8003ac6:	ea44 2403 	orr.w	r4, r4, r3, lsl #8
  (void)HAL_SUBGHZ_ExecSetCmd(hsubghz, RADIO_CLR_IRQSTATUS, tmpisr, 2U);
 8003aca:	2302      	movs	r3, #2
 8003acc:	aa01      	add	r2, sp, #4
 8003ace:	4619      	mov	r1, r3
 8003ad0:	4628      	mov	r0, r5
 8003ad2:	f7ff ff47 	bl	8003964 <HAL_SUBGHZ_ExecSetCmd>
  if (SUBGHZ_CHECK_IT_SOURCE(itsource, SUBGHZ_IT_TX_CPLT) != RESET)
 8003ad6:	f014 0f01 	tst.w	r4, #1
 8003ada:	d123      	bne.n	8003b24 <HAL_SUBGHZ_IRQHandler+0x7c>
  if (SUBGHZ_CHECK_IT_SOURCE(itsource, SUBGHZ_IT_RX_CPLT) != RESET)
 8003adc:	f014 0f02 	tst.w	r4, #2
 8003ae0:	d124      	bne.n	8003b2c <HAL_SUBGHZ_IRQHandler+0x84>
  if (SUBGHZ_CHECK_IT_SOURCE(itsource, SUBGHZ_IT_PREAMBLE_DETECTED) != RESET)
 8003ae2:	f014 0f04 	tst.w	r4, #4
 8003ae6:	d125      	bne.n	8003b34 <HAL_SUBGHZ_IRQHandler+0x8c>
  if (SUBGHZ_CHECK_IT_SOURCE(itsource, SUBGHZ_IT_SYNCWORD_VALID) != RESET)
 8003ae8:	f014 0f08 	tst.w	r4, #8
 8003aec:	d126      	bne.n	8003b3c <HAL_SUBGHZ_IRQHandler+0x94>
  if (SUBGHZ_CHECK_IT_SOURCE(itsource, SUBGHZ_IT_HEADER_VALID) != RESET)
 8003aee:	f014 0f10 	tst.w	r4, #16
 8003af2:	d127      	bne.n	8003b44 <HAL_SUBGHZ_IRQHandler+0x9c>
  if (SUBGHZ_CHECK_IT_SOURCE(itsource, SUBGHZ_IT_HEADER_ERROR) != RESET)
 8003af4:	f014 0f20 	tst.w	r4, #32
 8003af8:	d128      	bne.n	8003b4c <HAL_SUBGHZ_IRQHandler+0xa4>
  if (SUBGHZ_CHECK_IT_SOURCE(itsource, SUBGHZ_IT_CRC_ERROR) != RESET)
 8003afa:	f014 0f40 	tst.w	r4, #64	; 0x40
 8003afe:	d129      	bne.n	8003b54 <HAL_SUBGHZ_IRQHandler+0xac>
  if (SUBGHZ_CHECK_IT_SOURCE(itsource, SUBGHZ_IT_CAD_DONE) != RESET)
 8003b00:	f014 0f80 	tst.w	r4, #128	; 0x80
 8003b04:	d006      	beq.n	8003b14 <HAL_SUBGHZ_IRQHandler+0x6c>
    if (SUBGHZ_CHECK_IT_SOURCE(itsource, SUBGHZ_IT_CAD_ACTIVITY_DETECTED) != RESET)
 8003b06:	f414 7f80 	tst.w	r4, #256	; 0x100
 8003b0a:	d027      	beq.n	8003b5c <HAL_SUBGHZ_IRQHandler+0xb4>
      HAL_SUBGHZ_CADStatusCallback(hsubghz, HAL_SUBGHZ_CAD_DETECTED);
 8003b0c:	2101      	movs	r1, #1
 8003b0e:	4628      	mov	r0, r5
 8003b10:	f003 fb84 	bl	800721c <HAL_SUBGHZ_CADStatusCallback>
  if (SUBGHZ_CHECK_IT_SOURCE(itsource, SUBGHZ_IT_RX_TX_TIMEOUT) != RESET)
 8003b14:	f414 7f00 	tst.w	r4, #512	; 0x200
 8003b18:	d125      	bne.n	8003b66 <HAL_SUBGHZ_IRQHandler+0xbe>
  if (SUBGHZ_CHECK_IT_SOURCE(itsource, SUBGHZ_IT_LR_FHSS_HOP) != RESET)
 8003b1a:	f414 4f80 	tst.w	r4, #16384	; 0x4000
 8003b1e:	d126      	bne.n	8003b6e <HAL_SUBGHZ_IRQHandler+0xc6>
}
 8003b20:	b003      	add	sp, #12
 8003b22:	bd30      	pop	{r4, r5, pc}
    HAL_SUBGHZ_TxCpltCallback(hsubghz);
 8003b24:	4628      	mov	r0, r5
 8003b26:	f003 fb61 	bl	80071ec <HAL_SUBGHZ_TxCpltCallback>
 8003b2a:	e7d7      	b.n	8003adc <HAL_SUBGHZ_IRQHandler+0x34>
    HAL_SUBGHZ_RxCpltCallback(hsubghz);
 8003b2c:	4628      	mov	r0, r5
 8003b2e:	f003 fb65 	bl	80071fc <HAL_SUBGHZ_RxCpltCallback>
 8003b32:	e7d6      	b.n	8003ae2 <HAL_SUBGHZ_IRQHandler+0x3a>
    HAL_SUBGHZ_PreambleDetectedCallback(hsubghz);
 8003b34:	4628      	mov	r0, r5
 8003b36:	f003 fb95 	bl	8007264 <HAL_SUBGHZ_PreambleDetectedCallback>
 8003b3a:	e7d5      	b.n	8003ae8 <HAL_SUBGHZ_IRQHandler+0x40>
    HAL_SUBGHZ_SyncWordValidCallback(hsubghz);
 8003b3c:	4628      	mov	r0, r5
 8003b3e:	f003 fb99 	bl	8007274 <HAL_SUBGHZ_SyncWordValidCallback>
 8003b42:	e7d4      	b.n	8003aee <HAL_SUBGHZ_IRQHandler+0x46>
    HAL_SUBGHZ_HeaderValidCallback(hsubghz);
 8003b44:	4628      	mov	r0, r5
 8003b46:	f003 fb9d 	bl	8007284 <HAL_SUBGHZ_HeaderValidCallback>
 8003b4a:	e7d3      	b.n	8003af4 <HAL_SUBGHZ_IRQHandler+0x4c>
    HAL_SUBGHZ_HeaderErrorCallback(hsubghz);
 8003b4c:	4628      	mov	r0, r5
 8003b4e:	f003 fb81 	bl	8007254 <HAL_SUBGHZ_HeaderErrorCallback>
 8003b52:	e7d2      	b.n	8003afa <HAL_SUBGHZ_IRQHandler+0x52>
    HAL_SUBGHZ_CRCErrorCallback(hsubghz);
 8003b54:	4628      	mov	r0, r5
 8003b56:	f003 fb59 	bl	800720c <HAL_SUBGHZ_CRCErrorCallback>
 8003b5a:	e7d1      	b.n	8003b00 <HAL_SUBGHZ_IRQHandler+0x58>
      HAL_SUBGHZ_CADStatusCallback(hsubghz, HAL_SUBGHZ_CAD_CLEAR);
 8003b5c:	2100      	movs	r1, #0
 8003b5e:	4628      	mov	r0, r5
 8003b60:	f003 fb5c 	bl	800721c <HAL_SUBGHZ_CADStatusCallback>
 8003b64:	e7d6      	b.n	8003b14 <HAL_SUBGHZ_IRQHandler+0x6c>
    HAL_SUBGHZ_RxTxTimeoutCallback(hsubghz);
 8003b66:	4628      	mov	r0, r5
 8003b68:	f003 fb6a 	bl	8007240 <HAL_SUBGHZ_RxTxTimeoutCallback>
 8003b6c:	e7d5      	b.n	8003b1a <HAL_SUBGHZ_IRQHandler+0x72>
    HAL_SUBGHZ_LrFhssHopCallback(hsubghz);
 8003b6e:	4628      	mov	r0, r5
 8003b70:	f003 fb90 	bl	8007294 <HAL_SUBGHZ_LrFhssHopCallback>
}
 8003b74:	e7d4      	b.n	8003b20 <HAL_SUBGHZ_IRQHandler+0x78>
	...

08003b78 <HAL_SUBGHZ_WriteBuffer>:
{
 8003b78:	e92d 41f0 	stmdb	sp!, {r4, r5, r6, r7, r8, lr}
 8003b7c:	4605      	mov	r5, r0
  if (hsubghz->State == HAL_SUBGHZ_STATE_READY)
 8003b7e:	7980      	ldrb	r0, [r0, #6]
 8003b80:	fa5f f880 	uxtb.w	r8, r0
 8003b84:	f1b8 0f01 	cmp.w	r8, #1
 8003b88:	d138      	bne.n	8003bfc <HAL_SUBGHZ_WriteBuffer+0x84>
 8003b8a:	460c      	mov	r4, r1
 8003b8c:	4617      	mov	r7, r2
 8003b8e:	461e      	mov	r6, r3
    __HAL_LOCK(hsubghz);
 8003b90:	796b      	ldrb	r3, [r5, #5]
 8003b92:	2b01      	cmp	r3, #1
 8003b94:	d035      	beq.n	8003c02 <HAL_SUBGHZ_WriteBuffer+0x8a>
 8003b96:	2301      	movs	r3, #1
 8003b98:	716b      	strb	r3, [r5, #5]
    (void)SUBGHZ_CheckDeviceReady(hsubghz);
 8003b9a:	4628      	mov	r0, r5
 8003b9c:	f7ff fe14 	bl	80037c8 <SUBGHZ_CheckDeviceReady>
  CLEAR_BIT(PWR->SUBGHZSPICR, PWR_SUBGHZSPICR_NSS);
 8003ba0:	4a19      	ldr	r2, [pc, #100]	; (8003c08 <HAL_SUBGHZ_WriteBuffer+0x90>)
 8003ba2:	f8d2 3090 	ldr.w	r3, [r2, #144]	; 0x90
 8003ba6:	f423 4300 	bic.w	r3, r3, #32768	; 0x8000
 8003baa:	f8c2 3090 	str.w	r3, [r2, #144]	; 0x90
    (void)SUBGHZSPI_Transmit(hsubghz, SUBGHZ_RADIO_WRITE_BUFFER);
 8003bae:	210e      	movs	r1, #14
 8003bb0:	4628      	mov	r0, r5
 8003bb2:	f7ff fd61 	bl	8003678 <SUBGHZSPI_Transmit>
    (void)SUBGHZSPI_Transmit(hsubghz, Offset);
 8003bb6:	4621      	mov	r1, r4
 8003bb8:	4628      	mov	r0, r5
 8003bba:	f7ff fd5d 	bl	8003678 <SUBGHZSPI_Transmit>
    for (uint16_t i = 0U; i < Size; i++)
 8003bbe:	2400      	movs	r4, #0
 8003bc0:	e005      	b.n	8003bce <HAL_SUBGHZ_WriteBuffer+0x56>
      (void)SUBGHZSPI_Transmit(hsubghz, pBuffer[i]);
 8003bc2:	5d39      	ldrb	r1, [r7, r4]
 8003bc4:	4628      	mov	r0, r5
 8003bc6:	f7ff fd57 	bl	8003678 <SUBGHZSPI_Transmit>
    for (uint16_t i = 0U; i < Size; i++)
 8003bca:	3401      	adds	r4, #1
 8003bcc:	b2a4      	uxth	r4, r4
 8003bce:	42b4      	cmp	r4, r6
 8003bd0:	d3f7      	bcc.n	8003bc2 <HAL_SUBGHZ_WriteBuffer+0x4a>
  SET_BIT(PWR->SUBGHZSPICR, PWR_SUBGHZSPICR_NSS);
 8003bd2:	4a0d      	ldr	r2, [pc, #52]	; (8003c08 <HAL_SUBGHZ_WriteBuffer+0x90>)
 8003bd4:	f8d2 3090 	ldr.w	r3, [r2, #144]	; 0x90
 8003bd8:	f443 4300 	orr.w	r3, r3, #32768	; 0x8000
 8003bdc:	f8c2 3090 	str.w	r3, [r2, #144]	; 0x90
    (void)SUBGHZ_WaitOnBusy(hsubghz);
 8003be0:	4628      	mov	r0, r5
 8003be2:	f7ff fdc5 	bl	8003770 <SUBGHZ_WaitOnBusy>
    if (hsubghz->ErrorCode != HAL_SUBGHZ_ERROR_NONE)
 8003be6:	68ab      	ldr	r3, [r5, #8]
 8003be8:	b90b      	cbnz	r3, 8003bee <HAL_SUBGHZ_WriteBuffer+0x76>
      status = HAL_OK;
 8003bea:	f04f 0800 	mov.w	r8, #0
    hsubghz->State = HAL_SUBGHZ_STATE_READY;
 8003bee:	2301      	movs	r3, #1
 8003bf0:	71ab      	strb	r3, [r5, #6]
    __HAL_UNLOCK(hsubghz);
 8003bf2:	2300      	movs	r3, #0
 8003bf4:	716b      	strb	r3, [r5, #5]
}
 8003bf6:	4640      	mov	r0, r8
 8003bf8:	e8bd 81f0 	ldmia.w	sp!, {r4, r5, r6, r7, r8, pc}
    return HAL_BUSY;
 8003bfc:	f04f 0802 	mov.w	r8, #2
 8003c00:	e7f9      	b.n	8003bf6 <HAL_SUBGHZ_WriteBuffer+0x7e>
    __HAL_LOCK(hsubghz);
 8003c02:	f04f 0802 	mov.w	r8, #2
 8003c06:	e7f6      	b.n	8003bf6 <HAL_SUBGHZ_WriteBuffer+0x7e>
 8003c08:	58000400 	.word	0x58000400

08003c0c <HAL_SUBGHZ_ReadBuffer>:
{
 8003c0c:	e92d 41f0 	stmdb	sp!, {r4, r5, r6, r7, r8, lr}
 8003c10:	4606      	mov	r6, r0
  if (hsubghz->State == HAL_SUBGHZ_STATE_READY)
 8003c12:	7980      	ldrb	r0, [r0, #6]
 8003c14:	fa5f f880 	uxtb.w	r8, r0
 8003c18:	f1b8 0f01 	cmp.w	r8, #1
 8003c1c:	d13d      	bne.n	8003c9a <HAL_SUBGHZ_ReadBuffer+0x8e>
 8003c1e:	460c      	mov	r4, r1
 8003c20:	4615      	mov	r5, r2
 8003c22:	461f      	mov	r7, r3
    __HAL_LOCK(hsubghz);
 8003c24:	7973      	ldrb	r3, [r6, #5]
 8003c26:	2b01      	cmp	r3, #1
 8003c28:	d03a      	beq.n	8003ca0 <HAL_SUBGHZ_ReadBuffer+0x94>
 8003c2a:	2301      	movs	r3, #1
 8003c2c:	7173      	strb	r3, [r6, #5]
    (void)SUBGHZ_CheckDeviceReady(hsubghz);
 8003c2e:	4630      	mov	r0, r6
 8003c30:	f7ff fdca 	bl	80037c8 <SUBGHZ_CheckDeviceReady>
  CLEAR_BIT(PWR->SUBGHZSPICR, PWR_SUBGHZSPICR_NSS);
 8003c34:	4a1c      	ldr	r2, [pc, #112]	; (8003ca8 <HAL_SUBGHZ_ReadBuffer+0x9c>)
 8003c36:	f8d2 3090 	ldr.w	r3, [r2, #144]	; 0x90
 8003c3a:	f423 4300 	bic.w	r3, r3, #32768	; 0x8000
 8003c3e:	f8c2 3090 	str.w	r3, [r2, #144]	; 0x90
    (void)SUBGHZSPI_Transmit(hsubghz, SUBGHZ_RADIO_READ_BUFFER);
 8003c42:	211e      	movs	r1, #30
 8003c44:	4630      	mov	r0, r6
 8003c46:	f7ff fd17 	bl	8003678 <SUBGHZSPI_Transmit>
    (void)SUBGHZSPI_Transmit(hsubghz, Offset);
 8003c4a:	4621      	mov	r1, r4
 8003c4c:	4630      	mov	r0, r6
 8003c4e:	f7ff fd13 	bl	8003678 <SUBGHZSPI_Transmit>
    (void)SUBGHZSPI_Transmit(hsubghz, 0x00U);
 8003c52:	2100      	movs	r1, #0
 8003c54:	4630      	mov	r0, r6
 8003c56:	f7ff fd0f 	bl	8003678 <SUBGHZSPI_Transmit>
    for (uint16_t i = 0U; i < Size; i++)
 8003c5a:	2400      	movs	r4, #0
 8003c5c:	e006      	b.n	8003c6c <HAL_SUBGHZ_ReadBuffer+0x60>
      (void)SUBGHZSPI_Receive(hsubghz, (pData));
 8003c5e:	4629      	mov	r1, r5
 8003c60:	4630      	mov	r0, r6
 8003c62:	f7ff fd45 	bl	80036f0 <SUBGHZSPI_Receive>
      pData++;
 8003c66:	3501      	adds	r5, #1
    for (uint16_t i = 0U; i < Size; i++)
 8003c68:	3401      	adds	r4, #1
 8003c6a:	b2a4      	uxth	r4, r4
 8003c6c:	42bc      	cmp	r4, r7
 8003c6e:	d3f6      	bcc.n	8003c5e <HAL_SUBGHZ_ReadBuffer+0x52>
  SET_BIT(PWR->SUBGHZSPICR, PWR_SUBGHZSPICR_NSS);
 8003c70:	4a0d      	ldr	r2, [pc, #52]	; (8003ca8 <HAL_SUBGHZ_ReadBuffer+0x9c>)
 8003c72:	f8d2 3090 	ldr.w	r3, [r2, #144]	; 0x90
 8003c76:	f443 4300 	orr.w	r3, r3, #32768	; 0x8000
 8003c7a:	f8c2 3090 	str.w	r3, [r2, #144]	; 0x90
    (void)SUBGHZ_WaitOnBusy(hsubghz);
 8003c7e:	4630      	mov	r0, r6
 8003c80:	f7ff fd76 	bl	8003770 <SUBGHZ_WaitOnBusy>
    if (hsubghz->ErrorCode != HAL_SUBGHZ_ERROR_NONE)
 8003c84:	68b3      	ldr	r3, [r6, #8]
 8003c86:	b90b      	cbnz	r3, 8003c8c <HAL_SUBGHZ_ReadBuffer+0x80>
      status = HAL_OK;
 8003c88:	f04f 0800 	mov.w	r8, #0
    hsubghz->State = HAL_SUBGHZ_STATE_READY;
 8003c8c:	2301      	movs	r3, #1
 8003c8e:	71b3      	strb	r3, [r6, #6]
    __HAL_UNLOCK(hsubghz);
 8003c90:	2300      	movs	r3, #0
 8003c92:	7173      	strb	r3, [r6, #5]
}
 8003c94:	4640      	mov	r0, r8
 8003c96:	e8bd 81f0 	ldmia.w	sp!, {r4, r5, r6, r7, r8, pc}
    return HAL_BUSY;
 8003c9a:	f04f 0802 	mov.w	r8, #2
 8003c9e:	e7f9      	b.n	8003c94 <HAL_SUBGHZ_ReadBuffer+0x88>
    __HAL_LOCK(hsubghz);
 8003ca0:	f04f 0802 	mov.w	r8, #2
 8003ca4:	e7f6      	b.n	8003c94 <HAL_SUBGHZ_ReadBuffer+0x88>
 8003ca6:	bf00      	nop
 8003ca8:	58000400 	.word	0x58000400

08003cac <UART_EndTxTransfer>:
  * @retval None
  */
static void UART_EndTxTransfer(UART_HandleTypeDef *huart)
{
  /* Disable TXEIE, TCIE, TXFT interrupts */
  ATOMIC_CLEAR_BIT(huart->Instance->CR1, (USART_CR1_TXEIE_TXFNFIE | USART_CR1_TCIE));
 8003cac:	6802      	ldr	r2, [r0, #0]
 */
__STATIC_FORCEINLINE uint32_t __LDREXW(volatile uint32_t *addr)
{
    uint32_t result;

   __ASM volatile ("ldrex %0, %1" : "=r" (result) : "Q" (*addr) );
 8003cae:	e852 3f00 	ldrex	r3, [r2]
 8003cb2:	f023 03c0 	bic.w	r3, r3, #192	; 0xc0
 */
__STATIC_FORCEINLINE uint32_t __STREXW(uint32_t value, volatile uint32_t *addr)
{
   uint32_t result;

   __ASM volatile ("strex %0, %2, %1" : "=&r" (result), "=Q" (*addr) : "r" (value) );
 8003cb6:	e842 3100 	strex	r1, r3, [r2]
 8003cba:	2900      	cmp	r1, #0
 8003cbc:	d1f6      	bne.n	8003cac <UART_EndTxTransfer>
  ATOMIC_CLEAR_BIT(huart->Instance->CR3, (USART_CR3_TXFTIE));
 8003cbe:	6802      	ldr	r2, [r0, #0]
   __ASM volatile ("ldrex %0, %1" : "=r" (result) : "Q" (*addr) );
 8003cc0:	f102 0308 	add.w	r3, r2, #8
 8003cc4:	e853 3f00 	ldrex	r3, [r3]
 8003cc8:	f423 0300 	bic.w	r3, r3, #8388608	; 0x800000
   __ASM volatile ("strex %0, %2, %1" : "=&r" (result), "=Q" (*addr) : "r" (value) );
 8003ccc:	3208      	adds	r2, #8
 8003cce:	e842 3100 	strex	r1, r3, [r2]
 8003cd2:	2900      	cmp	r1, #0
 8003cd4:	d1f3      	bne.n	8003cbe <UART_EndTxTransfer+0x12>

  /* At end of Tx process, restore huart->gState to Ready */
  huart->gState = HAL_UART_STATE_READY;
 8003cd6:	2320      	movs	r3, #32
 8003cd8:	f8c0 3088 	str.w	r3, [r0, #136]	; 0x88
}
 8003cdc:	4770      	bx	lr

08003cde <UART_EndRxTransfer>:
  * @retval None
  */
static void UART_EndRxTransfer(UART_HandleTypeDef *huart)
{
  /* Disable RXNE, PE and ERR (Frame error, noise error, overrun error) interrupts */
  ATOMIC_CLEAR_BIT(huart->Instance->CR1, (USART_CR1_RXNEIE_RXFNEIE | USART_CR1_PEIE));
 8003cde:	6802      	ldr	r2, [r0, #0]
   __ASM volatile ("ldrex %0, %1" : "=r" (result) : "Q" (*addr) );
 8003ce0:	e852 3f00 	ldrex	r3, [r2]
 8003ce4:	f423 7390 	bic.w	r3, r3, #288	; 0x120
   __ASM volatile ("strex %0, %2, %1" : "=&r" (result), "=Q" (*addr) : "r" (value) );
 8003ce8:	e842 3100 	strex	r1, r3, [r2]
 8003cec:	2900      	cmp	r1, #0
 8003cee:	d1f6      	bne.n	8003cde <UART_EndRxTransfer>
  ATOMIC_CLEAR_BIT(huart->Instance->CR3, (USART_CR3_EIE | USART_CR3_RXFTIE));
 8003cf0:	6802      	ldr	r2, [r0, #0]
   __ASM volatile ("ldrex %0, %1" : "=r" (result) : "Q" (*addr) );
 8003cf2:	f102 0308 	add.w	r3, r2, #8
 8003cf6:	e853 3f00 	ldrex	r3, [r3]
 8003cfa:	f023 5380 	bic.w	r3, r3, #268435456	; 0x10000000
 8003cfe:	f023 0301 	bic.w	r3, r3, #1
   __ASM volatile ("strex %0, %2, %1" : "=&r" (result), "=Q" (*addr) : "r" (value) );
 8003d02:	3208      	adds	r2, #8
 8003d04:	e842 3100 	strex	r1, r3, [r2]
 8003d08:	2900      	cmp	r1, #0
 8003d0a:	d1f1      	bne.n	8003cf0 <UART_EndRxTransfer+0x12>

  /* In case of reception waiting for IDLE event, disable also the IDLE IE interrupt source */
  if (huart->ReceptionType == HAL_UART_RECEPTION_TOIDLE)
 8003d0c:	6ec3      	ldr	r3, [r0, #108]	; 0x6c
 8003d0e:	2b01      	cmp	r3, #1
 8003d10:	d006      	beq.n	8003d20 <UART_EndRxTransfer+0x42>
  {
    ATOMIC_CLEAR_BIT(huart->Instance->CR1, USART_CR1_IDLEIE);
  }

  /* At end of Rx process, restore huart->RxState to Ready */
  huart->RxState = HAL_UART_STATE_READY;
 8003d12:	2320      	movs	r3, #32
 8003d14:	f8c0 308c 	str.w	r3, [r0, #140]	; 0x8c
  huart->ReceptionType = HAL_UART_RECEPTION_STANDARD;
 8003d18:	2300      	movs	r3, #0
 8003d1a:	66c3      	str	r3, [r0, #108]	; 0x6c

  /* Reset RxIsr function pointer */
  huart->RxISR = NULL;
 8003d1c:	6743      	str	r3, [r0, #116]	; 0x74
}
 8003d1e:	4770      	bx	lr
    ATOMIC_CLEAR_BIT(huart->Instance->CR1, USART_CR1_IDLEIE);
 8003d20:	6802      	ldr	r2, [r0, #0]
   __ASM volatile ("ldrex %0, %1" : "=r" (result) : "Q" (*addr) );
 8003d22:	e852 3f00 	ldrex	r3, [r2]
 8003d26:	f023 0310 	bic.w	r3, r3, #16
   __ASM volatile ("strex %0, %2, %1" : "=&r" (result), "=Q" (*addr) : "r" (value) );
 8003d2a:	e842 3100 	strex	r1, r3, [r2]
 8003d2e:	2900      	cmp	r1, #0
 8003d30:	d1f6      	bne.n	8003d20 <UART_EndRxTransfer+0x42>
 8003d32:	e7ee      	b.n	8003d12 <UART_EndRxTransfer+0x34>

08003d34 <HAL_UART_Transmit_DMA>:
{
 8003d34:	4613      	mov	r3, r2
  if (huart->gState == HAL_UART_STATE_READY)
 8003d36:	f8d0 2088 	ldr.w	r2, [r0, #136]	; 0x88
 8003d3a:	2a20      	cmp	r2, #32
 8003d3c:	d13d      	bne.n	8003dba <HAL_UART_Transmit_DMA+0x86>
{
 8003d3e:	b510      	push	{r4, lr}
 8003d40:	4604      	mov	r4, r0
    if ((pData == NULL) || (Size == 0U))
 8003d42:	2900      	cmp	r1, #0
 8003d44:	d03b      	beq.n	8003dbe <HAL_UART_Transmit_DMA+0x8a>
 8003d46:	2b00      	cmp	r3, #0
 8003d48:	d03b      	beq.n	8003dc2 <HAL_UART_Transmit_DMA+0x8e>
    huart->pTxBuffPtr  = pData;
 8003d4a:	6501      	str	r1, [r0, #80]	; 0x50
    huart->TxXferSize  = Size;
 8003d4c:	f8a0 3054 	strh.w	r3, [r0, #84]	; 0x54
    huart->TxXferCount = Size;
 8003d50:	f8a0 3056 	strh.w	r3, [r0, #86]	; 0x56
    huart->ErrorCode = HAL_UART_ERROR_NONE;
 8003d54:	2200      	movs	r2, #0
 8003d56:	f8c0 2090 	str.w	r2, [r0, #144]	; 0x90
    huart->gState = HAL_UART_STATE_BUSY_TX;
 8003d5a:	2221      	movs	r2, #33	; 0x21
 8003d5c:	f8c0 2088 	str.w	r2, [r0, #136]	; 0x88
    if (huart->hdmatx != NULL)
 8003d60:	6fc2      	ldr	r2, [r0, #124]	; 0x7c
 8003d62:	b1ca      	cbz	r2, 8003d98 <HAL_UART_Transmit_DMA+0x64>
      huart->hdmatx->XferCpltCallback = UART_DMATransmitCplt;
 8003d64:	4918      	ldr	r1, [pc, #96]	; (8003dc8 <HAL_UART_Transmit_DMA+0x94>)
 8003d66:	62d1      	str	r1, [r2, #44]	; 0x2c
      huart->hdmatx->XferHalfCpltCallback = UART_DMATxHalfCplt;
 8003d68:	6fc2      	ldr	r2, [r0, #124]	; 0x7c
 8003d6a:	4918      	ldr	r1, [pc, #96]	; (8003dcc <HAL_UART_Transmit_DMA+0x98>)
 8003d6c:	6311      	str	r1, [r2, #48]	; 0x30
      huart->hdmatx->XferErrorCallback = UART_DMAError;
 8003d6e:	6fc2      	ldr	r2, [r0, #124]	; 0x7c
 8003d70:	4917      	ldr	r1, [pc, #92]	; (8003dd0 <HAL_UART_Transmit_DMA+0x9c>)
 8003d72:	6351      	str	r1, [r2, #52]	; 0x34
      huart->hdmatx->XferAbortCallback = NULL;
 8003d74:	6fc2      	ldr	r2, [r0, #124]	; 0x7c
 8003d76:	2100      	movs	r1, #0
 8003d78:	6391      	str	r1, [r2, #56]	; 0x38
      if (HAL_DMA_Start_IT(huart->hdmatx, (uint32_t)huart->pTxBuffPtr, (uint32_t)&huart->Instance->TDR, Size) != HAL_OK)
 8003d7a:	6802      	ldr	r2, [r0, #0]
 8003d7c:	3228      	adds	r2, #40	; 0x28
 8003d7e:	6d01      	ldr	r1, [r0, #80]	; 0x50
 8003d80:	6fc0      	ldr	r0, [r0, #124]	; 0x7c
 8003d82:	f7fd ff99 	bl	8001cb8 <HAL_DMA_Start_IT>
 8003d86:	b138      	cbz	r0, 8003d98 <HAL_UART_Transmit_DMA+0x64>
        huart->ErrorCode = HAL_UART_ERROR_DMA;
 8003d88:	2310      	movs	r3, #16
 8003d8a:	f8c4 3090 	str.w	r3, [r4, #144]	; 0x90
        huart->gState = HAL_UART_STATE_READY;
 8003d8e:	2320      	movs	r3, #32
 8003d90:	f8c4 3088 	str.w	r3, [r4, #136]	; 0x88
        return HAL_ERROR;
 8003d94:	2001      	movs	r0, #1
 8003d96:	e00f      	b.n	8003db8 <HAL_UART_Transmit_DMA+0x84>
    __HAL_UART_CLEAR_FLAG(huart, UART_CLEAR_TCF);
 8003d98:	6823      	ldr	r3, [r4, #0]
 8003d9a:	2240      	movs	r2, #64	; 0x40
 8003d9c:	621a      	str	r2, [r3, #32]
    ATOMIC_SET_BIT(huart->Instance->CR3, USART_CR3_DMAT);
 8003d9e:	6822      	ldr	r2, [r4, #0]
   __ASM volatile ("ldrex %0, %1" : "=r" (result) : "Q" (*addr) );
 8003da0:	f102 0308 	add.w	r3, r2, #8
 8003da4:	e853 3f00 	ldrex	r3, [r3]
 8003da8:	f043 0380 	orr.w	r3, r3, #128	; 0x80
   __ASM volatile ("strex %0, %2, %1" : "=&r" (result), "=Q" (*addr) : "r" (value) );
 8003dac:	3208      	adds	r2, #8
 8003dae:	e842 3100 	strex	r1, r3, [r2]
 8003db2:	2900      	cmp	r1, #0
 8003db4:	d1f3      	bne.n	8003d9e <HAL_UART_Transmit_DMA+0x6a>
    return HAL_OK;
 8003db6:	2000      	movs	r0, #0
}
 8003db8:	bd10      	pop	{r4, pc}
    return HAL_BUSY;
 8003dba:	2002      	movs	r0, #2
}
 8003dbc:	4770      	bx	lr
      return HAL_ERROR;
 8003dbe:	2001      	movs	r0, #1
 8003dc0:	e7fa      	b.n	8003db8 <HAL_UART_Transmit_DMA+0x84>
 8003dc2:	2001      	movs	r0, #1
 8003dc4:	e7f8      	b.n	8003db8 <HAL_UART_Transmit_DMA+0x84>
 8003dc6:	bf00      	nop
 8003dc8:	08003dd5 	.word	0x08003dd5
 8003dcc:	08003e43 	.word	0x08003e43
 8003dd0:	08003e4f 	.word	0x08003e4f

08003dd4 <UART_DMATransmitCplt>:
  * @brief DMA UART transmit process complete callback.
  * @param hdma DMA handle.
  * @retval None
  */
static void UART_DMATransmitCplt(DMA_HandleTypeDef *hdma)
{
 8003dd4:	b508      	push	{r3, lr}
 8003dd6:	4603      	mov	r3, r0
  UART_HandleTypeDef *huart = (UART_HandleTypeDef *)(hdma->Parent);
 8003dd8:	6a80      	ldr	r0, [r0, #40]	; 0x28

  /* DMA Normal mode */
  if (HAL_IS_BIT_CLR(hdma->Instance->CCR, DMA_CCR_CIRC))
 8003dda:	681b      	ldr	r3, [r3, #0]
 8003ddc:	681b      	ldr	r3, [r3, #0]
 8003dde:	f013 0f20 	tst.w	r3, #32
 8003de2:	d118      	bne.n	8003e16 <UART_DMATransmitCplt+0x42>
  {
    huart->TxXferCount = 0U;
 8003de4:	2300      	movs	r3, #0
 8003de6:	f8a0 3056 	strh.w	r3, [r0, #86]	; 0x56

    /* Disable the DMA transfer for transmit request by resetting the DMAT bit
       in the UART CR3 register */
    ATOMIC_CLEAR_BIT(huart->Instance->CR3, USART_CR3_DMAT);
 8003dea:	6802      	ldr	r2, [r0, #0]
   __ASM volatile ("ldrex %0, %1" : "=r" (result) : "Q" (*addr) );
 8003dec:	f102 0308 	add.w	r3, r2, #8
 8003df0:	e853 3f00 	ldrex	r3, [r3]
 8003df4:	f023 0380 	bic.w	r3, r3, #128	; 0x80
   __ASM volatile ("strex %0, %2, %1" : "=&r" (result), "=Q" (*addr) : "r" (value) );
 8003df8:	3208      	adds	r2, #8
 8003dfa:	e842 3100 	strex	r1, r3, [r2]
 8003dfe:	2900      	cmp	r1, #0
 8003e00:	d1f3      	bne.n	8003dea <UART_DMATransmitCplt+0x16>

    /* Enable the UART Transmit Complete Interrupt */
    ATOMIC_SET_BIT(huart->Instance->CR1, USART_CR1_TCIE);
 8003e02:	6802      	ldr	r2, [r0, #0]
   __ASM volatile ("ldrex %0, %1" : "=r" (result) : "Q" (*addr) );
 8003e04:	e852 3f00 	ldrex	r3, [r2]
 8003e08:	f043 0340 	orr.w	r3, r3, #64	; 0x40
   __ASM volatile ("strex %0, %2, %1" : "=&r" (result), "=Q" (*addr) : "r" (value) );
 8003e0c:	e842 3100 	strex	r1, r3, [r2]
 8003e10:	2900      	cmp	r1, #0
 8003e12:	d1f6      	bne.n	8003e02 <UART_DMATransmitCplt+0x2e>
#else
    /*Call legacy weak Tx complete callback*/
    HAL_UART_TxCpltCallback(huart);
#endif /* USE_HAL_UART_REGISTER_CALLBACKS */
  }
}
 8003e14:	bd08      	pop	{r3, pc}
    HAL_UART_TxCpltCallback(huart);
 8003e16:	f7fd f915 	bl	8001044 <HAL_UART_TxCpltCallback>
}
 8003e1a:	e7fb      	b.n	8003e14 <UART_DMATransmitCplt+0x40>

08003e1c <UART_EndTransmit_IT>:
  * @param  huart pointer to a UART_HandleTypeDef structure that contains
  *                the configuration information for the specified UART module.
  * @retval None
  */
static void UART_EndTransmit_IT(UART_HandleTypeDef *huart)
{
 8003e1c:	b508      	push	{r3, lr}
  /* Disable the UART Transmit Complete Interrupt */
  ATOMIC_CLEAR_BIT(huart->Instance->CR1, USART_CR1_TCIE);
 8003e1e:	6802      	ldr	r2, [r0, #0]
   __ASM volatile ("ldrex %0, %1" : "=r" (result) : "Q" (*addr) );
 8003e20:	e852 3f00 	ldrex	r3, [r2]
 8003e24:	f023 0340 	bic.w	r3, r3, #64	; 0x40
   __ASM volatile ("strex %0, %2, %1" : "=&r" (result), "=Q" (*addr) : "r" (value) );
 8003e28:	e842 3100 	strex	r1, r3, [r2]
 8003e2c:	2900      	cmp	r1, #0
 8003e2e:	d1f6      	bne.n	8003e1e <UART_EndTransmit_IT+0x2>

  /* Tx process is ended, restore huart->gState to Ready */
  huart->gState = HAL_UART_STATE_READY;
 8003e30:	2320      	movs	r3, #32
 8003e32:	f8c0 3088 	str.w	r3, [r0, #136]	; 0x88

  /* Cleat TxISR function pointer */
  huart->TxISR = NULL;
 8003e36:	2300      	movs	r3, #0
 8003e38:	6783      	str	r3, [r0, #120]	; 0x78
#if (USE_HAL_UART_REGISTER_CALLBACKS == 1)
  /*Call registered Tx complete callback*/
  huart->TxCpltCallback(huart);
#else
  /*Call legacy weak Tx complete callback*/
  HAL_UART_TxCpltCallback(huart);
 8003e3a:	f7fd f903 	bl	8001044 <HAL_UART_TxCpltCallback>
#endif /* USE_HAL_UART_REGISTER_CALLBACKS */
}
 8003e3e:	bd08      	pop	{r3, pc}

08003e40 <HAL_UART_TxHalfCpltCallback>:
}
 8003e40:	4770      	bx	lr

08003e42 <UART_DMATxHalfCplt>:
{
 8003e42:	b508      	push	{r3, lr}
  HAL_UART_TxHalfCpltCallback(huart);
 8003e44:	6a80      	ldr	r0, [r0, #40]	; 0x28
 8003e46:	f7ff fffb 	bl	8003e40 <HAL_UART_TxHalfCpltCallback>
}
 8003e4a:	bd08      	pop	{r3, pc}

08003e4c <HAL_UART_ErrorCallback>:
}
 8003e4c:	4770      	bx	lr

08003e4e <UART_DMAError>:
{
 8003e4e:	b538      	push	{r3, r4, r5, lr}
  UART_HandleTypeDef *huart = (UART_HandleTypeDef *)(hdma->Parent);
 8003e50:	6a84      	ldr	r4, [r0, #40]	; 0x28
  const HAL_UART_StateTypeDef gstate = huart->gState;
 8003e52:	f8d4 2088 	ldr.w	r2, [r4, #136]	; 0x88
  const HAL_UART_StateTypeDef rxstate = huart->RxState;
 8003e56:	f8d4 508c 	ldr.w	r5, [r4, #140]	; 0x8c
  if ((HAL_IS_BIT_SET(huart->Instance->CR3, USART_CR3_DMAT)) &&
 8003e5a:	6823      	ldr	r3, [r4, #0]
 8003e5c:	689b      	ldr	r3, [r3, #8]
 8003e5e:	f013 0f80 	tst.w	r3, #128	; 0x80
 8003e62:	d001      	beq.n	8003e68 <UART_DMAError+0x1a>
 8003e64:	2a21      	cmp	r2, #33	; 0x21
 8003e66:	d010      	beq.n	8003e8a <UART_DMAError+0x3c>
  if ((HAL_IS_BIT_SET(huart->Instance->CR3, USART_CR3_DMAR)) &&
 8003e68:	6823      	ldr	r3, [r4, #0]
 8003e6a:	689b      	ldr	r3, [r3, #8]
 8003e6c:	f013 0f40 	tst.w	r3, #64	; 0x40
 8003e70:	d001      	beq.n	8003e76 <UART_DMAError+0x28>
 8003e72:	2d22      	cmp	r5, #34	; 0x22
 8003e74:	d010      	beq.n	8003e98 <UART_DMAError+0x4a>
  huart->ErrorCode |= HAL_UART_ERROR_DMA;
 8003e76:	f8d4 3090 	ldr.w	r3, [r4, #144]	; 0x90
 8003e7a:	f043 0310 	orr.w	r3, r3, #16
 8003e7e:	f8c4 3090 	str.w	r3, [r4, #144]	; 0x90
  HAL_UART_ErrorCallback(huart);
 8003e82:	4620      	mov	r0, r4
 8003e84:	f7ff ffe2 	bl	8003e4c <HAL_UART_ErrorCallback>
}
 8003e88:	bd38      	pop	{r3, r4, r5, pc}
    huart->TxXferCount = 0U;
 8003e8a:	2300      	movs	r3, #0
 8003e8c:	f8a4 3056 	strh.w	r3, [r4, #86]	; 0x56
    UART_EndTxTransfer(huart);
 8003e90:	4620      	mov	r0, r4
 8003e92:	f7ff ff0b 	bl	8003cac <UART_EndTxTransfer>
 8003e96:	e7e7      	b.n	8003e68 <UART_DMAError+0x1a>
    huart->RxXferCount = 0U;
 8003e98:	2300      	movs	r3, #0
 8003e9a:	f8a4 305e 	strh.w	r3, [r4, #94]	; 0x5e
    UART_EndRxTransfer(huart);
 8003e9e:	4620      	mov	r0, r4
 8003ea0:	f7ff ff1d 	bl	8003cde <UART_EndRxTransfer>
 8003ea4:	e7e7      	b.n	8003e76 <UART_DMAError+0x28>

08003ea6 <UART_DMAAbortOnError>:
{
 8003ea6:	b508      	push	{r3, lr}
  UART_HandleTypeDef *huart = (UART_HandleTypeDef *)(hdma->Parent);
 8003ea8:	6a80      	ldr	r0, [r0, #40]	; 0x28
  huart->RxXferCount = 0U;
 8003eaa:	2300      	movs	r3, #0
 8003eac:	f8a0 305e 	strh.w	r3, [r0, #94]	; 0x5e
  huart->TxXferCount = 0U;
 8003eb0:	f8a0 3056 	strh.w	r3, [r0, #86]	; 0x56
  HAL_UART_ErrorCallback(huart);
 8003eb4:	f7ff ffca 	bl	8003e4c <HAL_UART_ErrorCallback>
}
 8003eb8:	bd08      	pop	{r3, pc}

08003eba <HAL_UARTEx_RxEventCallback>:
}
 8003eba:	4770      	bx	lr

08003ebc <HAL_UART_IRQHandler>:
{
 8003ebc:	b570      	push	{r4, r5, r6, lr}
 8003ebe:	4604      	mov	r4, r0
  uint32_t isrflags   = READ_REG(huart->Instance->ISR);
 8003ec0:	6801      	ldr	r1, [r0, #0]
 8003ec2:	69cb      	ldr	r3, [r1, #28]
  uint32_t cr1its     = READ_REG(huart->Instance->CR1);
 8003ec4:	6808      	ldr	r0, [r1, #0]
  uint32_t cr3its     = READ_REG(huart->Instance->CR3);
 8003ec6:	688d      	ldr	r5, [r1, #8]
  errorflags = (isrflags & (uint32_t)(USART_ISR_PE | USART_ISR_FE | USART_ISR_ORE | USART_ISR_NE | USART_ISR_RTOF));
 8003ec8:	f640 020f 	movw	r2, #2063	; 0x80f
  if (errorflags == 0U)
 8003ecc:	401a      	ands	r2, r3
 8003ece:	d108      	bne.n	8003ee2 <HAL_UART_IRQHandler+0x26>
    if (((isrflags & USART_ISR_RXNE_RXFNE) != 0U)
 8003ed0:	f013 0f20 	tst.w	r3, #32
 8003ed4:	d005      	beq.n	8003ee2 <HAL_UART_IRQHandler+0x26>
        && (((cr1its & USART_CR1_RXNEIE_RXFNEIE) != 0U)
 8003ed6:	f010 0f20 	tst.w	r0, #32
 8003eda:	d134      	bne.n	8003f46 <HAL_UART_IRQHandler+0x8a>
            || ((cr3its & USART_CR3_RXFTIE) != 0U)))
 8003edc:	f015 5f80 	tst.w	r5, #268435456	; 0x10000000
 8003ee0:	d131      	bne.n	8003f46 <HAL_UART_IRQHandler+0x8a>
  if ((errorflags != 0U)
 8003ee2:	b12a      	cbz	r2, 8003ef0 <HAL_UART_IRQHandler+0x34>
      && ((((cr3its & (USART_CR3_RXFTIE | USART_CR3_EIE)) != 0U)
 8003ee4:	4a99      	ldr	r2, [pc, #612]	; (800414c <HAL_UART_IRQHandler+0x290>)
 8003ee6:	402a      	ands	r2, r5
 8003ee8:	d133      	bne.n	8003f52 <HAL_UART_IRQHandler+0x96>
           || ((cr1its & (USART_CR1_RXNEIE_RXFNEIE | USART_CR1_PEIE | USART_CR1_RTOIE)) != 0U))))
 8003eea:	4e99      	ldr	r6, [pc, #612]	; (8004150 <HAL_UART_IRQHandler+0x294>)
 8003eec:	4230      	tst	r0, r6
 8003eee:	d130      	bne.n	8003f52 <HAL_UART_IRQHandler+0x96>
  if ((huart->ReceptionType == HAL_UART_RECEPTION_TOIDLE)
 8003ef0:	6ee2      	ldr	r2, [r4, #108]	; 0x6c
 8003ef2:	2a01      	cmp	r2, #1
 8003ef4:	f000 80c6 	beq.w	8004084 <HAL_UART_IRQHandler+0x1c8>
  if (((isrflags & USART_ISR_WUF) != 0U) && ((cr3its & USART_CR3_WUFIE) != 0U))
 8003ef8:	f413 1f80 	tst.w	r3, #1048576	; 0x100000
 8003efc:	d003      	beq.n	8003f06 <HAL_UART_IRQHandler+0x4a>
 8003efe:	f415 0f80 	tst.w	r5, #4194304	; 0x400000
 8003f02:	f040 8165 	bne.w	80041d0 <HAL_UART_IRQHandler+0x314>
  if (((isrflags & USART_ISR_TXE_TXFNF) != 0U)
 8003f06:	f013 0f80 	tst.w	r3, #128	; 0x80
 8003f0a:	d007      	beq.n	8003f1c <HAL_UART_IRQHandler+0x60>
      && (((cr1its & USART_CR1_TXEIE_TXFNFIE) != 0U)
 8003f0c:	f010 0f80 	tst.w	r0, #128	; 0x80
 8003f10:	f040 8165 	bne.w	80041de <HAL_UART_IRQHandler+0x322>
          || ((cr3its & USART_CR3_TXFTIE) != 0U)))
 8003f14:	f415 0f00 	tst.w	r5, #8388608	; 0x800000
 8003f18:	f040 8161 	bne.w	80041de <HAL_UART_IRQHandler+0x322>
  if (((isrflags & USART_ISR_TC) != 0U) && ((cr1its & USART_CR1_TCIE) != 0U))
 8003f1c:	f013 0f40 	tst.w	r3, #64	; 0x40
 8003f20:	d003      	beq.n	8003f2a <HAL_UART_IRQHandler+0x6e>
 8003f22:	f010 0f40 	tst.w	r0, #64	; 0x40
 8003f26:	f040 8161 	bne.w	80041ec <HAL_UART_IRQHandler+0x330>
  if (((isrflags & USART_ISR_TXFE) != 0U) && ((cr1its & USART_CR1_TXFEIE) != 0U))
 8003f2a:	f413 0f00 	tst.w	r3, #8388608	; 0x800000
 8003f2e:	d003      	beq.n	8003f38 <HAL_UART_IRQHandler+0x7c>
 8003f30:	f010 4f80 	tst.w	r0, #1073741824	; 0x40000000
 8003f34:	f040 815e 	bne.w	80041f4 <HAL_UART_IRQHandler+0x338>
  if (((isrflags & USART_ISR_RXFF) != 0U) && ((cr1its & USART_CR1_RXFFIE) != 0U))
 8003f38:	f013 7f80 	tst.w	r3, #16777216	; 0x1000000
 8003f3c:	d002      	beq.n	8003f44 <HAL_UART_IRQHandler+0x88>
 8003f3e:	2800      	cmp	r0, #0
 8003f40:	f2c0 815c 	blt.w	80041fc <HAL_UART_IRQHandler+0x340>
}
 8003f44:	bd70      	pop	{r4, r5, r6, pc}
      if (huart->RxISR != NULL)
 8003f46:	6f63      	ldr	r3, [r4, #116]	; 0x74
 8003f48:	2b00      	cmp	r3, #0
 8003f4a:	d0fb      	beq.n	8003f44 <HAL_UART_IRQHandler+0x88>
        huart->RxISR(huart);
 8003f4c:	4620      	mov	r0, r4
 8003f4e:	4798      	blx	r3
      return;
 8003f50:	e7f8      	b.n	8003f44 <HAL_UART_IRQHandler+0x88>
    if (((isrflags & USART_ISR_PE) != 0U) && ((cr1its & USART_CR1_PEIE) != 0U))
 8003f52:	f013 0f01 	tst.w	r3, #1
 8003f56:	d009      	beq.n	8003f6c <HAL_UART_IRQHandler+0xb0>
 8003f58:	f410 7f80 	tst.w	r0, #256	; 0x100
 8003f5c:	d006      	beq.n	8003f6c <HAL_UART_IRQHandler+0xb0>
      __HAL_UART_CLEAR_FLAG(huart, UART_CLEAR_PEF);
 8003f5e:	2601      	movs	r6, #1
 8003f60:	620e      	str	r6, [r1, #32]
      huart->ErrorCode |= HAL_UART_ERROR_PE;
 8003f62:	f8d4 1090 	ldr.w	r1, [r4, #144]	; 0x90
 8003f66:	4331      	orrs	r1, r6
 8003f68:	f8c4 1090 	str.w	r1, [r4, #144]	; 0x90
    if (((isrflags & USART_ISR_FE) != 0U) && ((cr3its & USART_CR3_EIE) != 0U))
 8003f6c:	f013 0f02 	tst.w	r3, #2
 8003f70:	d00b      	beq.n	8003f8a <HAL_UART_IRQHandler+0xce>
 8003f72:	f015 0f01 	tst.w	r5, #1
 8003f76:	d008      	beq.n	8003f8a <HAL_UART_IRQHandler+0xce>
      __HAL_UART_CLEAR_FLAG(huart, UART_CLEAR_FEF);
 8003f78:	6821      	ldr	r1, [r4, #0]
 8003f7a:	2602      	movs	r6, #2
 8003f7c:	620e      	str	r6, [r1, #32]
      huart->ErrorCode |= HAL_UART_ERROR_FE;
 8003f7e:	f8d4 1090 	ldr.w	r1, [r4, #144]	; 0x90
 8003f82:	f041 0104 	orr.w	r1, r1, #4
 8003f86:	f8c4 1090 	str.w	r1, [r4, #144]	; 0x90
    if (((isrflags & USART_ISR_NE) != 0U) && ((cr3its & USART_CR3_EIE) != 0U))
 8003f8a:	f013 0f04 	tst.w	r3, #4
 8003f8e:	d00b      	beq.n	8003fa8 <HAL_UART_IRQHandler+0xec>
 8003f90:	f015 0f01 	tst.w	r5, #1
 8003f94:	d008      	beq.n	8003fa8 <HAL_UART_IRQHandler+0xec>
      __HAL_UART_CLEAR_FLAG(huart, UART_CLEAR_NEF);
 8003f96:	6821      	ldr	r1, [r4, #0]
 8003f98:	2604      	movs	r6, #4
 8003f9a:	620e      	str	r6, [r1, #32]
      huart->ErrorCode |= HAL_UART_ERROR_NE;
 8003f9c:	f8d4 1090 	ldr.w	r1, [r4, #144]	; 0x90
 8003fa0:	f041 0102 	orr.w	r1, r1, #2
 8003fa4:	f8c4 1090 	str.w	r1, [r4, #144]	; 0x90
    if (((isrflags & USART_ISR_ORE) != 0U)
 8003fa8:	f013 0f08 	tst.w	r3, #8
 8003fac:	d00b      	beq.n	8003fc6 <HAL_UART_IRQHandler+0x10a>
        && (((cr1its & USART_CR1_RXNEIE_RXFNEIE) != 0U) ||
 8003fae:	f010 0f20 	tst.w	r0, #32
 8003fb2:	d100      	bne.n	8003fb6 <HAL_UART_IRQHandler+0xfa>
 8003fb4:	b13a      	cbz	r2, 8003fc6 <HAL_UART_IRQHandler+0x10a>
      __HAL_UART_CLEAR_FLAG(huart, UART_CLEAR_OREF);
 8003fb6:	6822      	ldr	r2, [r4, #0]
 8003fb8:	2108      	movs	r1, #8
 8003fba:	6211      	str	r1, [r2, #32]
      huart->ErrorCode |= HAL_UART_ERROR_ORE;
 8003fbc:	f8d4 2090 	ldr.w	r2, [r4, #144]	; 0x90
 8003fc0:	430a      	orrs	r2, r1
 8003fc2:	f8c4 2090 	str.w	r2, [r4, #144]	; 0x90
    if (((isrflags & USART_ISR_RTOF) != 0U) && ((cr1its & USART_CR1_RTOIE) != 0U))
 8003fc6:	f413 6f00 	tst.w	r3, #2048	; 0x800
 8003fca:	d00c      	beq.n	8003fe6 <HAL_UART_IRQHandler+0x12a>
 8003fcc:	f010 6f80 	tst.w	r0, #67108864	; 0x4000000
 8003fd0:	d009      	beq.n	8003fe6 <HAL_UART_IRQHandler+0x12a>
      __HAL_UART_CLEAR_FLAG(huart, UART_CLEAR_RTOF);
 8003fd2:	6822      	ldr	r2, [r4, #0]
 8003fd4:	f44f 6100 	mov.w	r1, #2048	; 0x800
 8003fd8:	6211      	str	r1, [r2, #32]
      huart->ErrorCode |= HAL_UART_ERROR_RTO;
 8003fda:	f8d4 2090 	ldr.w	r2, [r4, #144]	; 0x90
 8003fde:	f042 0220 	orr.w	r2, r2, #32
 8003fe2:	f8c4 2090 	str.w	r2, [r4, #144]	; 0x90
    if (huart->ErrorCode != HAL_UART_ERROR_NONE)
 8003fe6:	f8d4 2090 	ldr.w	r2, [r4, #144]	; 0x90
 8003fea:	2a00      	cmp	r2, #0
 8003fec:	d0aa      	beq.n	8003f44 <HAL_UART_IRQHandler+0x88>
      if (((isrflags & USART_ISR_RXNE_RXFNE) != 0U)
 8003fee:	f013 0f20 	tst.w	r3, #32
 8003ff2:	d009      	beq.n	8004008 <HAL_UART_IRQHandler+0x14c>
          && (((cr1its & USART_CR1_RXNEIE_RXFNEIE) != 0U)
 8003ff4:	f010 0f20 	tst.w	r0, #32
 8003ff8:	d102      	bne.n	8004000 <HAL_UART_IRQHandler+0x144>
              || ((cr3its & USART_CR3_RXFTIE) != 0U)))
 8003ffa:	f015 5f80 	tst.w	r5, #268435456	; 0x10000000
 8003ffe:	d003      	beq.n	8004008 <HAL_UART_IRQHandler+0x14c>
        if (huart->RxISR != NULL)
 8004000:	6f63      	ldr	r3, [r4, #116]	; 0x74
 8004002:	b10b      	cbz	r3, 8004008 <HAL_UART_IRQHandler+0x14c>
          huart->RxISR(huart);
 8004004:	4620      	mov	r0, r4
 8004006:	4798      	blx	r3
      errorcode = huart->ErrorCode;
 8004008:	f8d4 2090 	ldr.w	r2, [r4, #144]	; 0x90
      if ((HAL_IS_BIT_SET(huart->Instance->CR3, USART_CR3_DMAR)) ||
 800400c:	6823      	ldr	r3, [r4, #0]
 800400e:	689b      	ldr	r3, [r3, #8]
 8004010:	f013 0f40 	tst.w	r3, #64	; 0x40
 8004014:	d102      	bne.n	800401c <HAL_UART_IRQHandler+0x160>
 8004016:	f012 0f28 	tst.w	r2, #40	; 0x28
 800401a:	d02c      	beq.n	8004076 <HAL_UART_IRQHandler+0x1ba>
        UART_EndRxTransfer(huart);
 800401c:	4620      	mov	r0, r4
 800401e:	f7ff fe5e 	bl	8003cde <UART_EndRxTransfer>
        if (HAL_IS_BIT_SET(huart->Instance->CR3, USART_CR3_DMAR))
 8004022:	6823      	ldr	r3, [r4, #0]
 8004024:	689b      	ldr	r3, [r3, #8]
 8004026:	f013 0f40 	tst.w	r3, #64	; 0x40
 800402a:	d020      	beq.n	800406e <HAL_UART_IRQHandler+0x1b2>
          ATOMIC_CLEAR_BIT(huart->Instance->CR3, USART_CR3_DMAR);
 800402c:	6822      	ldr	r2, [r4, #0]
   __ASM volatile ("ldrex %0, %1" : "=r" (result) : "Q" (*addr) );
 800402e:	f102 0308 	add.w	r3, r2, #8
 8004032:	e853 3f00 	ldrex	r3, [r3]
 8004036:	f023 0340 	bic.w	r3, r3, #64	; 0x40
   __ASM volatile ("strex %0, %2, %1" : "=&r" (result), "=Q" (*addr) : "r" (value) );
 800403a:	3208      	adds	r2, #8
 800403c:	e842 3100 	strex	r1, r3, [r2]
 8004040:	2900      	cmp	r1, #0
 8004042:	d1f3      	bne.n	800402c <HAL_UART_IRQHandler+0x170>
          if (huart->hdmarx != NULL)
 8004044:	f8d4 3080 	ldr.w	r3, [r4, #128]	; 0x80
 8004048:	b16b      	cbz	r3, 8004066 <HAL_UART_IRQHandler+0x1aa>
            huart->hdmarx->XferAbortCallback = UART_DMAAbortOnError;
 800404a:	4a42      	ldr	r2, [pc, #264]	; (8004154 <HAL_UART_IRQHandler+0x298>)
 800404c:	639a      	str	r2, [r3, #56]	; 0x38
            if (HAL_DMA_Abort_IT(huart->hdmarx) != HAL_OK)
 800404e:	f8d4 0080 	ldr.w	r0, [r4, #128]	; 0x80
 8004052:	f7fd feb7 	bl	8001dc4 <HAL_DMA_Abort_IT>
 8004056:	2800      	cmp	r0, #0
 8004058:	f43f af74 	beq.w	8003f44 <HAL_UART_IRQHandler+0x88>
              huart->hdmarx->XferAbortCallback(huart->hdmarx);
 800405c:	f8d4 0080 	ldr.w	r0, [r4, #128]	; 0x80
 8004060:	6b83      	ldr	r3, [r0, #56]	; 0x38
 8004062:	4798      	blx	r3
 8004064:	e76e      	b.n	8003f44 <HAL_UART_IRQHandler+0x88>
            HAL_UART_ErrorCallback(huart);
 8004066:	4620      	mov	r0, r4
 8004068:	f7ff fef0 	bl	8003e4c <HAL_UART_ErrorCallback>
 800406c:	e76a      	b.n	8003f44 <HAL_UART_IRQHandler+0x88>
          HAL_UART_ErrorCallback(huart);
 800406e:	4620      	mov	r0, r4
 8004070:	f7ff feec 	bl	8003e4c <HAL_UART_ErrorCallback>
 8004074:	e766      	b.n	8003f44 <HAL_UART_IRQHandler+0x88>
        HAL_UART_ErrorCallback(huart);
 8004076:	4620      	mov	r0, r4
 8004078:	f7ff fee8 	bl	8003e4c <HAL_UART_ErrorCallback>
        huart->ErrorCode = HAL_UART_ERROR_NONE;
 800407c:	2300      	movs	r3, #0
 800407e:	f8c4 3090 	str.w	r3, [r4, #144]	; 0x90
    return;
 8004082:	e75f      	b.n	8003f44 <HAL_UART_IRQHandler+0x88>
      && ((isrflags & USART_ISR_IDLE) != 0U)
 8004084:	f013 0f10 	tst.w	r3, #16
 8004088:	f43f af36 	beq.w	8003ef8 <HAL_UART_IRQHandler+0x3c>
      && ((cr1its & USART_ISR_IDLE) != 0U))
 800408c:	f010 0f10 	tst.w	r0, #16
 8004090:	f43f af32 	beq.w	8003ef8 <HAL_UART_IRQHandler+0x3c>
    __HAL_UART_CLEAR_FLAG(huart, UART_CLEAR_IDLEF);
 8004094:	2310      	movs	r3, #16
 8004096:	620b      	str	r3, [r1, #32]
    if (HAL_IS_BIT_SET(huart->Instance->CR3, USART_CR3_DMAR))
 8004098:	6823      	ldr	r3, [r4, #0]
 800409a:	689b      	ldr	r3, [r3, #8]
 800409c:	f013 0f40 	tst.w	r3, #64	; 0x40
 80040a0:	d05a      	beq.n	8004158 <HAL_UART_IRQHandler+0x29c>
      uint16_t nb_remaining_rx_data = (uint16_t) __HAL_DMA_GET_COUNTER(huart->hdmarx);
 80040a2:	f8d4 2080 	ldr.w	r2, [r4, #128]	; 0x80
 80040a6:	6813      	ldr	r3, [r2, #0]
 80040a8:	685b      	ldr	r3, [r3, #4]
 80040aa:	b29b      	uxth	r3, r3
      if ((nb_remaining_rx_data > 0U)
 80040ac:	2b00      	cmp	r3, #0
 80040ae:	f43f af49 	beq.w	8003f44 <HAL_UART_IRQHandler+0x88>
          && (nb_remaining_rx_data < huart->RxXferSize))
 80040b2:	f8b4 105c 	ldrh.w	r1, [r4, #92]	; 0x5c
 80040b6:	4299      	cmp	r1, r3
 80040b8:	f67f af44 	bls.w	8003f44 <HAL_UART_IRQHandler+0x88>
        huart->RxXferCount = nb_remaining_rx_data;
 80040bc:	f8a4 305e 	strh.w	r3, [r4, #94]	; 0x5e
        if (HAL_IS_BIT_CLR(huart->hdmarx->Instance->CCR, DMA_CCR_CIRC))
 80040c0:	6813      	ldr	r3, [r2, #0]
 80040c2:	681b      	ldr	r3, [r3, #0]
 80040c4:	f013 0f20 	tst.w	r3, #32
 80040c8:	d132      	bne.n	8004130 <HAL_UART_IRQHandler+0x274>
          ATOMIC_CLEAR_BIT(huart->Instance->CR1, USART_CR1_PEIE);
 80040ca:	6822      	ldr	r2, [r4, #0]
   __ASM volatile ("ldrex %0, %1" : "=r" (result) : "Q" (*addr) );
 80040cc:	e852 3f00 	ldrex	r3, [r2]
 80040d0:	f423 7380 	bic.w	r3, r3, #256	; 0x100
   __ASM volatile ("strex %0, %2, %1" : "=&r" (result), "=Q" (*addr) : "r" (value) );
 80040d4:	e842 3100 	strex	r1, r3, [r2]
 80040d8:	2900      	cmp	r1, #0
 80040da:	d1f6      	bne.n	80040ca <HAL_UART_IRQHandler+0x20e>
          ATOMIC_CLEAR_BIT(huart->Instance->CR3, USART_CR3_EIE);
 80040dc:	6822      	ldr	r2, [r4, #0]
   __ASM volatile ("ldrex %0, %1" : "=r" (result) : "Q" (*addr) );
 80040de:	f102 0308 	add.w	r3, r2, #8
 80040e2:	e853 3f00 	ldrex	r3, [r3]
 80040e6:	f023 0301 	bic.w	r3, r3, #1
   __ASM volatile ("strex %0, %2, %1" : "=&r" (result), "=Q" (*addr) : "r" (value) );
 80040ea:	3208      	adds	r2, #8
 80040ec:	e842 3100 	strex	r1, r3, [r2]
 80040f0:	2900      	cmp	r1, #0
 80040f2:	d1f3      	bne.n	80040dc <HAL_UART_IRQHandler+0x220>
          ATOMIC_CLEAR_BIT(huart->Instance->CR3, USART_CR3_DMAR);
 80040f4:	6822      	ldr	r2, [r4, #0]
   __ASM volatile ("ldrex %0, %1" : "=r" (result) : "Q" (*addr) );
 80040f6:	f102 0308 	add.w	r3, r2, #8
 80040fa:	e853 3f00 	ldrex	r3, [r3]
 80040fe:	f023 0340 	bic.w	r3, r3, #64	; 0x40
   __ASM volatile ("strex %0, %2, %1" : "=&r" (result), "=Q" (*addr) : "r" (value) );
 8004102:	3208      	adds	r2, #8
 8004104:	e842 3100 	strex	r1, r3, [r2]
 8004108:	2900      	cmp	r1, #0
 800410a:	d1f3      	bne.n	80040f4 <HAL_UART_IRQHandler+0x238>
          huart->RxState = HAL_UART_STATE_READY;
 800410c:	2320      	movs	r3, #32
 800410e:	f8c4 308c 	str.w	r3, [r4, #140]	; 0x8c
          huart->ReceptionType = HAL_UART_RECEPTION_STANDARD;
 8004112:	2300      	movs	r3, #0
 8004114:	66e3      	str	r3, [r4, #108]	; 0x6c
          ATOMIC_CLEAR_BIT(huart->Instance->CR1, USART_CR1_IDLEIE);
 8004116:	6822      	ldr	r2, [r4, #0]
   __ASM volatile ("ldrex %0, %1" : "=r" (result) : "Q" (*addr) );
 8004118:	e852 3f00 	ldrex	r3, [r2]
 800411c:	f023 0310 	bic.w	r3, r3, #16
   __ASM volatile ("strex %0, %2, %1" : "=&r" (result), "=Q" (*addr) : "r" (value) );
 8004120:	e842 3100 	strex	r1, r3, [r2]
 8004124:	2900      	cmp	r1, #0
 8004126:	d1f6      	bne.n	8004116 <HAL_UART_IRQHandler+0x25a>
          (void)HAL_DMA_Abort(huart->hdmarx);
 8004128:	f8d4 0080 	ldr.w	r0, [r4, #128]	; 0x80
 800412c:	f7fd fe10 	bl	8001d50 <HAL_DMA_Abort>
        huart->RxEventType = HAL_UART_RXEVENT_IDLE;
 8004130:	2302      	movs	r3, #2
 8004132:	6723      	str	r3, [r4, #112]	; 0x70
        HAL_UARTEx_RxEventCallback(huart, (huart->RxXferSize - huart->RxXferCount));
 8004134:	f8b4 105c 	ldrh.w	r1, [r4, #92]	; 0x5c
 8004138:	f8b4 305e 	ldrh.w	r3, [r4, #94]	; 0x5e
 800413c:	b29b      	uxth	r3, r3
 800413e:	1ac9      	subs	r1, r1, r3
 8004140:	b289      	uxth	r1, r1
 8004142:	4620      	mov	r0, r4
 8004144:	f7ff feb9 	bl	8003eba <HAL_UARTEx_RxEventCallback>
      return;
 8004148:	e6fc      	b.n	8003f44 <HAL_UART_IRQHandler+0x88>
 800414a:	bf00      	nop
 800414c:	10000001 	.word	0x10000001
 8004150:	04000120 	.word	0x04000120
 8004154:	08003ea7 	.word	0x08003ea7
      uint16_t nb_rx_data = huart->RxXferSize - huart->RxXferCount;
 8004158:	f8b4 105c 	ldrh.w	r1, [r4, #92]	; 0x5c
 800415c:	f8b4 305e 	ldrh.w	r3, [r4, #94]	; 0x5e
 8004160:	b29b      	uxth	r3, r3
 8004162:	1ac9      	subs	r1, r1, r3
 8004164:	b289      	uxth	r1, r1
      if ((huart->RxXferCount > 0U)
 8004166:	f8b4 305e 	ldrh.w	r3, [r4, #94]	; 0x5e
 800416a:	b29b      	uxth	r3, r3
 800416c:	2b00      	cmp	r3, #0
 800416e:	f43f aee9 	beq.w	8003f44 <HAL_UART_IRQHandler+0x88>
          && (nb_rx_data > 0U))
 8004172:	2900      	cmp	r1, #0
 8004174:	f43f aee6 	beq.w	8003f44 <HAL_UART_IRQHandler+0x88>
        ATOMIC_CLEAR_BIT(huart->Instance->CR1, (USART_CR1_RXNEIE_RXFNEIE | USART_CR1_PEIE));
 8004178:	6822      	ldr	r2, [r4, #0]
   __ASM volatile ("ldrex %0, %1" : "=r" (result) : "Q" (*addr) );
 800417a:	e852 3f00 	ldrex	r3, [r2]
 800417e:	f423 7390 	bic.w	r3, r3, #288	; 0x120
   __ASM volatile ("strex %0, %2, %1" : "=&r" (result), "=Q" (*addr) : "r" (value) );
 8004182:	e842 3000 	strex	r0, r3, [r2]
 8004186:	2800      	cmp	r0, #0
 8004188:	d1f6      	bne.n	8004178 <HAL_UART_IRQHandler+0x2bc>
        ATOMIC_CLEAR_BIT(huart->Instance->CR3, (USART_CR3_EIE | USART_CR3_RXFTIE));
 800418a:	6822      	ldr	r2, [r4, #0]
   __ASM volatile ("ldrex %0, %1" : "=r" (result) : "Q" (*addr) );
 800418c:	f102 0308 	add.w	r3, r2, #8
 8004190:	e853 3f00 	ldrex	r3, [r3]
 8004194:	f023 5380 	bic.w	r3, r3, #268435456	; 0x10000000
 8004198:	f023 0301 	bic.w	r3, r3, #1
   __ASM volatile ("strex %0, %2, %1" : "=&r" (result), "=Q" (*addr) : "r" (value) );
 800419c:	3208      	adds	r2, #8
 800419e:	e842 3000 	strex	r0, r3, [r2]
 80041a2:	2800      	cmp	r0, #0
 80041a4:	d1f1      	bne.n	800418a <HAL_UART_IRQHandler+0x2ce>
        huart->RxState = HAL_UART_STATE_READY;
 80041a6:	2320      	movs	r3, #32
 80041a8:	f8c4 308c 	str.w	r3, [r4, #140]	; 0x8c
        huart->ReceptionType = HAL_UART_RECEPTION_STANDARD;
 80041ac:	2300      	movs	r3, #0
 80041ae:	66e3      	str	r3, [r4, #108]	; 0x6c
        huart->RxISR = NULL;
 80041b0:	6763      	str	r3, [r4, #116]	; 0x74
        ATOMIC_CLEAR_BIT(huart->Instance->CR1, USART_CR1_IDLEIE);
 80041b2:	6822      	ldr	r2, [r4, #0]
   __ASM volatile ("ldrex %0, %1" : "=r" (result) : "Q" (*addr) );
 80041b4:	e852 3f00 	ldrex	r3, [r2]
 80041b8:	f023 0310 	bic.w	r3, r3, #16
   __ASM volatile ("strex %0, %2, %1" : "=&r" (result), "=Q" (*addr) : "r" (value) );
 80041bc:	e842 3000 	strex	r0, r3, [r2]
 80041c0:	2800      	cmp	r0, #0
 80041c2:	d1f6      	bne.n	80041b2 <HAL_UART_IRQHandler+0x2f6>
        huart->RxEventType = HAL_UART_RXEVENT_IDLE;
 80041c4:	2302      	movs	r3, #2
 80041c6:	6723      	str	r3, [r4, #112]	; 0x70
        HAL_UARTEx_RxEventCallback(huart, nb_rx_data);
 80041c8:	4620      	mov	r0, r4
 80041ca:	f7ff fe76 	bl	8003eba <HAL_UARTEx_RxEventCallback>
      return;
 80041ce:	e6b9      	b.n	8003f44 <HAL_UART_IRQHandler+0x88>
    __HAL_UART_CLEAR_FLAG(huart, UART_CLEAR_WUF);
 80041d0:	f44f 1380 	mov.w	r3, #1048576	; 0x100000
 80041d4:	620b      	str	r3, [r1, #32]
    HAL_UARTEx_WakeupCallback(huart);
 80041d6:	4620      	mov	r0, r4
 80041d8:	f000 fe60 	bl	8004e9c <HAL_UARTEx_WakeupCallback>
    return;
 80041dc:	e6b2      	b.n	8003f44 <HAL_UART_IRQHandler+0x88>
    if (huart->TxISR != NULL)
 80041de:	6fa3      	ldr	r3, [r4, #120]	; 0x78
 80041e0:	2b00      	cmp	r3, #0
 80041e2:	f43f aeaf 	beq.w	8003f44 <HAL_UART_IRQHandler+0x88>
      huart->TxISR(huart);
 80041e6:	4620      	mov	r0, r4
 80041e8:	4798      	blx	r3
    return;
 80041ea:	e6ab      	b.n	8003f44 <HAL_UART_IRQHandler+0x88>
    UART_EndTransmit_IT(huart);
 80041ec:	4620      	mov	r0, r4
 80041ee:	f7ff fe15 	bl	8003e1c <UART_EndTransmit_IT>
    return;
 80041f2:	e6a7      	b.n	8003f44 <HAL_UART_IRQHandler+0x88>
    HAL_UARTEx_TxFifoEmptyCallback(huart);
 80041f4:	4620      	mov	r0, r4
 80041f6:	f000 fe53 	bl	8004ea0 <HAL_UARTEx_TxFifoEmptyCallback>
    return;
 80041fa:	e6a3      	b.n	8003f44 <HAL_UART_IRQHandler+0x88>
    HAL_UARTEx_RxFifoFullCallback(huart);
 80041fc:	4620      	mov	r0, r4
 80041fe:	f000 fe4e 	bl	8004e9e <HAL_UARTEx_RxFifoFullCallback>
    return;
 8004202:	e69f      	b.n	8003f44 <HAL_UART_IRQHandler+0x88>

08004204 <UART_RxISR_8BIT>:
  * @brief RX interrupt handler for 7 or 8 bits data word length .
  * @param huart UART handle.
  * @retval None
  */
static void UART_RxISR_8BIT(UART_HandleTypeDef *huart)
{
 8004204:	b508      	push	{r3, lr}
  uint16_t uhMask = huart->Mask;
 8004206:	f8b0 3060 	ldrh.w	r3, [r0, #96]	; 0x60
  uint16_t  uhdata;

  /* Check that a Rx process is ongoing */
  if (huart->RxState == HAL_UART_STATE_BUSY_RX)
 800420a:	f8d0 208c 	ldr.w	r2, [r0, #140]	; 0x8c
 800420e:	2a22      	cmp	r2, #34	; 0x22
 8004210:	d005      	beq.n	800421e <UART_RxISR_8BIT+0x1a>
    }
  }
  else
  {
    /* Clear RXNE interrupt flag */
    __HAL_UART_SEND_REQ(huart, UART_RXDATA_FLUSH_REQUEST);
 8004212:	6802      	ldr	r2, [r0, #0]
 8004214:	6993      	ldr	r3, [r2, #24]
 8004216:	f043 0308 	orr.w	r3, r3, #8
 800421a:	6193      	str	r3, [r2, #24]
  }
}
 800421c:	bd08      	pop	{r3, pc}
    uhdata = (uint16_t) READ_REG(huart->Instance->RDR);
 800421e:	6802      	ldr	r2, [r0, #0]
 8004220:	6a51      	ldr	r1, [r2, #36]	; 0x24
    *huart->pRxBuffPtr = (uint8_t)(uhdata & (uint8_t)uhMask);
 8004222:	b2db      	uxtb	r3, r3
 8004224:	6d82      	ldr	r2, [r0, #88]	; 0x58
 8004226:	400b      	ands	r3, r1
 8004228:	7013      	strb	r3, [r2, #0]
    huart->pRxBuffPtr++;
 800422a:	6d83      	ldr	r3, [r0, #88]	; 0x58
 800422c:	3301      	adds	r3, #1
 800422e:	6583      	str	r3, [r0, #88]	; 0x58
    huart->RxXferCount--;
 8004230:	f8b0 305e 	ldrh.w	r3, [r0, #94]	; 0x5e
 8004234:	b29b      	uxth	r3, r3
 8004236:	3b01      	subs	r3, #1
 8004238:	b29b      	uxth	r3, r3
 800423a:	f8a0 305e 	strh.w	r3, [r0, #94]	; 0x5e
    if (huart->RxXferCount == 0U)
 800423e:	f8b0 305e 	ldrh.w	r3, [r0, #94]	; 0x5e
 8004242:	b29b      	uxth	r3, r3
 8004244:	2b00      	cmp	r3, #0
 8004246:	d1e9      	bne.n	800421c <UART_RxISR_8BIT+0x18>
      ATOMIC_CLEAR_BIT(huart->Instance->CR1, (USART_CR1_RXNEIE_RXFNEIE | USART_CR1_PEIE));
 8004248:	6802      	ldr	r2, [r0, #0]
   __ASM volatile ("ldrex %0, %1" : "=r" (result) : "Q" (*addr) );
 800424a:	e852 3f00 	ldrex	r3, [r2]
 800424e:	f423 7390 	bic.w	r3, r3, #288	; 0x120
   __ASM volatile ("strex %0, %2, %1" : "=&r" (result), "=Q" (*addr) : "r" (value) );
 8004252:	e842 3100 	strex	r1, r3, [r2]
 8004256:	2900      	cmp	r1, #0
 8004258:	d1f6      	bne.n	8004248 <UART_RxISR_8BIT+0x44>
      ATOMIC_CLEAR_BIT(huart->Instance->CR3, USART_CR3_EIE);
 800425a:	6802      	ldr	r2, [r0, #0]
   __ASM volatile ("ldrex %0, %1" : "=r" (result) : "Q" (*addr) );
 800425c:	f102 0308 	add.w	r3, r2, #8
 8004260:	e853 3f00 	ldrex	r3, [r3]
 8004264:	f023 0301 	bic.w	r3, r3, #1
   __ASM volatile ("strex %0, %2, %1" : "=&r" (result), "=Q" (*addr) : "r" (value) );
 8004268:	3208      	adds	r2, #8
 800426a:	e842 3100 	strex	r1, r3, [r2]
 800426e:	2900      	cmp	r1, #0
 8004270:	d1f3      	bne.n	800425a <UART_RxISR_8BIT+0x56>
      huart->RxState = HAL_UART_STATE_READY;
 8004272:	2320      	movs	r3, #32
 8004274:	f8c0 308c 	str.w	r3, [r0, #140]	; 0x8c
      huart->RxISR = NULL;
 8004278:	2300      	movs	r3, #0
 800427a:	6743      	str	r3, [r0, #116]	; 0x74
      huart->RxEventType = HAL_UART_RXEVENT_TC;
 800427c:	6703      	str	r3, [r0, #112]	; 0x70
      if (!(IS_LPUART_INSTANCE(huart->Instance)))
 800427e:	6803      	ldr	r3, [r0, #0]
 8004280:	4a16      	ldr	r2, [pc, #88]	; (80042dc <UART_RxISR_8BIT+0xd8>)
 8004282:	4293      	cmp	r3, r2
 8004284:	d00c      	beq.n	80042a0 <UART_RxISR_8BIT+0x9c>
        if (READ_BIT(huart->Instance->CR2, USART_CR2_RTOEN) != 0U)
 8004286:	685b      	ldr	r3, [r3, #4]
 8004288:	f413 0f00 	tst.w	r3, #8388608	; 0x800000
 800428c:	d008      	beq.n	80042a0 <UART_RxISR_8BIT+0x9c>
          ATOMIC_CLEAR_BIT(huart->Instance->CR1, USART_CR1_RTOIE);
 800428e:	6802      	ldr	r2, [r0, #0]
   __ASM volatile ("ldrex %0, %1" : "=r" (result) : "Q" (*addr) );
 8004290:	e852 3f00 	ldrex	r3, [r2]
 8004294:	f023 6380 	bic.w	r3, r3, #67108864	; 0x4000000
   __ASM volatile ("strex %0, %2, %1" : "=&r" (result), "=Q" (*addr) : "r" (value) );
 8004298:	e842 3100 	strex	r1, r3, [r2]
 800429c:	2900      	cmp	r1, #0
 800429e:	d1f6      	bne.n	800428e <UART_RxISR_8BIT+0x8a>
      if (huart->ReceptionType == HAL_UART_RECEPTION_TOIDLE)
 80042a0:	6ec3      	ldr	r3, [r0, #108]	; 0x6c
 80042a2:	2b01      	cmp	r3, #1
 80042a4:	d116      	bne.n	80042d4 <UART_RxISR_8BIT+0xd0>
        huart->ReceptionType = HAL_UART_RECEPTION_STANDARD;
 80042a6:	2300      	movs	r3, #0
 80042a8:	66c3      	str	r3, [r0, #108]	; 0x6c
        ATOMIC_CLEAR_BIT(huart->Instance->CR1, USART_CR1_IDLEIE);
 80042aa:	6802      	ldr	r2, [r0, #0]
   __ASM volatile ("ldrex %0, %1" : "=r" (result) : "Q" (*addr) );
 80042ac:	e852 3f00 	ldrex	r3, [r2]
 80042b0:	f023 0310 	bic.w	r3, r3, #16
   __ASM volatile ("strex %0, %2, %1" : "=&r" (result), "=Q" (*addr) : "r" (value) );
 80042b4:	e842 3100 	strex	r1, r3, [r2]
 80042b8:	2900      	cmp	r1, #0
 80042ba:	d1f6      	bne.n	80042aa <UART_RxISR_8BIT+0xa6>
        if (__HAL_UART_GET_FLAG(huart, UART_FLAG_IDLE) == SET)
 80042bc:	6803      	ldr	r3, [r0, #0]
 80042be:	69da      	ldr	r2, [r3, #28]
 80042c0:	f012 0f10 	tst.w	r2, #16
 80042c4:	d001      	beq.n	80042ca <UART_RxISR_8BIT+0xc6>
          __HAL_UART_CLEAR_FLAG(huart, UART_CLEAR_IDLEF);
 80042c6:	2210      	movs	r2, #16
 80042c8:	621a      	str	r2, [r3, #32]
        HAL_UARTEx_RxEventCallback(huart, huart->RxXferSize);
 80042ca:	f8b0 105c 	ldrh.w	r1, [r0, #92]	; 0x5c
 80042ce:	f7ff fdf4 	bl	8003eba <HAL_UARTEx_RxEventCallback>
 80042d2:	e7a3      	b.n	800421c <UART_RxISR_8BIT+0x18>
        HAL_UART_RxCpltCallback(huart);
 80042d4:	f7fc fec6 	bl	8001064 <HAL_UART_RxCpltCallback>
 80042d8:	e7a0      	b.n	800421c <UART_RxISR_8BIT+0x18>
 80042da:	bf00      	nop
 80042dc:	40008000 	.word	0x40008000

080042e0 <UART_RxISR_16BIT>:
  *         interruptions have been enabled by HAL_UART_Receive_IT()
  * @param huart UART handle.
  * @retval None
  */
static void UART_RxISR_16BIT(UART_HandleTypeDef *huart)
{
 80042e0:	b508      	push	{r3, lr}
  uint16_t *tmp;
  uint16_t uhMask = huart->Mask;
 80042e2:	f8b0 2060 	ldrh.w	r2, [r0, #96]	; 0x60
  uint16_t  uhdata;

  /* Check that a Rx process is ongoing */
  if (huart->RxState == HAL_UART_STATE_BUSY_RX)
 80042e6:	f8d0 308c 	ldr.w	r3, [r0, #140]	; 0x8c
 80042ea:	2b22      	cmp	r3, #34	; 0x22
 80042ec:	d005      	beq.n	80042fa <UART_RxISR_16BIT+0x1a>
    }
  }
  else
  {
    /* Clear RXNE interrupt flag */
    __HAL_UART_SEND_REQ(huart, UART_RXDATA_FLUSH_REQUEST);
 80042ee:	6802      	ldr	r2, [r0, #0]
 80042f0:	6993      	ldr	r3, [r2, #24]
 80042f2:	f043 0308 	orr.w	r3, r3, #8
 80042f6:	6193      	str	r3, [r2, #24]
  }
}
 80042f8:	bd08      	pop	{r3, pc}
    uhdata = (uint16_t) READ_REG(huart->Instance->RDR);
 80042fa:	6803      	ldr	r3, [r0, #0]
 80042fc:	6a5b      	ldr	r3, [r3, #36]	; 0x24
    tmp = (uint16_t *) huart->pRxBuffPtr ;
 80042fe:	6d81      	ldr	r1, [r0, #88]	; 0x58
    *tmp = (uint16_t)(uhdata & uhMask);
 8004300:	4013      	ands	r3, r2
 8004302:	800b      	strh	r3, [r1, #0]
    huart->pRxBuffPtr += 2U;
 8004304:	6d83      	ldr	r3, [r0, #88]	; 0x58
 8004306:	3302      	adds	r3, #2
 8004308:	6583      	str	r3, [r0, #88]	; 0x58
    huart->RxXferCount--;
 800430a:	f8b0 305e 	ldrh.w	r3, [r0, #94]	; 0x5e
 800430e:	b29b      	uxth	r3, r3
 8004310:	3b01      	subs	r3, #1
 8004312:	b29b      	uxth	r3, r3
 8004314:	f8a0 305e 	strh.w	r3, [r0, #94]	; 0x5e
    if (huart->RxXferCount == 0U)
 8004318:	f8b0 305e 	ldrh.w	r3, [r0, #94]	; 0x5e
 800431c:	b29b      	uxth	r3, r3
 800431e:	2b00      	cmp	r3, #0
 8004320:	d1ea      	bne.n	80042f8 <UART_RxISR_16BIT+0x18>
      ATOMIC_CLEAR_BIT(huart->Instance->CR1, (USART_CR1_RXNEIE_RXFNEIE | USART_CR1_PEIE));
 8004322:	6802      	ldr	r2, [r0, #0]
   __ASM volatile ("ldrex %0, %1" : "=r" (result) : "Q" (*addr) );
 8004324:	e852 3f00 	ldrex	r3, [r2]
 8004328:	f423 7390 	bic.w	r3, r3, #288	; 0x120
   __ASM volatile ("strex %0, %2, %1" : "=&r" (result), "=Q" (*addr) : "r" (value) );
 800432c:	e842 3100 	strex	r1, r3, [r2]
 8004330:	2900      	cmp	r1, #0
 8004332:	d1f6      	bne.n	8004322 <UART_RxISR_16BIT+0x42>
      ATOMIC_CLEAR_BIT(huart->Instance->CR3, USART_CR3_EIE);
 8004334:	6802      	ldr	r2, [r0, #0]
   __ASM volatile ("ldrex %0, %1" : "=r" (result) : "Q" (*addr) );
 8004336:	f102 0308 	add.w	r3, r2, #8
 800433a:	e853 3f00 	ldrex	r3, [r3]
 800433e:	f023 0301 	bic.w	r3, r3, #1
   __ASM volatile ("strex %0, %2, %1" : "=&r" (result), "=Q" (*addr) : "r" (value) );
 8004342:	3208      	adds	r2, #8
 8004344:	e842 3100 	strex	r1, r3, [r2]
 8004348:	2900      	cmp	r1, #0
 800434a:	d1f3      	bne.n	8004334 <UART_RxISR_16BIT+0x54>
      huart->RxState = HAL_UART_STATE_READY;
 800434c:	2320      	movs	r3, #32
 800434e:	f8c0 308c 	str.w	r3, [r0, #140]	; 0x8c
      huart->RxISR = NULL;
 8004352:	2300      	movs	r3, #0
 8004354:	6743      	str	r3, [r0, #116]	; 0x74
      huart->RxEventType = HAL_UART_RXEVENT_TC;
 8004356:	6703      	str	r3, [r0, #112]	; 0x70
      if (!(IS_LPUART_INSTANCE(huart->Instance)))
 8004358:	6803      	ldr	r3, [r0, #0]
 800435a:	4a16      	ldr	r2, [pc, #88]	; (80043b4 <UART_RxISR_16BIT+0xd4>)
 800435c:	4293      	cmp	r3, r2
 800435e:	d00c      	beq.n	800437a <UART_RxISR_16BIT+0x9a>
        if (READ_BIT(huart->Instance->CR2, USART_CR2_RTOEN) != 0U)
 8004360:	685b      	ldr	r3, [r3, #4]
 8004362:	f413 0f00 	tst.w	r3, #8388608	; 0x800000
 8004366:	d008      	beq.n	800437a <UART_RxISR_16BIT+0x9a>
          ATOMIC_CLEAR_BIT(huart->Instance->CR1, USART_CR1_RTOIE);
 8004368:	6802      	ldr	r2, [r0, #0]
   __ASM volatile ("ldrex %0, %1" : "=r" (result) : "Q" (*addr) );
 800436a:	e852 3f00 	ldrex	r3, [r2]
 800436e:	f023 6380 	bic.w	r3, r3, #67108864	; 0x4000000
   __ASM volatile ("strex %0, %2, %1" : "=&r" (result), "=Q" (*addr) : "r" (value) );
 8004372:	e842 3100 	strex	r1, r3, [r2]
 8004376:	2900      	cmp	r1, #0
 8004378:	d1f6      	bne.n	8004368 <UART_RxISR_16BIT+0x88>
      if (huart->ReceptionType == HAL_UART_RECEPTION_TOIDLE)
 800437a:	6ec3      	ldr	r3, [r0, #108]	; 0x6c
 800437c:	2b01      	cmp	r3, #1
 800437e:	d116      	bne.n	80043ae <UART_RxISR_16BIT+0xce>
        huart->ReceptionType = HAL_UART_RECEPTION_STANDARD;
 8004380:	2300      	movs	r3, #0
 8004382:	66c3      	str	r3, [r0, #108]	; 0x6c
        ATOMIC_CLEAR_BIT(huart->Instance->CR1, USART_CR1_IDLEIE);
 8004384:	6802      	ldr	r2, [r0, #0]
   __ASM volatile ("ldrex %0, %1" : "=r" (result) : "Q" (*addr) );
 8004386:	e852 3f00 	ldrex	r3, [r2]
 800438a:	f023 0310 	bic.w	r3, r3, #16
   __ASM volatile ("strex %0, %2, %1" : "=&r" (result), "=Q" (*addr) : "r" (value) );
 800438e:	e842 3100 	strex	r1, r3, [r2]
 8004392:	2900      	cmp	r1, #0
 8004394:	d1f6      	bne.n	8004384 <UART_RxISR_16BIT+0xa4>
        if (__HAL_UART_GET_FLAG(huart, UART_FLAG_IDLE) == SET)
 8004396:	6803      	ldr	r3, [r0, #0]
 8004398:	69da      	ldr	r2, [r3, #28]
 800439a:	f012 0f10 	tst.w	r2, #16
 800439e:	d001      	beq.n	80043a4 <UART_RxISR_16BIT+0xc4>
          __HAL_UART_CLEAR_FLAG(huart, UART_CLEAR_IDLEF);
 80043a0:	2210      	movs	r2, #16
 80043a2:	621a      	str	r2, [r3, #32]
        HAL_UARTEx_RxEventCallback(huart, huart->RxXferSize);
 80043a4:	f8b0 105c 	ldrh.w	r1, [r0, #92]	; 0x5c
 80043a8:	f7ff fd87 	bl	8003eba <HAL_UARTEx_RxEventCallback>
 80043ac:	e7a4      	b.n	80042f8 <UART_RxISR_16BIT+0x18>
        HAL_UART_RxCpltCallback(huart);
 80043ae:	f7fc fe59 	bl	8001064 <HAL_UART_RxCpltCallback>
 80043b2:	e7a1      	b.n	80042f8 <UART_RxISR_16BIT+0x18>
 80043b4:	40008000 	.word	0x40008000

080043b8 <UART_RxISR_8BIT_FIFOEN>:
  *         interruptions have been enabled by HAL_UART_Receive_IT()
  * @param huart UART handle.
  * @retval None
  */
static void UART_RxISR_8BIT_FIFOEN(UART_HandleTypeDef *huart)
{
 80043b8:	e92d 43f8 	stmdb	sp!, {r3, r4, r5, r6, r7, r8, r9, lr}
  uint16_t  uhMask = huart->Mask;
 80043bc:	f8b0 6060 	ldrh.w	r6, [r0, #96]	; 0x60
  uint16_t  uhdata;
  uint16_t  nb_rx_data;
  uint16_t  rxdatacount;
  uint32_t  isrflags = READ_REG(huart->Instance->ISR);
 80043c0:	6803      	ldr	r3, [r0, #0]
 80043c2:	69dd      	ldr	r5, [r3, #28]
  uint32_t  cr1its   = READ_REG(huart->Instance->CR1);
 80043c4:	f8d3 9000 	ldr.w	r9, [r3]
  uint32_t  cr3its   = READ_REG(huart->Instance->CR3);
 80043c8:	f8d3 8008 	ldr.w	r8, [r3, #8]

  /* Check that a Rx process is ongoing */
  if (huart->RxState == HAL_UART_STATE_BUSY_RX)
 80043cc:	f8d0 208c 	ldr.w	r2, [r0, #140]	; 0x8c
 80043d0:	2a22      	cmp	r2, #34	; 0x22
 80043d2:	d005      	beq.n	80043e0 <UART_RxISR_8BIT_FIFOEN+0x28>
    }
  }
  else
  {
    /* Clear RXNE interrupt flag */
    __HAL_UART_SEND_REQ(huart, UART_RXDATA_FLUSH_REQUEST);
 80043d4:	699a      	ldr	r2, [r3, #24]
 80043d6:	f042 0208 	orr.w	r2, r2, #8
 80043da:	619a      	str	r2, [r3, #24]
  }
}
 80043dc:	e8bd 83f8 	ldmia.w	sp!, {r3, r4, r5, r6, r7, r8, r9, pc}
 80043e0:	4604      	mov	r4, r0
    nb_rx_data = huart->NbRxDataToProcess;
 80043e2:	f8b0 7068 	ldrh.w	r7, [r0, #104]	; 0x68
    while ((nb_rx_data > 0U) && ((isrflags & USART_ISR_RXNE_RXFNE) != 0U))
 80043e6:	e008      	b.n	80043fa <UART_RxISR_8BIT_FIFOEN+0x42>
        if (huart->ErrorCode != HAL_UART_ERROR_NONE)
 80043e8:	f8d4 3090 	ldr.w	r3, [r4, #144]	; 0x90
 80043ec:	2b00      	cmp	r3, #0
 80043ee:	d14c      	bne.n	800448a <UART_RxISR_8BIT_FIFOEN+0xd2>
      if (huart->RxXferCount == 0U)
 80043f0:	f8b4 305e 	ldrh.w	r3, [r4, #94]	; 0x5e
 80043f4:	b29b      	uxth	r3, r3
 80043f6:	2b00      	cmp	r3, #0
 80043f8:	d04e      	beq.n	8004498 <UART_RxISR_8BIT_FIFOEN+0xe0>
    while ((nb_rx_data > 0U) && ((isrflags & USART_ISR_RXNE_RXFNE) != 0U))
 80043fa:	2f00      	cmp	r7, #0
 80043fc:	f000 809a 	beq.w	8004534 <UART_RxISR_8BIT_FIFOEN+0x17c>
 8004400:	f015 0f20 	tst.w	r5, #32
 8004404:	f000 8096 	beq.w	8004534 <UART_RxISR_8BIT_FIFOEN+0x17c>
      uhdata = (uint16_t) READ_REG(huart->Instance->RDR);
 8004408:	6823      	ldr	r3, [r4, #0]
 800440a:	6a59      	ldr	r1, [r3, #36]	; 0x24
      *huart->pRxBuffPtr = (uint8_t)(uhdata & (uint8_t)uhMask);
 800440c:	b2f3      	uxtb	r3, r6
 800440e:	6da2      	ldr	r2, [r4, #88]	; 0x58
 8004410:	400b      	ands	r3, r1
 8004412:	7013      	strb	r3, [r2, #0]
      huart->pRxBuffPtr++;
 8004414:	6da3      	ldr	r3, [r4, #88]	; 0x58
 8004416:	3301      	adds	r3, #1
 8004418:	65a3      	str	r3, [r4, #88]	; 0x58
      huart->RxXferCount--;
 800441a:	f8b4 305e 	ldrh.w	r3, [r4, #94]	; 0x5e
 800441e:	b29b      	uxth	r3, r3
 8004420:	3b01      	subs	r3, #1
 8004422:	b29b      	uxth	r3, r3
 8004424:	f8a4 305e 	strh.w	r3, [r4, #94]	; 0x5e
      isrflags = READ_REG(huart->Instance->ISR);
 8004428:	6823      	ldr	r3, [r4, #0]
 800442a:	69dd      	ldr	r5, [r3, #28]
      if ((isrflags & (USART_ISR_PE | USART_ISR_FE | USART_ISR_NE)) != 0U)
 800442c:	f015 0f07 	tst.w	r5, #7
 8004430:	d0de      	beq.n	80043f0 <UART_RxISR_8BIT_FIFOEN+0x38>
        if (((isrflags & USART_ISR_PE) != 0U) && ((cr1its & USART_CR1_PEIE) != 0U))
 8004432:	f015 0f01 	tst.w	r5, #1
 8004436:	d009      	beq.n	800444c <UART_RxISR_8BIT_FIFOEN+0x94>
 8004438:	f419 7f80 	tst.w	r9, #256	; 0x100
 800443c:	d006      	beq.n	800444c <UART_RxISR_8BIT_FIFOEN+0x94>
          __HAL_UART_CLEAR_FLAG(huart, UART_CLEAR_PEF);
 800443e:	2201      	movs	r2, #1
 8004440:	621a      	str	r2, [r3, #32]
          huart->ErrorCode |= HAL_UART_ERROR_PE;
 8004442:	f8d4 3090 	ldr.w	r3, [r4, #144]	; 0x90
 8004446:	4313      	orrs	r3, r2
 8004448:	f8c4 3090 	str.w	r3, [r4, #144]	; 0x90
        if (((isrflags & USART_ISR_FE) != 0U) && ((cr3its & USART_CR3_EIE) != 0U))
 800444c:	f015 0f02 	tst.w	r5, #2
 8004450:	d00b      	beq.n	800446a <UART_RxISR_8BIT_FIFOEN+0xb2>
 8004452:	f018 0f01 	tst.w	r8, #1
 8004456:	d008      	beq.n	800446a <UART_RxISR_8BIT_FIFOEN+0xb2>
          __HAL_UART_CLEAR_FLAG(huart, UART_CLEAR_FEF);
 8004458:	6823      	ldr	r3, [r4, #0]
 800445a:	2202      	movs	r2, #2
 800445c:	621a      	str	r2, [r3, #32]
          huart->ErrorCode |= HAL_UART_ERROR_FE;
 800445e:	f8d4 3090 	ldr.w	r3, [r4, #144]	; 0x90
 8004462:	f043 0304 	orr.w	r3, r3, #4
 8004466:	f8c4 3090 	str.w	r3, [r4, #144]	; 0x90
        if (((isrflags & USART_ISR_NE) != 0U) && ((cr3its & USART_CR3_EIE) != 0U))
 800446a:	f015 0f04 	tst.w	r5, #4
 800446e:	d0bb      	beq.n	80043e8 <UART_RxISR_8BIT_FIFOEN+0x30>
 8004470:	f018 0f01 	tst.w	r8, #1
 8004474:	d0b8      	beq.n	80043e8 <UART_RxISR_8BIT_FIFOEN+0x30>
          __HAL_UART_CLEAR_FLAG(huart, UART_CLEAR_NEF);
 8004476:	6823      	ldr	r3, [r4, #0]
 8004478:	2204      	movs	r2, #4
 800447a:	621a      	str	r2, [r3, #32]
          huart->ErrorCode |= HAL_UART_ERROR_NE;
 800447c:	f8d4 3090 	ldr.w	r3, [r4, #144]	; 0x90
 8004480:	f043 0302 	orr.w	r3, r3, #2
 8004484:	f8c4 3090 	str.w	r3, [r4, #144]	; 0x90
 8004488:	e7ae      	b.n	80043e8 <UART_RxISR_8BIT_FIFOEN+0x30>
          HAL_UART_ErrorCallback(huart);
 800448a:	4620      	mov	r0, r4
 800448c:	f7ff fcde 	bl	8003e4c <HAL_UART_ErrorCallback>
          huart->ErrorCode = HAL_UART_ERROR_NONE;
 8004490:	2300      	movs	r3, #0
 8004492:	f8c4 3090 	str.w	r3, [r4, #144]	; 0x90
 8004496:	e7ab      	b.n	80043f0 <UART_RxISR_8BIT_FIFOEN+0x38>
        ATOMIC_CLEAR_BIT(huart->Instance->CR1, USART_CR1_PEIE);
 8004498:	6822      	ldr	r2, [r4, #0]
   __ASM volatile ("ldrex %0, %1" : "=r" (result) : "Q" (*addr) );
 800449a:	e852 3f00 	ldrex	r3, [r2]
 800449e:	f423 7380 	bic.w	r3, r3, #256	; 0x100
   __ASM volatile ("strex %0, %2, %1" : "=&r" (result), "=Q" (*addr) : "r" (value) );
 80044a2:	e842 3100 	strex	r1, r3, [r2]
 80044a6:	2900      	cmp	r1, #0
 80044a8:	d1f6      	bne.n	8004498 <UART_RxISR_8BIT_FIFOEN+0xe0>
        ATOMIC_CLEAR_BIT(huart->Instance->CR3, (USART_CR3_EIE | USART_CR3_RXFTIE));
 80044aa:	6822      	ldr	r2, [r4, #0]
   __ASM volatile ("ldrex %0, %1" : "=r" (result) : "Q" (*addr) );
 80044ac:	f102 0308 	add.w	r3, r2, #8
 80044b0:	e853 3f00 	ldrex	r3, [r3]
 80044b4:	f023 5380 	bic.w	r3, r3, #268435456	; 0x10000000
 80044b8:	f023 0301 	bic.w	r3, r3, #1
   __ASM volatile ("strex %0, %2, %1" : "=&r" (result), "=Q" (*addr) : "r" (value) );
 80044bc:	3208      	adds	r2, #8
 80044be:	e842 3100 	strex	r1, r3, [r2]
 80044c2:	2900      	cmp	r1, #0
 80044c4:	d1f1      	bne.n	80044aa <UART_RxISR_8BIT_FIFOEN+0xf2>
        huart->RxState = HAL_UART_STATE_READY;
 80044c6:	2320      	movs	r3, #32
 80044c8:	f8c4 308c 	str.w	r3, [r4, #140]	; 0x8c
        huart->RxISR = NULL;
 80044cc:	2300      	movs	r3, #0
 80044ce:	6763      	str	r3, [r4, #116]	; 0x74
        huart->RxEventType = HAL_UART_RXEVENT_TC;
 80044d0:	6723      	str	r3, [r4, #112]	; 0x70
        if (!(IS_LPUART_INSTANCE(huart->Instance)))
 80044d2:	6823      	ldr	r3, [r4, #0]
 80044d4:	4a29      	ldr	r2, [pc, #164]	; (800457c <UART_RxISR_8BIT_FIFOEN+0x1c4>)
 80044d6:	4293      	cmp	r3, r2
 80044d8:	d003      	beq.n	80044e2 <UART_RxISR_8BIT_FIFOEN+0x12a>
          if (READ_BIT(huart->Instance->CR2, USART_CR2_RTOEN) != 0U)
 80044da:	685b      	ldr	r3, [r3, #4]
 80044dc:	f413 0f00 	tst.w	r3, #8388608	; 0x800000
 80044e0:	d106      	bne.n	80044f0 <UART_RxISR_8BIT_FIFOEN+0x138>
        if (huart->ReceptionType == HAL_UART_RECEPTION_TOIDLE)
 80044e2:	6ee3      	ldr	r3, [r4, #108]	; 0x6c
 80044e4:	2b01      	cmp	r3, #1
 80044e6:	d00d      	beq.n	8004504 <UART_RxISR_8BIT_FIFOEN+0x14c>
          HAL_UART_RxCpltCallback(huart);
 80044e8:	4620      	mov	r0, r4
 80044ea:	f7fc fdbb 	bl	8001064 <HAL_UART_RxCpltCallback>
 80044ee:	e784      	b.n	80043fa <UART_RxISR_8BIT_FIFOEN+0x42>
            ATOMIC_CLEAR_BIT(huart->Instance->CR1, USART_CR1_RTOIE);
 80044f0:	6822      	ldr	r2, [r4, #0]
   __ASM volatile ("ldrex %0, %1" : "=r" (result) : "Q" (*addr) );
 80044f2:	e852 3f00 	ldrex	r3, [r2]
 80044f6:	f023 6380 	bic.w	r3, r3, #67108864	; 0x4000000
   __ASM volatile ("strex %0, %2, %1" : "=&r" (result), "=Q" (*addr) : "r" (value) );
 80044fa:	e842 3100 	strex	r1, r3, [r2]
 80044fe:	2900      	cmp	r1, #0
 8004500:	d1f6      	bne.n	80044f0 <UART_RxISR_8BIT_FIFOEN+0x138>
 8004502:	e7ee      	b.n	80044e2 <UART_RxISR_8BIT_FIFOEN+0x12a>
          huart->ReceptionType = HAL_UART_RECEPTION_STANDARD;
 8004504:	2300      	movs	r3, #0
 8004506:	66e3      	str	r3, [r4, #108]	; 0x6c
          ATOMIC_CLEAR_BIT(huart->Instance->CR1, USART_CR1_IDLEIE);
 8004508:	6822      	ldr	r2, [r4, #0]
   __ASM volatile ("ldrex %0, %1" : "=r" (result) : "Q" (*addr) );
 800450a:	e852 3f00 	ldrex	r3, [r2]
 800450e:	f023 0310 	bic.w	r3, r3, #16
   __ASM volatile ("strex %0, %2, %1" : "=&r" (result), "=Q" (*addr) : "r" (value) );
 8004512:	e842 3100 	strex	r1, r3, [r2]
 8004516:	2900      	cmp	r1, #0
 8004518:	d1f6      	bne.n	8004508 <UART_RxISR_8BIT_FIFOEN+0x150>
          if (__HAL_UART_GET_FLAG(huart, UART_FLAG_IDLE) == SET)
 800451a:	6823      	ldr	r3, [r4, #0]
 800451c:	69da      	ldr	r2, [r3, #28]
 800451e:	f012 0f10 	tst.w	r2, #16
 8004522:	d001      	beq.n	8004528 <UART_RxISR_8BIT_FIFOEN+0x170>
            __HAL_UART_CLEAR_FLAG(huart, UART_CLEAR_IDLEF);
 8004524:	2210      	movs	r2, #16
 8004526:	621a      	str	r2, [r3, #32]
          HAL_UARTEx_RxEventCallback(huart, huart->RxXferSize);
 8004528:	f8b4 105c 	ldrh.w	r1, [r4, #92]	; 0x5c
 800452c:	4620      	mov	r0, r4
 800452e:	f7ff fcc4 	bl	8003eba <HAL_UARTEx_RxEventCallback>
 8004532:	e762      	b.n	80043fa <UART_RxISR_8BIT_FIFOEN+0x42>
    rxdatacount = huart->RxXferCount;
 8004534:	f8b4 305e 	ldrh.w	r3, [r4, #94]	; 0x5e
 8004538:	b29b      	uxth	r3, r3
    if ((rxdatacount != 0U) && (rxdatacount < huart->NbRxDataToProcess))
 800453a:	2b00      	cmp	r3, #0
 800453c:	f43f af4e 	beq.w	80043dc <UART_RxISR_8BIT_FIFOEN+0x24>
 8004540:	f8b4 2068 	ldrh.w	r2, [r4, #104]	; 0x68
 8004544:	429a      	cmp	r2, r3
 8004546:	f67f af49 	bls.w	80043dc <UART_RxISR_8BIT_FIFOEN+0x24>
      ATOMIC_CLEAR_BIT(huart->Instance->CR3, USART_CR3_RXFTIE);
 800454a:	6822      	ldr	r2, [r4, #0]
   __ASM volatile ("ldrex %0, %1" : "=r" (result) : "Q" (*addr) );
 800454c:	f102 0308 	add.w	r3, r2, #8
 8004550:	e853 3f00 	ldrex	r3, [r3]
 8004554:	f023 5380 	bic.w	r3, r3, #268435456	; 0x10000000
   __ASM volatile ("strex %0, %2, %1" : "=&r" (result), "=Q" (*addr) : "r" (value) );
 8004558:	3208      	adds	r2, #8
 800455a:	e842 3100 	strex	r1, r3, [r2]
 800455e:	2900      	cmp	r1, #0
 8004560:	d1f3      	bne.n	800454a <UART_RxISR_8BIT_FIFOEN+0x192>
      huart->RxISR = UART_RxISR_8BIT;
 8004562:	4b07      	ldr	r3, [pc, #28]	; (8004580 <UART_RxISR_8BIT_FIFOEN+0x1c8>)
 8004564:	6763      	str	r3, [r4, #116]	; 0x74
      ATOMIC_SET_BIT(huart->Instance->CR1, USART_CR1_RXNEIE_RXFNEIE);
 8004566:	6822      	ldr	r2, [r4, #0]
   __ASM volatile ("ldrex %0, %1" : "=r" (result) : "Q" (*addr) );
 8004568:	e852 3f00 	ldrex	r3, [r2]
 800456c:	f043 0320 	orr.w	r3, r3, #32
   __ASM volatile ("strex %0, %2, %1" : "=&r" (result), "=Q" (*addr) : "r" (value) );
 8004570:	e842 3100 	strex	r1, r3, [r2]
 8004574:	2900      	cmp	r1, #0
 8004576:	d1f6      	bne.n	8004566 <UART_RxISR_8BIT_FIFOEN+0x1ae>
 8004578:	e730      	b.n	80043dc <UART_RxISR_8BIT_FIFOEN+0x24>
 800457a:	bf00      	nop
 800457c:	40008000 	.word	0x40008000
 8004580:	08004205 	.word	0x08004205

08004584 <UART_RxISR_16BIT_FIFOEN>:
  *         interruptions have been enabled by HAL_UART_Receive_IT()
  * @param huart UART handle.
  * @retval None
  */
static void UART_RxISR_16BIT_FIFOEN(UART_HandleTypeDef *huart)
{
 8004584:	e92d 43f8 	stmdb	sp!, {r3, r4, r5, r6, r7, r8, r9, lr}
  uint16_t *tmp;
  uint16_t  uhMask = huart->Mask;
 8004588:	f8b0 6060 	ldrh.w	r6, [r0, #96]	; 0x60
  uint16_t  uhdata;
  uint16_t  nb_rx_data;
  uint16_t  rxdatacount;
  uint32_t  isrflags = READ_REG(huart->Instance->ISR);
 800458c:	6803      	ldr	r3, [r0, #0]
 800458e:	69dd      	ldr	r5, [r3, #28]
  uint32_t  cr1its   = READ_REG(huart->Instance->CR1);
 8004590:	f8d3 9000 	ldr.w	r9, [r3]
  uint32_t  cr3its   = READ_REG(huart->Instance->CR3);
 8004594:	f8d3 8008 	ldr.w	r8, [r3, #8]

  /* Check that a Rx process is ongoing */
  if (huart->RxState == HAL_UART_STATE_BUSY_RX)
 8004598:	f8d0 208c 	ldr.w	r2, [r0, #140]	; 0x8c
 800459c:	2a22      	cmp	r2, #34	; 0x22
 800459e:	d005      	beq.n	80045ac <UART_RxISR_16BIT_FIFOEN+0x28>
    }
  }
  else
  {
    /* Clear RXNE interrupt flag */
    __HAL_UART_SEND_REQ(huart, UART_RXDATA_FLUSH_REQUEST);
 80045a0:	699a      	ldr	r2, [r3, #24]
 80045a2:	f042 0208 	orr.w	r2, r2, #8
 80045a6:	619a      	str	r2, [r3, #24]
  }
}
 80045a8:	e8bd 83f8 	ldmia.w	sp!, {r3, r4, r5, r6, r7, r8, r9, pc}
 80045ac:	4604      	mov	r4, r0
    nb_rx_data = huart->NbRxDataToProcess;
 80045ae:	f8b0 7068 	ldrh.w	r7, [r0, #104]	; 0x68
    while ((nb_rx_data > 0U) && ((isrflags & USART_ISR_RXNE_RXFNE) != 0U))
 80045b2:	e008      	b.n	80045c6 <UART_RxISR_16BIT_FIFOEN+0x42>
        if (huart->ErrorCode != HAL_UART_ERROR_NONE)
 80045b4:	f8d4 3090 	ldr.w	r3, [r4, #144]	; 0x90
 80045b8:	2b00      	cmp	r3, #0
 80045ba:	d14b      	bne.n	8004654 <UART_RxISR_16BIT_FIFOEN+0xd0>
      if (huart->RxXferCount == 0U)
 80045bc:	f8b4 305e 	ldrh.w	r3, [r4, #94]	; 0x5e
 80045c0:	b29b      	uxth	r3, r3
 80045c2:	2b00      	cmp	r3, #0
 80045c4:	d04d      	beq.n	8004662 <UART_RxISR_16BIT_FIFOEN+0xde>
    while ((nb_rx_data > 0U) && ((isrflags & USART_ISR_RXNE_RXFNE) != 0U))
 80045c6:	2f00      	cmp	r7, #0
 80045c8:	f000 8099 	beq.w	80046fe <UART_RxISR_16BIT_FIFOEN+0x17a>
 80045cc:	f015 0f20 	tst.w	r5, #32
 80045d0:	f000 8095 	beq.w	80046fe <UART_RxISR_16BIT_FIFOEN+0x17a>
      uhdata = (uint16_t) READ_REG(huart->Instance->RDR);
 80045d4:	6823      	ldr	r3, [r4, #0]
 80045d6:	6a5b      	ldr	r3, [r3, #36]	; 0x24
      tmp = (uint16_t *) huart->pRxBuffPtr ;
 80045d8:	6da2      	ldr	r2, [r4, #88]	; 0x58
      *tmp = (uint16_t)(uhdata & uhMask);
 80045da:	4033      	ands	r3, r6
 80045dc:	8013      	strh	r3, [r2, #0]
      huart->pRxBuffPtr += 2U;
 80045de:	6da3      	ldr	r3, [r4, #88]	; 0x58
 80045e0:	3302      	adds	r3, #2
 80045e2:	65a3      	str	r3, [r4, #88]	; 0x58
      huart->RxXferCount--;
 80045e4:	f8b4 305e 	ldrh.w	r3, [r4, #94]	; 0x5e
 80045e8:	b29b      	uxth	r3, r3
 80045ea:	3b01      	subs	r3, #1
 80045ec:	b29b      	uxth	r3, r3
 80045ee:	f8a4 305e 	strh.w	r3, [r4, #94]	; 0x5e
      isrflags = READ_REG(huart->Instance->ISR);
 80045f2:	6823      	ldr	r3, [r4, #0]
 80045f4:	69dd      	ldr	r5, [r3, #28]
      if ((isrflags & (USART_ISR_PE | USART_ISR_FE | USART_ISR_NE)) != 0U)
 80045f6:	f015 0f07 	tst.w	r5, #7
 80045fa:	d0df      	beq.n	80045bc <UART_RxISR_16BIT_FIFOEN+0x38>
        if (((isrflags & USART_ISR_PE) != 0U) && ((cr1its & USART_CR1_PEIE) != 0U))
 80045fc:	f015 0f01 	tst.w	r5, #1
 8004600:	d009      	beq.n	8004616 <UART_RxISR_16BIT_FIFOEN+0x92>
 8004602:	f419 7f80 	tst.w	r9, #256	; 0x100
 8004606:	d006      	beq.n	8004616 <UART_RxISR_16BIT_FIFOEN+0x92>
          __HAL_UART_CLEAR_FLAG(huart, UART_CLEAR_PEF);
 8004608:	2201      	movs	r2, #1
 800460a:	621a      	str	r2, [r3, #32]
          huart->ErrorCode |= HAL_UART_ERROR_PE;
 800460c:	f8d4 3090 	ldr.w	r3, [r4, #144]	; 0x90
 8004610:	4313      	orrs	r3, r2
 8004612:	f8c4 3090 	str.w	r3, [r4, #144]	; 0x90
        if (((isrflags & USART_ISR_FE) != 0U) && ((cr3its & USART_CR3_EIE) != 0U))
 8004616:	f015 0f02 	tst.w	r5, #2
 800461a:	d00b      	beq.n	8004634 <UART_RxISR_16BIT_FIFOEN+0xb0>
 800461c:	f018 0f01 	tst.w	r8, #1
 8004620:	d008      	beq.n	8004634 <UART_RxISR_16BIT_FIFOEN+0xb0>
          __HAL_UART_CLEAR_FLAG(huart, UART_CLEAR_FEF);
 8004622:	6823      	ldr	r3, [r4, #0]
 8004624:	2202      	movs	r2, #2
 8004626:	621a      	str	r2, [r3, #32]
          huart->ErrorCode |= HAL_UART_ERROR_FE;
 8004628:	f8d4 3090 	ldr.w	r3, [r4, #144]	; 0x90
 800462c:	f043 0304 	orr.w	r3, r3, #4
 8004630:	f8c4 3090 	str.w	r3, [r4, #144]	; 0x90
        if (((isrflags & USART_ISR_NE) != 0U) && ((cr3its & USART_CR3_EIE) != 0U))
 8004634:	f015 0f04 	tst.w	r5, #4
 8004638:	d0bc      	beq.n	80045b4 <UART_RxISR_16BIT_FIFOEN+0x30>
 800463a:	f018 0f01 	tst.w	r8, #1
 800463e:	d0b9      	beq.n	80045b4 <UART_RxISR_16BIT_FIFOEN+0x30>
          __HAL_UART_CLEAR_FLAG(huart, UART_CLEAR_NEF);
 8004640:	6823      	ldr	r3, [r4, #0]
 8004642:	2204      	movs	r2, #4
 8004644:	621a      	str	r2, [r3, #32]
          huart->ErrorCode |= HAL_UART_ERROR_NE;
 8004646:	f8d4 3090 	ldr.w	r3, [r4, #144]	; 0x90
 800464a:	f043 0302 	orr.w	r3, r3, #2
 800464e:	f8c4 3090 	str.w	r3, [r4, #144]	; 0x90
 8004652:	e7af      	b.n	80045b4 <UART_RxISR_16BIT_FIFOEN+0x30>
          HAL_UART_ErrorCallback(huart);
 8004654:	4620      	mov	r0, r4
 8004656:	f7ff fbf9 	bl	8003e4c <HAL_UART_ErrorCallback>
          huart->ErrorCode = HAL_UART_ERROR_NONE;
 800465a:	2300      	movs	r3, #0
 800465c:	f8c4 3090 	str.w	r3, [r4, #144]	; 0x90
 8004660:	e7ac      	b.n	80045bc <UART_RxISR_16BIT_FIFOEN+0x38>
        ATOMIC_CLEAR_BIT(huart->Instance->CR1, USART_CR1_PEIE);
 8004662:	6822      	ldr	r2, [r4, #0]
   __ASM volatile ("ldrex %0, %1" : "=r" (result) : "Q" (*addr) );
 8004664:	e852 3f00 	ldrex	r3, [r2]
 8004668:	f423 7380 	bic.w	r3, r3, #256	; 0x100
   __ASM volatile ("strex %0, %2, %1" : "=&r" (result), "=Q" (*addr) : "r" (value) );
 800466c:	e842 3100 	strex	r1, r3, [r2]
 8004670:	2900      	cmp	r1, #0
 8004672:	d1f6      	bne.n	8004662 <UART_RxISR_16BIT_FIFOEN+0xde>
        ATOMIC_CLEAR_BIT(huart->Instance->CR3, (USART_CR3_EIE | USART_CR3_RXFTIE));
 8004674:	6822      	ldr	r2, [r4, #0]
   __ASM volatile ("ldrex %0, %1" : "=r" (result) : "Q" (*addr) );
 8004676:	f102 0308 	add.w	r3, r2, #8
 800467a:	e853 3f00 	ldrex	r3, [r3]
 800467e:	f023 5380 	bic.w	r3, r3, #268435456	; 0x10000000
 8004682:	f023 0301 	bic.w	r3, r3, #1
   __ASM volatile ("strex %0, %2, %1" : "=&r" (result), "=Q" (*addr) : "r" (value) );
 8004686:	3208      	adds	r2, #8
 8004688:	e842 3100 	strex	r1, r3, [r2]
 800468c:	2900      	cmp	r1, #0
 800468e:	d1f1      	bne.n	8004674 <UART_RxISR_16BIT_FIFOEN+0xf0>
        huart->RxState = HAL_UART_STATE_READY;
 8004690:	2320      	movs	r3, #32
 8004692:	f8c4 308c 	str.w	r3, [r4, #140]	; 0x8c
        huart->RxISR = NULL;
 8004696:	2300      	movs	r3, #0
 8004698:	6763      	str	r3, [r4, #116]	; 0x74
        huart->RxEventType = HAL_UART_RXEVENT_TC;
 800469a:	6723      	str	r3, [r4, #112]	; 0x70
        if (!(IS_LPUART_INSTANCE(huart->Instance)))
 800469c:	6823      	ldr	r3, [r4, #0]
 800469e:	4a29      	ldr	r2, [pc, #164]	; (8004744 <UART_RxISR_16BIT_FIFOEN+0x1c0>)
 80046a0:	4293      	cmp	r3, r2
 80046a2:	d003      	beq.n	80046ac <UART_RxISR_16BIT_FIFOEN+0x128>
          if (READ_BIT(huart->Instance->CR2, USART_CR2_RTOEN) != 0U)
 80046a4:	685b      	ldr	r3, [r3, #4]
 80046a6:	f413 0f00 	tst.w	r3, #8388608	; 0x800000
 80046aa:	d106      	bne.n	80046ba <UART_RxISR_16BIT_FIFOEN+0x136>
        if (huart->ReceptionType == HAL_UART_RECEPTION_TOIDLE)
 80046ac:	6ee3      	ldr	r3, [r4, #108]	; 0x6c
 80046ae:	2b01      	cmp	r3, #1
 80046b0:	d00d      	beq.n	80046ce <UART_RxISR_16BIT_FIFOEN+0x14a>
          HAL_UART_RxCpltCallback(huart);
 80046b2:	4620      	mov	r0, r4
 80046b4:	f7fc fcd6 	bl	8001064 <HAL_UART_RxCpltCallback>
 80046b8:	e785      	b.n	80045c6 <UART_RxISR_16BIT_FIFOEN+0x42>
            ATOMIC_CLEAR_BIT(huart->Instance->CR1, USART_CR1_RTOIE);
 80046ba:	6822      	ldr	r2, [r4, #0]
   __ASM volatile ("ldrex %0, %1" : "=r" (result) : "Q" (*addr) );
 80046bc:	e852 3f00 	ldrex	r3, [r2]
 80046c0:	f023 6380 	bic.w	r3, r3, #67108864	; 0x4000000
   __ASM volatile ("strex %0, %2, %1" : "=&r" (result), "=Q" (*addr) : "r" (value) );
 80046c4:	e842 3100 	strex	r1, r3, [r2]
 80046c8:	2900      	cmp	r1, #0
 80046ca:	d1f6      	bne.n	80046ba <UART_RxISR_16BIT_FIFOEN+0x136>
 80046cc:	e7ee      	b.n	80046ac <UART_RxISR_16BIT_FIFOEN+0x128>
          huart->ReceptionType = HAL_UART_RECEPTION_STANDARD;
 80046ce:	2300      	movs	r3, #0
 80046d0:	66e3      	str	r3, [r4, #108]	; 0x6c
          ATOMIC_CLEAR_BIT(huart->Instance->CR1, USART_CR1_IDLEIE);
 80046d2:	6822      	ldr	r2, [r4, #0]
   __ASM volatile ("ldrex %0, %1" : "=r" (result) : "Q" (*addr) );
 80046d4:	e852 3f00 	ldrex	r3, [r2]
 80046d8:	f023 0310 	bic.w	r3, r3, #16
   __ASM volatile ("strex %0, %2, %1" : "=&r" (result), "=Q" (*addr) : "r" (value) );
 80046dc:	e842 3100 	strex	r1, r3, [r2]
 80046e0:	2900      	cmp	r1, #0
 80046e2:	d1f6      	bne.n	80046d2 <UART_RxISR_16BIT_FIFOEN+0x14e>
          if (__HAL_UART_GET_FLAG(huart, UART_FLAG_IDLE) == SET)
 80046e4:	6823      	ldr	r3, [r4, #0]
 80046e6:	69da      	ldr	r2, [r3, #28]
 80046e8:	f012 0f10 	tst.w	r2, #16
 80046ec:	d001      	beq.n	80046f2 <UART_RxISR_16BIT_FIFOEN+0x16e>
            __HAL_UART_CLEAR_FLAG(huart, UART_CLEAR_IDLEF);
 80046ee:	2210      	movs	r2, #16
 80046f0:	621a      	str	r2, [r3, #32]
          HAL_UARTEx_RxEventCallback(huart, huart->RxXferSize);
 80046f2:	f8b4 105c 	ldrh.w	r1, [r4, #92]	; 0x5c
 80046f6:	4620      	mov	r0, r4
 80046f8:	f7ff fbdf 	bl	8003eba <HAL_UARTEx_RxEventCallback>
 80046fc:	e763      	b.n	80045c6 <UART_RxISR_16BIT_FIFOEN+0x42>
    rxdatacount = huart->RxXferCount;
 80046fe:	f8b4 305e 	ldrh.w	r3, [r4, #94]	; 0x5e
 8004702:	b29b      	uxth	r3, r3
    if ((rxdatacount != 0U) && (rxdatacount < huart->NbRxDataToProcess))
 8004704:	2b00      	cmp	r3, #0
 8004706:	f43f af4f 	beq.w	80045a8 <UART_RxISR_16BIT_FIFOEN+0x24>
 800470a:	f8b4 2068 	ldrh.w	r2, [r4, #104]	; 0x68
 800470e:	429a      	cmp	r2, r3
 8004710:	f67f af4a 	bls.w	80045a8 <UART_RxISR_16BIT_FIFOEN+0x24>
      ATOMIC_CLEAR_BIT(huart->Instance->CR3, USART_CR3_RXFTIE);
 8004714:	6822      	ldr	r2, [r4, #0]
   __ASM volatile ("ldrex %0, %1" : "=r" (result) : "Q" (*addr) );
 8004716:	f102 0308 	add.w	r3, r2, #8
 800471a:	e853 3f00 	ldrex	r3, [r3]
 800471e:	f023 5380 	bic.w	r3, r3, #268435456	; 0x10000000
   __ASM volatile ("strex %0, %2, %1" : "=&r" (result), "=Q" (*addr) : "r" (value) );
 8004722:	3208      	adds	r2, #8
 8004724:	e842 3100 	strex	r1, r3, [r2]
 8004728:	2900      	cmp	r1, #0
 800472a:	d1f3      	bne.n	8004714 <UART_RxISR_16BIT_FIFOEN+0x190>
      huart->RxISR = UART_RxISR_16BIT;
 800472c:	4b06      	ldr	r3, [pc, #24]	; (8004748 <UART_RxISR_16BIT_FIFOEN+0x1c4>)
 800472e:	6763      	str	r3, [r4, #116]	; 0x74
      ATOMIC_SET_BIT(huart->Instance->CR1, USART_CR1_RXNEIE_RXFNEIE);
 8004730:	6822      	ldr	r2, [r4, #0]
   __ASM volatile ("ldrex %0, %1" : "=r" (result) : "Q" (*addr) );
 8004732:	e852 3f00 	ldrex	r3, [r2]
 8004736:	f043 0320 	orr.w	r3, r3, #32
   __ASM volatile ("strex %0, %2, %1" : "=&r" (result), "=Q" (*addr) : "r" (value) );
 800473a:	e842 3100 	strex	r1, r3, [r2]
 800473e:	2900      	cmp	r1, #0
 8004740:	d1f6      	bne.n	8004730 <UART_RxISR_16BIT_FIFOEN+0x1ac>
 8004742:	e731      	b.n	80045a8 <UART_RxISR_16BIT_FIFOEN+0x24>
 8004744:	40008000 	.word	0x40008000
 8004748:	080042e1 	.word	0x080042e1

0800474c <UART_SetConfig>:
{
 800474c:	b570      	push	{r4, r5, r6, lr}
 800474e:	4604      	mov	r4, r0
  if (UART_INSTANCE_LOWPOWER(huart))
 8004750:	6801      	ldr	r1, [r0, #0]
  tmpreg = (uint32_t)huart->Init.WordLength | huart->Init.Parity | huart->Init.Mode | huart->Init.OverSampling ;
 8004752:	6883      	ldr	r3, [r0, #8]
 8004754:	6902      	ldr	r2, [r0, #16]
 8004756:	4313      	orrs	r3, r2
 8004758:	6942      	ldr	r2, [r0, #20]
 800475a:	4313      	orrs	r3, r2
 800475c:	69c2      	ldr	r2, [r0, #28]
 800475e:	4313      	orrs	r3, r2
  MODIFY_REG(huart->Instance->CR1, USART_CR1_FIELDS, tmpreg);
 8004760:	6808      	ldr	r0, [r1, #0]
 8004762:	4a9d      	ldr	r2, [pc, #628]	; (80049d8 <UART_SetConfig+0x28c>)
 8004764:	4002      	ands	r2, r0
 8004766:	431a      	orrs	r2, r3
 8004768:	600a      	str	r2, [r1, #0]
  MODIFY_REG(huart->Instance->CR2, USART_CR2_STOP, huart->Init.StopBits);
 800476a:	6822      	ldr	r2, [r4, #0]
 800476c:	6853      	ldr	r3, [r2, #4]
 800476e:	f423 5340 	bic.w	r3, r3, #12288	; 0x3000
 8004772:	68e1      	ldr	r1, [r4, #12]
 8004774:	430b      	orrs	r3, r1
 8004776:	6053      	str	r3, [r2, #4]
  tmpreg = (uint32_t)huart->Init.HwFlowCtl;
 8004778:	69a1      	ldr	r1, [r4, #24]
  if (!(UART_INSTANCE_LOWPOWER(huart)))
 800477a:	6822      	ldr	r2, [r4, #0]
 800477c:	4b97      	ldr	r3, [pc, #604]	; (80049dc <UART_SetConfig+0x290>)
 800477e:	429a      	cmp	r2, r3
 8004780:	d001      	beq.n	8004786 <UART_SetConfig+0x3a>
    tmpreg |= huart->Init.OneBitSampling;
 8004782:	6a23      	ldr	r3, [r4, #32]
 8004784:	4319      	orrs	r1, r3
  MODIFY_REG(huart->Instance->CR3, USART_CR3_FIELDS, tmpreg);
 8004786:	6893      	ldr	r3, [r2, #8]
 8004788:	f023 436e 	bic.w	r3, r3, #3992977408	; 0xee000000
 800478c:	f423 6330 	bic.w	r3, r3, #2816	; 0xb00
 8004790:	430b      	orrs	r3, r1
 8004792:	6093      	str	r3, [r2, #8]
  MODIFY_REG(huart->Instance->PRESC, USART_PRESC_PRESCALER, huart->Init.ClockPrescaler);
 8004794:	6822      	ldr	r2, [r4, #0]
 8004796:	6ad3      	ldr	r3, [r2, #44]	; 0x2c
 8004798:	f023 030f 	bic.w	r3, r3, #15
 800479c:	6a61      	ldr	r1, [r4, #36]	; 0x24
 800479e:	430b      	orrs	r3, r1
 80047a0:	62d3      	str	r3, [r2, #44]	; 0x2c
  UART_GETCLOCKSOURCE(huart, clocksource);
 80047a2:	6823      	ldr	r3, [r4, #0]
 80047a4:	4a8e      	ldr	r2, [pc, #568]	; (80049e0 <UART_SetConfig+0x294>)
 80047a6:	4293      	cmp	r3, r2
 80047a8:	d01c      	beq.n	80047e4 <UART_SetConfig+0x98>
 80047aa:	4a8e      	ldr	r2, [pc, #568]	; (80049e4 <UART_SetConfig+0x298>)
 80047ac:	4293      	cmp	r3, r2
 80047ae:	d031      	beq.n	8004814 <UART_SetConfig+0xc8>
 80047b0:	4a8a      	ldr	r2, [pc, #552]	; (80049dc <UART_SetConfig+0x290>)
 80047b2:	4293      	cmp	r3, r2
 80047b4:	d04b      	beq.n	800484e <UART_SetConfig+0x102>
 80047b6:	2210      	movs	r2, #16
  if (UART_INSTANCE_LOWPOWER(huart))
 80047b8:	4988      	ldr	r1, [pc, #544]	; (80049dc <UART_SetConfig+0x290>)
 80047ba:	428b      	cmp	r3, r1
 80047bc:	d068      	beq.n	8004890 <UART_SetConfig+0x144>
  else if (huart->Init.OverSampling == UART_OVERSAMPLING_8)
 80047be:	69e0      	ldr	r0, [r4, #28]
 80047c0:	f5b0 4f00 	cmp.w	r0, #32768	; 0x8000
 80047c4:	f000 80a5 	beq.w	8004912 <UART_SetConfig+0x1c6>
    switch (clocksource)
 80047c8:	2a08      	cmp	r2, #8
 80047ca:	f200 811f 	bhi.w	8004a0c <UART_SetConfig+0x2c0>
 80047ce:	e8df f012 	tbh	[pc, r2, lsl #1]
 80047d2:	00d3      	.short	0x00d3
 80047d4:	00d100f5 	.word	0x00d100f5
 80047d8:	00f8011d 	.word	0x00f8011d
 80047dc:	011d011d 	.word	0x011d011d
 80047e0:	00fb011d 	.word	0x00fb011d
  return (uint32_t)(READ_BIT(RCC->CCIPR, USARTx) | (USARTx << 16));
 80047e4:	f04f 42b0 	mov.w	r2, #1476395008	; 0x58000000
 80047e8:	f8d2 2088 	ldr.w	r2, [r2, #136]	; 0x88
 80047ec:	f002 0203 	and.w	r2, r2, #3
 80047f0:	f442 3240 	orr.w	r2, r2, #196608	; 0x30000
  UART_GETCLOCKSOURCE(huart, clocksource);
 80047f4:	f5a2 3240 	sub.w	r2, r2, #196608	; 0x30000
 80047f8:	2a03      	cmp	r2, #3
 80047fa:	d809      	bhi.n	8004810 <UART_SetConfig+0xc4>
 80047fc:	e8df f002 	tbb	[pc, r2]
 8004800:	063c0402 	.word	0x063c0402
 8004804:	2201      	movs	r2, #1
 8004806:	e7d7      	b.n	80047b8 <UART_SetConfig+0x6c>
 8004808:	2204      	movs	r2, #4
 800480a:	e7d5      	b.n	80047b8 <UART_SetConfig+0x6c>
 800480c:	2208      	movs	r2, #8
 800480e:	e7d3      	b.n	80047b8 <UART_SetConfig+0x6c>
 8004810:	2210      	movs	r2, #16
 8004812:	e7d1      	b.n	80047b8 <UART_SetConfig+0x6c>
 8004814:	f04f 42b0 	mov.w	r2, #1476395008	; 0x58000000
 8004818:	f8d2 2088 	ldr.w	r2, [r2, #136]	; 0x88
 800481c:	f002 020c 	and.w	r2, r2, #12
 8004820:	f442 2240 	orr.w	r2, r2, #786432	; 0xc0000
 8004824:	f5a2 2240 	sub.w	r2, r2, #786432	; 0xc0000
 8004828:	2a0c      	cmp	r2, #12
 800482a:	d80e      	bhi.n	800484a <UART_SetConfig+0xfe>
 800482c:	e8df f002 	tbb	[pc, r2]
 8004830:	0d0d0d07 	.word	0x0d0d0d07
 8004834:	0d0d0d09 	.word	0x0d0d0d09
 8004838:	0d0d0d26 	.word	0x0d0d0d26
 800483c:	0b          	.byte	0x0b
 800483d:	00          	.byte	0x00
 800483e:	2200      	movs	r2, #0
 8004840:	e7ba      	b.n	80047b8 <UART_SetConfig+0x6c>
 8004842:	2204      	movs	r2, #4
 8004844:	e7b8      	b.n	80047b8 <UART_SetConfig+0x6c>
 8004846:	2208      	movs	r2, #8
 8004848:	e7b6      	b.n	80047b8 <UART_SetConfig+0x6c>
 800484a:	2210      	movs	r2, #16
 800484c:	e7b4      	b.n	80047b8 <UART_SetConfig+0x6c>
  return (uint32_t)(READ_BIT(RCC->CCIPR, LPUARTx));
 800484e:	f04f 42b0 	mov.w	r2, #1476395008	; 0x58000000
 8004852:	f8d2 2088 	ldr.w	r2, [r2, #136]	; 0x88
 8004856:	f402 6240 	and.w	r2, r2, #3072	; 0xc00
 800485a:	f5b2 6f00 	cmp.w	r2, #2048	; 0x800
 800485e:	d00f      	beq.n	8004880 <UART_SetConfig+0x134>
 8004860:	d805      	bhi.n	800486e <UART_SetConfig+0x122>
 8004862:	b17a      	cbz	r2, 8004884 <UART_SetConfig+0x138>
 8004864:	f5b2 6f80 	cmp.w	r2, #1024	; 0x400
 8004868:	d10e      	bne.n	8004888 <UART_SetConfig+0x13c>
 800486a:	2204      	movs	r2, #4
 800486c:	e7a4      	b.n	80047b8 <UART_SetConfig+0x6c>
 800486e:	f5b2 6f40 	cmp.w	r2, #3072	; 0xc00
 8004872:	d10b      	bne.n	800488c <UART_SetConfig+0x140>
 8004874:	2208      	movs	r2, #8
 8004876:	e79f      	b.n	80047b8 <UART_SetConfig+0x6c>
 8004878:	2202      	movs	r2, #2
 800487a:	e79d      	b.n	80047b8 <UART_SetConfig+0x6c>
 800487c:	2202      	movs	r2, #2
 800487e:	e79b      	b.n	80047b8 <UART_SetConfig+0x6c>
 8004880:	2202      	movs	r2, #2
 8004882:	e799      	b.n	80047b8 <UART_SetConfig+0x6c>
 8004884:	2200      	movs	r2, #0
 8004886:	e797      	b.n	80047b8 <UART_SetConfig+0x6c>
 8004888:	2210      	movs	r2, #16
 800488a:	e795      	b.n	80047b8 <UART_SetConfig+0x6c>
 800488c:	2210      	movs	r2, #16
 800488e:	e793      	b.n	80047b8 <UART_SetConfig+0x6c>
    switch (clocksource)
 8004890:	2a08      	cmp	r2, #8
 8004892:	f200 809c 	bhi.w	80049ce <UART_SetConfig+0x282>
 8004896:	e8df f002 	tbb	[pc, r2]
 800489a:	9a08      	.short	0x9a08
 800489c:	9a379a3a 	.word	0x9a379a3a
 80048a0:	9a9a      	.short	0x9a9a
 80048a2:	05          	.byte	0x05
 80048a3:	00          	.byte	0x00
 80048a4:	f44f 4000 	mov.w	r0, #32768	; 0x8000
 80048a8:	e004      	b.n	80048b4 <UART_SetConfig+0x168>
        pclk = HAL_RCC_GetPCLK1Freq();
 80048aa:	f7fe faab 	bl	8002e04 <HAL_RCC_GetPCLK1Freq>
    if (pclk != 0U)
 80048ae:	2800      	cmp	r0, #0
 80048b0:	f000 808f 	beq.w	80049d2 <UART_SetConfig+0x286>
      lpuart_ker_ck_pres = (pclk / UARTPrescTable[huart->Init.ClockPrescaler]);
 80048b4:	6a62      	ldr	r2, [r4, #36]	; 0x24
 80048b6:	4b4c      	ldr	r3, [pc, #304]	; (80049e8 <UART_SetConfig+0x29c>)
 80048b8:	f833 2012 	ldrh.w	r2, [r3, r2, lsl #1]
 80048bc:	fbb0 f3f2 	udiv	r3, r0, r2
      if ((lpuart_ker_ck_pres < (3U * huart->Init.BaudRate)) ||
 80048c0:	6865      	ldr	r5, [r4, #4]
 80048c2:	eb05 0145 	add.w	r1, r5, r5, lsl #1
 80048c6:	4299      	cmp	r1, r3
 80048c8:	f200 8094 	bhi.w	80049f4 <UART_SetConfig+0x2a8>
 80048cc:	ebb3 3f05 	cmp.w	r3, r5, lsl #12
 80048d0:	f200 8092 	bhi.w	80049f8 <UART_SetConfig+0x2ac>
        usartdiv = (uint32_t)(UART_DIV_LPUART(pclk, huart->Init.BaudRate, huart->Init.ClockPrescaler));
 80048d4:	2600      	movs	r6, #0
 80048d6:	4633      	mov	r3, r6
 80048d8:	4631      	mov	r1, r6
 80048da:	f7fb fca9 	bl	8000230 <__aeabi_uldivmod>
 80048de:	0209      	lsls	r1, r1, #8
 80048e0:	ea41 6110 	orr.w	r1, r1, r0, lsr #24
 80048e4:	0200      	lsls	r0, r0, #8
 80048e6:	086b      	lsrs	r3, r5, #1
 80048e8:	18c0      	adds	r0, r0, r3
 80048ea:	462a      	mov	r2, r5
 80048ec:	4633      	mov	r3, r6
 80048ee:	f141 0100 	adc.w	r1, r1, #0
 80048f2:	f7fb fc9d 	bl	8000230 <__aeabi_uldivmod>
        if ((usartdiv >= LPUART_BRR_MIN) && (usartdiv <= LPUART_BRR_MAX))
 80048f6:	f5a0 7240 	sub.w	r2, r0, #768	; 0x300
 80048fa:	4b3c      	ldr	r3, [pc, #240]	; (80049ec <UART_SetConfig+0x2a0>)
 80048fc:	429a      	cmp	r2, r3
 80048fe:	d87d      	bhi.n	80049fc <UART_SetConfig+0x2b0>
          huart->Instance->BRR = usartdiv;
 8004900:	6823      	ldr	r3, [r4, #0]
 8004902:	60d8      	str	r0, [r3, #12]
 8004904:	4630      	mov	r0, r6
 8004906:	e050      	b.n	80049aa <UART_SetConfig+0x25e>
        pclk = HAL_RCC_GetSysClockFreq();
 8004908:	f7fd fd7e 	bl	8002408 <HAL_RCC_GetSysClockFreq>
        break;
 800490c:	e7cf      	b.n	80048ae <UART_SetConfig+0x162>
        pclk = (uint32_t) HSI_VALUE;
 800490e:	4838      	ldr	r0, [pc, #224]	; (80049f0 <UART_SetConfig+0x2a4>)
 8004910:	e7d0      	b.n	80048b4 <UART_SetConfig+0x168>
    switch (clocksource)
 8004912:	2a08      	cmp	r2, #8
 8004914:	d874      	bhi.n	8004a00 <UART_SetConfig+0x2b4>
 8004916:	e8df f002 	tbb	[pc, r2]
 800491a:	2707      	.short	0x2707
 800491c:	732a7305 	.word	0x732a7305
 8004920:	7373      	.short	0x7373
 8004922:	0b          	.byte	0x0b
 8004923:	00          	.byte	0x00
 8004924:	4832      	ldr	r0, [pc, #200]	; (80049f0 <UART_SetConfig+0x2a4>)
 8004926:	e003      	b.n	8004930 <UART_SetConfig+0x1e4>
        pclk = HAL_RCC_GetPCLK1Freq();
 8004928:	f7fe fa6c 	bl	8002e04 <HAL_RCC_GetPCLK1Freq>
    if (pclk != 0U)
 800492c:	2800      	cmp	r0, #0
 800492e:	d069      	beq.n	8004a04 <UART_SetConfig+0x2b8>
      usartdiv = (uint32_t)(UART_DIV_SAMPLING8(pclk, huart->Init.BaudRate, huart->Init.ClockPrescaler));
 8004930:	6a62      	ldr	r2, [r4, #36]	; 0x24
 8004932:	4b2d      	ldr	r3, [pc, #180]	; (80049e8 <UART_SetConfig+0x29c>)
 8004934:	f833 3012 	ldrh.w	r3, [r3, r2, lsl #1]
 8004938:	fbb0 f0f3 	udiv	r0, r0, r3
 800493c:	6862      	ldr	r2, [r4, #4]
 800493e:	0853      	lsrs	r3, r2, #1
 8004940:	eb03 0340 	add.w	r3, r3, r0, lsl #1
 8004944:	fbb3 f3f2 	udiv	r3, r3, r2
      if ((usartdiv >= UART_BRR_MIN) && (usartdiv <= UART_BRR_MAX))
 8004948:	f1a3 0110 	sub.w	r1, r3, #16
 800494c:	f64f 72ef 	movw	r2, #65519	; 0xffef
 8004950:	4291      	cmp	r1, r2
 8004952:	d859      	bhi.n	8004a08 <UART_SetConfig+0x2bc>
        brrtemp = (uint16_t)(usartdiv & 0xFFF0U);
 8004954:	b29a      	uxth	r2, r3
 8004956:	f022 020f 	bic.w	r2, r2, #15
        brrtemp |= (uint16_t)((usartdiv & (uint16_t)0x000FU) >> 1U);
 800495a:	f3c3 0342 	ubfx	r3, r3, #1, #3
 800495e:	4313      	orrs	r3, r2
        huart->Instance->BRR = brrtemp;
 8004960:	6822      	ldr	r2, [r4, #0]
 8004962:	60d3      	str	r3, [r2, #12]
 8004964:	2000      	movs	r0, #0
 8004966:	e020      	b.n	80049aa <UART_SetConfig+0x25e>
        pclk = HAL_RCC_GetPCLK2Freq();
 8004968:	f7fe fa5c 	bl	8002e24 <HAL_RCC_GetPCLK2Freq>
        break;
 800496c:	e7de      	b.n	800492c <UART_SetConfig+0x1e0>
        pclk = HAL_RCC_GetSysClockFreq();
 800496e:	f7fd fd4b 	bl	8002408 <HAL_RCC_GetSysClockFreq>
        break;
 8004972:	e7db      	b.n	800492c <UART_SetConfig+0x1e0>
    switch (clocksource)
 8004974:	481e      	ldr	r0, [pc, #120]	; (80049f0 <UART_SetConfig+0x2a4>)
 8004976:	e003      	b.n	8004980 <UART_SetConfig+0x234>
        pclk = HAL_RCC_GetPCLK1Freq();
 8004978:	f7fe fa44 	bl	8002e04 <HAL_RCC_GetPCLK1Freq>
    if (pclk != 0U)
 800497c:	2800      	cmp	r0, #0
 800497e:	d047      	beq.n	8004a10 <UART_SetConfig+0x2c4>
      usartdiv = (uint32_t)(UART_DIV_SAMPLING16(pclk, huart->Init.BaudRate, huart->Init.ClockPrescaler));
 8004980:	6a62      	ldr	r2, [r4, #36]	; 0x24
 8004982:	4b19      	ldr	r3, [pc, #100]	; (80049e8 <UART_SetConfig+0x29c>)
 8004984:	f833 3012 	ldrh.w	r3, [r3, r2, lsl #1]
 8004988:	fbb0 f0f3 	udiv	r0, r0, r3
 800498c:	6863      	ldr	r3, [r4, #4]
 800498e:	eb00 0053 	add.w	r0, r0, r3, lsr #1
 8004992:	fbb0 f0f3 	udiv	r0, r0, r3
      if ((usartdiv >= UART_BRR_MIN) && (usartdiv <= UART_BRR_MAX))
 8004996:	f1a0 0210 	sub.w	r2, r0, #16
 800499a:	f64f 73ef 	movw	r3, #65519	; 0xffef
 800499e:	429a      	cmp	r2, r3
 80049a0:	d838      	bhi.n	8004a14 <UART_SetConfig+0x2c8>
        huart->Instance->BRR = (uint16_t)usartdiv;
 80049a2:	6823      	ldr	r3, [r4, #0]
 80049a4:	b280      	uxth	r0, r0
 80049a6:	60d8      	str	r0, [r3, #12]
 80049a8:	2000      	movs	r0, #0
  huart->NbTxDataToProcess = 1;
 80049aa:	2301      	movs	r3, #1
 80049ac:	f8a4 306a 	strh.w	r3, [r4, #106]	; 0x6a
  huart->NbRxDataToProcess = 1;
 80049b0:	f8a4 3068 	strh.w	r3, [r4, #104]	; 0x68
  huart->RxISR = NULL;
 80049b4:	2300      	movs	r3, #0
 80049b6:	6763      	str	r3, [r4, #116]	; 0x74
  huart->TxISR = NULL;
 80049b8:	67a3      	str	r3, [r4, #120]	; 0x78
}
 80049ba:	bd70      	pop	{r4, r5, r6, pc}
        pclk = HAL_RCC_GetPCLK2Freq();
 80049bc:	f7fe fa32 	bl	8002e24 <HAL_RCC_GetPCLK2Freq>
        break;
 80049c0:	e7dc      	b.n	800497c <UART_SetConfig+0x230>
        pclk = HAL_RCC_GetSysClockFreq();
 80049c2:	f7fd fd21 	bl	8002408 <HAL_RCC_GetSysClockFreq>
        break;
 80049c6:	e7d9      	b.n	800497c <UART_SetConfig+0x230>
        pclk = (uint32_t) LSE_VALUE;
 80049c8:	f44f 4000 	mov.w	r0, #32768	; 0x8000
 80049cc:	e7d8      	b.n	8004980 <UART_SetConfig+0x234>
    switch (clocksource)
 80049ce:	2001      	movs	r0, #1
 80049d0:	e7eb      	b.n	80049aa <UART_SetConfig+0x25e>
 80049d2:	2000      	movs	r0, #0
 80049d4:	e7e9      	b.n	80049aa <UART_SetConfig+0x25e>
 80049d6:	bf00      	nop
 80049d8:	cfff69f3 	.word	0xcfff69f3
 80049dc:	40008000 	.word	0x40008000
 80049e0:	40013800 	.word	0x40013800
 80049e4:	40004400 	.word	0x40004400
 80049e8:	08009664 	.word	0x08009664
 80049ec:	000ffcff 	.word	0x000ffcff
 80049f0:	00f42400 	.word	0x00f42400
        ret = HAL_ERROR;
 80049f4:	2001      	movs	r0, #1
 80049f6:	e7d8      	b.n	80049aa <UART_SetConfig+0x25e>
 80049f8:	2001      	movs	r0, #1
 80049fa:	e7d6      	b.n	80049aa <UART_SetConfig+0x25e>
          ret = HAL_ERROR;
 80049fc:	2001      	movs	r0, #1
 80049fe:	e7d4      	b.n	80049aa <UART_SetConfig+0x25e>
    switch (clocksource)
 8004a00:	2001      	movs	r0, #1
 8004a02:	e7d2      	b.n	80049aa <UART_SetConfig+0x25e>
 8004a04:	2000      	movs	r0, #0
 8004a06:	e7d0      	b.n	80049aa <UART_SetConfig+0x25e>
        ret = HAL_ERROR;
 8004a08:	2001      	movs	r0, #1
 8004a0a:	e7ce      	b.n	80049aa <UART_SetConfig+0x25e>
    switch (clocksource)
 8004a0c:	2001      	movs	r0, #1
 8004a0e:	e7cc      	b.n	80049aa <UART_SetConfig+0x25e>
 8004a10:	2000      	movs	r0, #0
 8004a12:	e7ca      	b.n	80049aa <UART_SetConfig+0x25e>
        ret = HAL_ERROR;
 8004a14:	2001      	movs	r0, #1
 8004a16:	e7c8      	b.n	80049aa <UART_SetConfig+0x25e>

08004a18 <UART_AdvFeatureConfig>:
  if (HAL_IS_BIT_SET(huart->AdvancedInit.AdvFeatureInit, UART_ADVFEATURE_TXINVERT_INIT))
 8004a18:	6a83      	ldr	r3, [r0, #40]	; 0x28
 8004a1a:	f013 0f01 	tst.w	r3, #1
 8004a1e:	d006      	beq.n	8004a2e <UART_AdvFeatureConfig+0x16>
    MODIFY_REG(huart->Instance->CR2, USART_CR2_TXINV, huart->AdvancedInit.TxPinLevelInvert);
 8004a20:	6802      	ldr	r2, [r0, #0]
 8004a22:	6853      	ldr	r3, [r2, #4]
 8004a24:	f423 3300 	bic.w	r3, r3, #131072	; 0x20000
 8004a28:	6ac1      	ldr	r1, [r0, #44]	; 0x2c
 8004a2a:	430b      	orrs	r3, r1
 8004a2c:	6053      	str	r3, [r2, #4]
  if (HAL_IS_BIT_SET(huart->AdvancedInit.AdvFeatureInit, UART_ADVFEATURE_RXINVERT_INIT))
 8004a2e:	6a83      	ldr	r3, [r0, #40]	; 0x28
 8004a30:	f013 0f02 	tst.w	r3, #2
 8004a34:	d006      	beq.n	8004a44 <UART_AdvFeatureConfig+0x2c>
    MODIFY_REG(huart->Instance->CR2, USART_CR2_RXINV, huart->AdvancedInit.RxPinLevelInvert);
 8004a36:	6802      	ldr	r2, [r0, #0]
 8004a38:	6853      	ldr	r3, [r2, #4]
 8004a3a:	f423 3380 	bic.w	r3, r3, #65536	; 0x10000
 8004a3e:	6b01      	ldr	r1, [r0, #48]	; 0x30
 8004a40:	430b      	orrs	r3, r1
 8004a42:	6053      	str	r3, [r2, #4]
  if (HAL_IS_BIT_SET(huart->AdvancedInit.AdvFeatureInit, UART_ADVFEATURE_DATAINVERT_INIT))
 8004a44:	6a83      	ldr	r3, [r0, #40]	; 0x28
 8004a46:	f013 0f04 	tst.w	r3, #4
 8004a4a:	d006      	beq.n	8004a5a <UART_AdvFeatureConfig+0x42>
    MODIFY_REG(huart->Instance->CR2, USART_CR2_DATAINV, huart->AdvancedInit.DataInvert);
 8004a4c:	6802      	ldr	r2, [r0, #0]
 8004a4e:	6853      	ldr	r3, [r2, #4]
 8004a50:	f423 2380 	bic.w	r3, r3, #262144	; 0x40000
 8004a54:	6b41      	ldr	r1, [r0, #52]	; 0x34
 8004a56:	430b      	orrs	r3, r1
 8004a58:	6053      	str	r3, [r2, #4]
  if (HAL_IS_BIT_SET(huart->AdvancedInit.AdvFeatureInit, UART_ADVFEATURE_SWAP_INIT))
 8004a5a:	6a83      	ldr	r3, [r0, #40]	; 0x28
 8004a5c:	f013 0f08 	tst.w	r3, #8
 8004a60:	d006      	beq.n	8004a70 <UART_AdvFeatureConfig+0x58>
    MODIFY_REG(huart->Instance->CR2, USART_CR2_SWAP, huart->AdvancedInit.Swap);
 8004a62:	6802      	ldr	r2, [r0, #0]
 8004a64:	6853      	ldr	r3, [r2, #4]
 8004a66:	f423 4300 	bic.w	r3, r3, #32768	; 0x8000
 8004a6a:	6b81      	ldr	r1, [r0, #56]	; 0x38
 8004a6c:	430b      	orrs	r3, r1
 8004a6e:	6053      	str	r3, [r2, #4]
  if (HAL_IS_BIT_SET(huart->AdvancedInit.AdvFeatureInit, UART_ADVFEATURE_RXOVERRUNDISABLE_INIT))
 8004a70:	6a83      	ldr	r3, [r0, #40]	; 0x28
 8004a72:	f013 0f10 	tst.w	r3, #16
 8004a76:	d006      	beq.n	8004a86 <UART_AdvFeatureConfig+0x6e>
    MODIFY_REG(huart->Instance->CR3, USART_CR3_OVRDIS, huart->AdvancedInit.OverrunDisable);
 8004a78:	6802      	ldr	r2, [r0, #0]
 8004a7a:	6893      	ldr	r3, [r2, #8]
 8004a7c:	f423 5380 	bic.w	r3, r3, #4096	; 0x1000
 8004a80:	6bc1      	ldr	r1, [r0, #60]	; 0x3c
 8004a82:	430b      	orrs	r3, r1
 8004a84:	6093      	str	r3, [r2, #8]
  if (HAL_IS_BIT_SET(huart->AdvancedInit.AdvFeatureInit, UART_ADVFEATURE_DMADISABLEONERROR_INIT))
 8004a86:	6a83      	ldr	r3, [r0, #40]	; 0x28
 8004a88:	f013 0f20 	tst.w	r3, #32
 8004a8c:	d006      	beq.n	8004a9c <UART_AdvFeatureConfig+0x84>
    MODIFY_REG(huart->Instance->CR3, USART_CR3_DDRE, huart->AdvancedInit.DMADisableonRxError);
 8004a8e:	6802      	ldr	r2, [r0, #0]
 8004a90:	6893      	ldr	r3, [r2, #8]
 8004a92:	f423 5300 	bic.w	r3, r3, #8192	; 0x2000
 8004a96:	6c01      	ldr	r1, [r0, #64]	; 0x40
 8004a98:	430b      	orrs	r3, r1
 8004a9a:	6093      	str	r3, [r2, #8]
  if (HAL_IS_BIT_SET(huart->AdvancedInit.AdvFeatureInit, UART_ADVFEATURE_AUTOBAUDRATE_INIT))
 8004a9c:	6a83      	ldr	r3, [r0, #40]	; 0x28
 8004a9e:	f013 0f40 	tst.w	r3, #64	; 0x40
 8004aa2:	d00a      	beq.n	8004aba <UART_AdvFeatureConfig+0xa2>
    MODIFY_REG(huart->Instance->CR2, USART_CR2_ABREN, huart->AdvancedInit.AutoBaudRateEnable);
 8004aa4:	6802      	ldr	r2, [r0, #0]
 8004aa6:	6853      	ldr	r3, [r2, #4]
 8004aa8:	f423 1380 	bic.w	r3, r3, #1048576	; 0x100000
 8004aac:	6c41      	ldr	r1, [r0, #68]	; 0x44
 8004aae:	430b      	orrs	r3, r1
 8004ab0:	6053      	str	r3, [r2, #4]
    if (huart->AdvancedInit.AutoBaudRateEnable == UART_ADVFEATURE_AUTOBAUDRATE_ENABLE)
 8004ab2:	6c43      	ldr	r3, [r0, #68]	; 0x44
 8004ab4:	f5b3 1f80 	cmp.w	r3, #1048576	; 0x100000
 8004ab8:	d00b      	beq.n	8004ad2 <UART_AdvFeatureConfig+0xba>
  if (HAL_IS_BIT_SET(huart->AdvancedInit.AdvFeatureInit, UART_ADVFEATURE_MSBFIRST_INIT))
 8004aba:	6a83      	ldr	r3, [r0, #40]	; 0x28
 8004abc:	f013 0f80 	tst.w	r3, #128	; 0x80
 8004ac0:	d006      	beq.n	8004ad0 <UART_AdvFeatureConfig+0xb8>
    MODIFY_REG(huart->Instance->CR2, USART_CR2_MSBFIRST, huart->AdvancedInit.MSBFirst);
 8004ac2:	6802      	ldr	r2, [r0, #0]
 8004ac4:	6853      	ldr	r3, [r2, #4]
 8004ac6:	f423 2300 	bic.w	r3, r3, #524288	; 0x80000
 8004aca:	6cc1      	ldr	r1, [r0, #76]	; 0x4c
 8004acc:	430b      	orrs	r3, r1
 8004ace:	6053      	str	r3, [r2, #4]
}
 8004ad0:	4770      	bx	lr
      MODIFY_REG(huart->Instance->CR2, USART_CR2_ABRMODE, huart->AdvancedInit.AutoBaudRateMode);
 8004ad2:	6802      	ldr	r2, [r0, #0]
 8004ad4:	6853      	ldr	r3, [r2, #4]
 8004ad6:	f423 03c0 	bic.w	r3, r3, #6291456	; 0x600000
 8004ada:	6c81      	ldr	r1, [r0, #72]	; 0x48
 8004adc:	430b      	orrs	r3, r1
 8004ade:	6053      	str	r3, [r2, #4]
 8004ae0:	e7eb      	b.n	8004aba <UART_AdvFeatureConfig+0xa2>

08004ae2 <UART_WaitOnFlagUntilTimeout>:
{
 8004ae2:	e92d 43f8 	stmdb	sp!, {r3, r4, r5, r6, r7, r8, r9, lr}
 8004ae6:	4605      	mov	r5, r0
 8004ae8:	460f      	mov	r7, r1
 8004aea:	4616      	mov	r6, r2
 8004aec:	4699      	mov	r9, r3
 8004aee:	f8dd 8020 	ldr.w	r8, [sp, #32]
  while ((__HAL_UART_GET_FLAG(huart, Flag) ? SET : RESET) == Status)
 8004af2:	682b      	ldr	r3, [r5, #0]
 8004af4:	69dc      	ldr	r4, [r3, #28]
 8004af6:	ea37 0404 	bics.w	r4, r7, r4
 8004afa:	bf0c      	ite	eq
 8004afc:	2401      	moveq	r4, #1
 8004afe:	2400      	movne	r4, #0
 8004b00:	42b4      	cmp	r4, r6
 8004b02:	d157      	bne.n	8004bb4 <UART_WaitOnFlagUntilTimeout+0xd2>
    if (Timeout != HAL_MAX_DELAY)
 8004b04:	f1b8 3fff 	cmp.w	r8, #4294967295
 8004b08:	d0f3      	beq.n	8004af2 <UART_WaitOnFlagUntilTimeout+0x10>
      if (((HAL_GetTick() - Tickstart) > Timeout) || (Timeout == 0U))
 8004b0a:	f7fb ff47 	bl	800099c <HAL_GetTick>
 8004b0e:	eba0 0009 	sub.w	r0, r0, r9
 8004b12:	4540      	cmp	r0, r8
 8004b14:	d82f      	bhi.n	8004b76 <UART_WaitOnFlagUntilTimeout+0x94>
 8004b16:	f1b8 0f00 	cmp.w	r8, #0
 8004b1a:	d02c      	beq.n	8004b76 <UART_WaitOnFlagUntilTimeout+0x94>
      if (READ_BIT(huart->Instance->CR1, USART_CR1_RE) != 0U)
 8004b1c:	682b      	ldr	r3, [r5, #0]
 8004b1e:	681a      	ldr	r2, [r3, #0]
 8004b20:	f012 0f04 	tst.w	r2, #4
 8004b24:	d0e5      	beq.n	8004af2 <UART_WaitOnFlagUntilTimeout+0x10>
        if (__HAL_UART_GET_FLAG(huart, UART_FLAG_RTOF) == SET)
 8004b26:	69da      	ldr	r2, [r3, #28]
 8004b28:	f412 6f00 	tst.w	r2, #2048	; 0x800
 8004b2c:	d0e1      	beq.n	8004af2 <UART_WaitOnFlagUntilTimeout+0x10>
          __HAL_UART_CLEAR_FLAG(huart, UART_CLEAR_RTOF);
 8004b2e:	f44f 6200 	mov.w	r2, #2048	; 0x800
 8004b32:	621a      	str	r2, [r3, #32]
          ATOMIC_CLEAR_BIT(huart->Instance->CR1, (USART_CR1_RXNEIE_RXFNEIE | USART_CR1_PEIE |
 8004b34:	682a      	ldr	r2, [r5, #0]
   __ASM volatile ("ldrex %0, %1" : "=r" (result) : "Q" (*addr) );
 8004b36:	e852 3f00 	ldrex	r3, [r2]
 8004b3a:	f423 73d0 	bic.w	r3, r3, #416	; 0x1a0
   __ASM volatile ("strex %0, %2, %1" : "=&r" (result), "=Q" (*addr) : "r" (value) );
 8004b3e:	e842 3100 	strex	r1, r3, [r2]
 8004b42:	2900      	cmp	r1, #0
 8004b44:	d1f6      	bne.n	8004b34 <UART_WaitOnFlagUntilTimeout+0x52>
          ATOMIC_CLEAR_BIT(huart->Instance->CR3, USART_CR3_EIE);
 8004b46:	682a      	ldr	r2, [r5, #0]
   __ASM volatile ("ldrex %0, %1" : "=r" (result) : "Q" (*addr) );
 8004b48:	f102 0308 	add.w	r3, r2, #8
 8004b4c:	e853 3f00 	ldrex	r3, [r3]
 8004b50:	f023 0301 	bic.w	r3, r3, #1
   __ASM volatile ("strex %0, %2, %1" : "=&r" (result), "=Q" (*addr) : "r" (value) );
 8004b54:	3208      	adds	r2, #8
 8004b56:	e842 3100 	strex	r1, r3, [r2]
 8004b5a:	2900      	cmp	r1, #0
 8004b5c:	d1f3      	bne.n	8004b46 <UART_WaitOnFlagUntilTimeout+0x64>
          huart->gState = HAL_UART_STATE_READY;
 8004b5e:	2320      	movs	r3, #32
 8004b60:	f8c5 3088 	str.w	r3, [r5, #136]	; 0x88
          huart->RxState = HAL_UART_STATE_READY;
 8004b64:	f8c5 308c 	str.w	r3, [r5, #140]	; 0x8c
          huart->ErrorCode = HAL_UART_ERROR_RTO;
 8004b68:	f8c5 3090 	str.w	r3, [r5, #144]	; 0x90
          __HAL_UNLOCK(huart);
 8004b6c:	2300      	movs	r3, #0
 8004b6e:	f885 3084 	strb.w	r3, [r5, #132]	; 0x84
          return HAL_TIMEOUT;
 8004b72:	2003      	movs	r0, #3
 8004b74:	e01f      	b.n	8004bb6 <UART_WaitOnFlagUntilTimeout+0xd4>
        ATOMIC_CLEAR_BIT(huart->Instance->CR1, (USART_CR1_RXNEIE_RXFNEIE | USART_CR1_PEIE |
 8004b76:	682a      	ldr	r2, [r5, #0]
   __ASM volatile ("ldrex %0, %1" : "=r" (result) : "Q" (*addr) );
 8004b78:	e852 3f00 	ldrex	r3, [r2]
 8004b7c:	f423 73d0 	bic.w	r3, r3, #416	; 0x1a0
   __ASM volatile ("strex %0, %2, %1" : "=&r" (result), "=Q" (*addr) : "r" (value) );
 8004b80:	e842 3100 	strex	r1, r3, [r2]
 8004b84:	2900      	cmp	r1, #0
 8004b86:	d1f6      	bne.n	8004b76 <UART_WaitOnFlagUntilTimeout+0x94>
        ATOMIC_CLEAR_BIT(huart->Instance->CR3, USART_CR3_EIE);
 8004b88:	682a      	ldr	r2, [r5, #0]
   __ASM volatile ("ldrex %0, %1" : "=r" (result) : "Q" (*addr) );
 8004b8a:	f102 0308 	add.w	r3, r2, #8
 8004b8e:	e853 3f00 	ldrex	r3, [r3]
 8004b92:	f023 0301 	bic.w	r3, r3, #1
   __ASM volatile ("strex %0, %2, %1" : "=&r" (result), "=Q" (*addr) : "r" (value) );
 8004b96:	3208      	adds	r2, #8
 8004b98:	e842 3100 	strex	r1, r3, [r2]
 8004b9c:	2900      	cmp	r1, #0
 8004b9e:	d1f3      	bne.n	8004b88 <UART_WaitOnFlagUntilTimeout+0xa6>
        huart->gState = HAL_UART_STATE_READY;
 8004ba0:	2320      	movs	r3, #32
 8004ba2:	f8c5 3088 	str.w	r3, [r5, #136]	; 0x88
        huart->RxState = HAL_UART_STATE_READY;
 8004ba6:	f8c5 308c 	str.w	r3, [r5, #140]	; 0x8c
        __HAL_UNLOCK(huart);
 8004baa:	2300      	movs	r3, #0
 8004bac:	f885 3084 	strb.w	r3, [r5, #132]	; 0x84
        return HAL_TIMEOUT;
 8004bb0:	2003      	movs	r0, #3
 8004bb2:	e000      	b.n	8004bb6 <UART_WaitOnFlagUntilTimeout+0xd4>
  return HAL_OK;
 8004bb4:	2000      	movs	r0, #0
}
 8004bb6:	e8bd 83f8 	ldmia.w	sp!, {r3, r4, r5, r6, r7, r8, r9, pc}

08004bba <UART_CheckIdleState>:
{
 8004bba:	b530      	push	{r4, r5, lr}
 8004bbc:	b083      	sub	sp, #12
 8004bbe:	4604      	mov	r4, r0
  huart->ErrorCode = HAL_UART_ERROR_NONE;
 8004bc0:	2300      	movs	r3, #0
 8004bc2:	f8c0 3090 	str.w	r3, [r0, #144]	; 0x90
  tickstart = HAL_GetTick();
 8004bc6:	f7fb fee9 	bl	800099c <HAL_GetTick>
 8004bca:	4605      	mov	r5, r0
  if ((huart->Instance->CR1 & USART_CR1_TE) == USART_CR1_TE)
 8004bcc:	6822      	ldr	r2, [r4, #0]
 8004bce:	6812      	ldr	r2, [r2, #0]
 8004bd0:	f012 0f08 	tst.w	r2, #8
 8004bd4:	d110      	bne.n	8004bf8 <UART_CheckIdleState+0x3e>
  if ((huart->Instance->CR1 & USART_CR1_RE) == USART_CR1_RE)
 8004bd6:	6823      	ldr	r3, [r4, #0]
 8004bd8:	681b      	ldr	r3, [r3, #0]
 8004bda:	f013 0f04 	tst.w	r3, #4
 8004bde:	d119      	bne.n	8004c14 <UART_CheckIdleState+0x5a>
  huart->gState = HAL_UART_STATE_READY;
 8004be0:	2320      	movs	r3, #32
 8004be2:	f8c4 3088 	str.w	r3, [r4, #136]	; 0x88
  huart->RxState = HAL_UART_STATE_READY;
 8004be6:	f8c4 308c 	str.w	r3, [r4, #140]	; 0x8c
  huart->ReceptionType = HAL_UART_RECEPTION_STANDARD;
 8004bea:	2000      	movs	r0, #0
 8004bec:	66e0      	str	r0, [r4, #108]	; 0x6c
  huart->RxEventType = HAL_UART_RXEVENT_TC;
 8004bee:	6720      	str	r0, [r4, #112]	; 0x70
  __HAL_UNLOCK(huart);
 8004bf0:	f884 0084 	strb.w	r0, [r4, #132]	; 0x84
}
 8004bf4:	b003      	add	sp, #12
 8004bf6:	bd30      	pop	{r4, r5, pc}
    if (UART_WaitOnFlagUntilTimeout(huart, USART_ISR_TEACK, RESET, tickstart, HAL_UART_TIMEOUT_VALUE) != HAL_OK)
 8004bf8:	f06f 437e 	mvn.w	r3, #4261412864	; 0xfe000000
 8004bfc:	9300      	str	r3, [sp, #0]
 8004bfe:	4603      	mov	r3, r0
 8004c00:	2200      	movs	r2, #0
 8004c02:	f44f 1100 	mov.w	r1, #2097152	; 0x200000
 8004c06:	4620      	mov	r0, r4
 8004c08:	f7ff ff6b 	bl	8004ae2 <UART_WaitOnFlagUntilTimeout>
 8004c0c:	2800      	cmp	r0, #0
 8004c0e:	d0e2      	beq.n	8004bd6 <UART_CheckIdleState+0x1c>
      return HAL_TIMEOUT;
 8004c10:	2003      	movs	r0, #3
 8004c12:	e7ef      	b.n	8004bf4 <UART_CheckIdleState+0x3a>
    if (UART_WaitOnFlagUntilTimeout(huart, USART_ISR_REACK, RESET, tickstart, HAL_UART_TIMEOUT_VALUE) != HAL_OK)
 8004c14:	f06f 437e 	mvn.w	r3, #4261412864	; 0xfe000000
 8004c18:	9300      	str	r3, [sp, #0]
 8004c1a:	462b      	mov	r3, r5
 8004c1c:	2200      	movs	r2, #0
 8004c1e:	f44f 0180 	mov.w	r1, #4194304	; 0x400000
 8004c22:	4620      	mov	r0, r4
 8004c24:	f7ff ff5d 	bl	8004ae2 <UART_WaitOnFlagUntilTimeout>
 8004c28:	2800      	cmp	r0, #0
 8004c2a:	d0d9      	beq.n	8004be0 <UART_CheckIdleState+0x26>
      return HAL_TIMEOUT;
 8004c2c:	2003      	movs	r0, #3
 8004c2e:	e7e1      	b.n	8004bf4 <UART_CheckIdleState+0x3a>

08004c30 <HAL_UART_Init>:
  if (huart == NULL)
 8004c30:	b378      	cbz	r0, 8004c92 <HAL_UART_Init+0x62>
{
 8004c32:	b510      	push	{r4, lr}
 8004c34:	4604      	mov	r4, r0
  if (huart->gState == HAL_UART_STATE_RESET)
 8004c36:	f8d0 3088 	ldr.w	r3, [r0, #136]	; 0x88
 8004c3a:	b30b      	cbz	r3, 8004c80 <HAL_UART_Init+0x50>
  huart->gState = HAL_UART_STATE_BUSY;
 8004c3c:	2324      	movs	r3, #36	; 0x24
 8004c3e:	f8c4 3088 	str.w	r3, [r4, #136]	; 0x88
  __HAL_UART_DISABLE(huart);
 8004c42:	6822      	ldr	r2, [r4, #0]
 8004c44:	6813      	ldr	r3, [r2, #0]
 8004c46:	f023 0301 	bic.w	r3, r3, #1
 8004c4a:	6013      	str	r3, [r2, #0]
  if (UART_SetConfig(huart) == HAL_ERROR)
 8004c4c:	4620      	mov	r0, r4
 8004c4e:	f7ff fd7d 	bl	800474c <UART_SetConfig>
 8004c52:	2801      	cmp	r0, #1
 8004c54:	d013      	beq.n	8004c7e <HAL_UART_Init+0x4e>
  if (huart->AdvancedInit.AdvFeatureInit != UART_ADVFEATURE_NO_INIT)
 8004c56:	6aa3      	ldr	r3, [r4, #40]	; 0x28
 8004c58:	b9bb      	cbnz	r3, 8004c8a <HAL_UART_Init+0x5a>
  CLEAR_BIT(huart->Instance->CR2, (USART_CR2_LINEN | USART_CR2_CLKEN));
 8004c5a:	6822      	ldr	r2, [r4, #0]
 8004c5c:	6853      	ldr	r3, [r2, #4]
 8004c5e:	f423 4390 	bic.w	r3, r3, #18432	; 0x4800
 8004c62:	6053      	str	r3, [r2, #4]
  CLEAR_BIT(huart->Instance->CR3, (USART_CR3_SCEN | USART_CR3_HDSEL | USART_CR3_IREN));
 8004c64:	6822      	ldr	r2, [r4, #0]
 8004c66:	6893      	ldr	r3, [r2, #8]
 8004c68:	f023 032a 	bic.w	r3, r3, #42	; 0x2a
 8004c6c:	6093      	str	r3, [r2, #8]
  __HAL_UART_ENABLE(huart);
 8004c6e:	6822      	ldr	r2, [r4, #0]
 8004c70:	6813      	ldr	r3, [r2, #0]
 8004c72:	f043 0301 	orr.w	r3, r3, #1
 8004c76:	6013      	str	r3, [r2, #0]
  return (UART_CheckIdleState(huart));
 8004c78:	4620      	mov	r0, r4
 8004c7a:	f7ff ff9e 	bl	8004bba <UART_CheckIdleState>
}
 8004c7e:	bd10      	pop	{r4, pc}
    huart->Lock = HAL_UNLOCKED;
 8004c80:	f880 3084 	strb.w	r3, [r0, #132]	; 0x84
    HAL_UART_MspInit(huart);
 8004c84:	f7fc f8b2 	bl	8000dec <HAL_UART_MspInit>
 8004c88:	e7d8      	b.n	8004c3c <HAL_UART_Init+0xc>
    UART_AdvFeatureConfig(huart);
 8004c8a:	4620      	mov	r0, r4
 8004c8c:	f7ff fec4 	bl	8004a18 <UART_AdvFeatureConfig>
 8004c90:	e7e3      	b.n	8004c5a <HAL_UART_Init+0x2a>
    return HAL_ERROR;
 8004c92:	2001      	movs	r0, #1
}
 8004c94:	4770      	bx	lr
	...

08004c98 <UART_Start_Receive_IT>:
{
 8004c98:	b410      	push	{r4}
  huart->pRxBuffPtr  = pData;
 8004c9a:	6581      	str	r1, [r0, #88]	; 0x58
  huart->RxXferSize  = Size;
 8004c9c:	f8a0 205c 	strh.w	r2, [r0, #92]	; 0x5c
  huart->RxXferCount = Size;
 8004ca0:	f8a0 205e 	strh.w	r2, [r0, #94]	; 0x5e
  huart->RxISR       = NULL;
 8004ca4:	2300      	movs	r3, #0
 8004ca6:	6743      	str	r3, [r0, #116]	; 0x74
  UART_MASK_COMPUTATION(huart);
 8004ca8:	6883      	ldr	r3, [r0, #8]
 8004caa:	f5b3 5f80 	cmp.w	r3, #4096	; 0x1000
 8004cae:	d006      	beq.n	8004cbe <UART_Start_Receive_IT+0x26>
 8004cb0:	b9a3      	cbnz	r3, 8004cdc <UART_Start_Receive_IT+0x44>
 8004cb2:	6903      	ldr	r3, [r0, #16]
 8004cb4:	b973      	cbnz	r3, 8004cd4 <UART_Start_Receive_IT+0x3c>
 8004cb6:	23ff      	movs	r3, #255	; 0xff
 8004cb8:	f8a0 3060 	strh.w	r3, [r0, #96]	; 0x60
 8004cbc:	e014      	b.n	8004ce8 <UART_Start_Receive_IT+0x50>
 8004cbe:	6903      	ldr	r3, [r0, #16]
 8004cc0:	b923      	cbnz	r3, 8004ccc <UART_Start_Receive_IT+0x34>
 8004cc2:	f240 13ff 	movw	r3, #511	; 0x1ff
 8004cc6:	f8a0 3060 	strh.w	r3, [r0, #96]	; 0x60
 8004cca:	e00d      	b.n	8004ce8 <UART_Start_Receive_IT+0x50>
 8004ccc:	23ff      	movs	r3, #255	; 0xff
 8004cce:	f8a0 3060 	strh.w	r3, [r0, #96]	; 0x60
 8004cd2:	e009      	b.n	8004ce8 <UART_Start_Receive_IT+0x50>
 8004cd4:	237f      	movs	r3, #127	; 0x7f
 8004cd6:	f8a0 3060 	strh.w	r3, [r0, #96]	; 0x60
 8004cda:	e005      	b.n	8004ce8 <UART_Start_Receive_IT+0x50>
 8004cdc:	f1b3 5f80 	cmp.w	r3, #268435456	; 0x10000000
 8004ce0:	d02d      	beq.n	8004d3e <UART_Start_Receive_IT+0xa6>
 8004ce2:	2300      	movs	r3, #0
 8004ce4:	f8a0 3060 	strh.w	r3, [r0, #96]	; 0x60
  huart->ErrorCode = HAL_UART_ERROR_NONE;
 8004ce8:	2300      	movs	r3, #0
 8004cea:	f8c0 3090 	str.w	r3, [r0, #144]	; 0x90
  huart->RxState = HAL_UART_STATE_BUSY_RX;
 8004cee:	2322      	movs	r3, #34	; 0x22
 8004cf0:	f8c0 308c 	str.w	r3, [r0, #140]	; 0x8c
  ATOMIC_SET_BIT(huart->Instance->CR3, USART_CR3_EIE);
 8004cf4:	6801      	ldr	r1, [r0, #0]
   __ASM volatile ("ldrex %0, %1" : "=r" (result) : "Q" (*addr) );
 8004cf6:	f101 0308 	add.w	r3, r1, #8
 8004cfa:	e853 3f00 	ldrex	r3, [r3]
 8004cfe:	f043 0301 	orr.w	r3, r3, #1
   __ASM volatile ("strex %0, %2, %1" : "=&r" (result), "=Q" (*addr) : "r" (value) );
 8004d02:	3108      	adds	r1, #8
 8004d04:	e841 3400 	strex	r4, r3, [r1]
 8004d08:	2c00      	cmp	r4, #0
 8004d0a:	d1f3      	bne.n	8004cf4 <UART_Start_Receive_IT+0x5c>
  if ((huart->FifoMode == UART_FIFOMODE_ENABLE) && (Size >= huart->NbRxDataToProcess))
 8004d0c:	6e43      	ldr	r3, [r0, #100]	; 0x64
 8004d0e:	f1b3 5f00 	cmp.w	r3, #536870912	; 0x20000000
 8004d12:	d01e      	beq.n	8004d52 <UART_Start_Receive_IT+0xba>
    if ((huart->Init.WordLength == UART_WORDLENGTH_9B) && (huart->Init.Parity == UART_PARITY_NONE))
 8004d14:	6883      	ldr	r3, [r0, #8]
 8004d16:	f5b3 5f80 	cmp.w	r3, #4096	; 0x1000
 8004d1a:	d042      	beq.n	8004da2 <UART_Start_Receive_IT+0x10a>
      huart->RxISR = UART_RxISR_8BIT;
 8004d1c:	4b29      	ldr	r3, [pc, #164]	; (8004dc4 <UART_Start_Receive_IT+0x12c>)
 8004d1e:	6743      	str	r3, [r0, #116]	; 0x74
    if (huart->Init.Parity != UART_PARITY_NONE)
 8004d20:	6903      	ldr	r3, [r0, #16]
 8004d22:	2b00      	cmp	r3, #0
 8004d24:	d043      	beq.n	8004dae <UART_Start_Receive_IT+0x116>
      ATOMIC_SET_BIT(huart->Instance->CR1, USART_CR1_PEIE | USART_CR1_RXNEIE_RXFNEIE);
 8004d26:	6802      	ldr	r2, [r0, #0]
   __ASM volatile ("ldrex %0, %1" : "=r" (result) : "Q" (*addr) );
 8004d28:	e852 3f00 	ldrex	r3, [r2]
 8004d2c:	f443 7390 	orr.w	r3, r3, #288	; 0x120
   __ASM volatile ("strex %0, %2, %1" : "=&r" (result), "=Q" (*addr) : "r" (value) );
 8004d30:	e842 3100 	strex	r1, r3, [r2]
 8004d34:	2900      	cmp	r1, #0
 8004d36:	d1f6      	bne.n	8004d26 <UART_Start_Receive_IT+0x8e>
}
 8004d38:	2000      	movs	r0, #0
 8004d3a:	bc10      	pop	{r4}
 8004d3c:	4770      	bx	lr
  UART_MASK_COMPUTATION(huart);
 8004d3e:	6903      	ldr	r3, [r0, #16]
 8004d40:	b91b      	cbnz	r3, 8004d4a <UART_Start_Receive_IT+0xb2>
 8004d42:	237f      	movs	r3, #127	; 0x7f
 8004d44:	f8a0 3060 	strh.w	r3, [r0, #96]	; 0x60
 8004d48:	e7ce      	b.n	8004ce8 <UART_Start_Receive_IT+0x50>
 8004d4a:	233f      	movs	r3, #63	; 0x3f
 8004d4c:	f8a0 3060 	strh.w	r3, [r0, #96]	; 0x60
 8004d50:	e7ca      	b.n	8004ce8 <UART_Start_Receive_IT+0x50>
  if ((huart->FifoMode == UART_FIFOMODE_ENABLE) && (Size >= huart->NbRxDataToProcess))
 8004d52:	f8b0 3068 	ldrh.w	r3, [r0, #104]	; 0x68
 8004d56:	4293      	cmp	r3, r2
 8004d58:	d8dc      	bhi.n	8004d14 <UART_Start_Receive_IT+0x7c>
    if ((huart->Init.WordLength == UART_WORDLENGTH_9B) && (huart->Init.Parity == UART_PARITY_NONE))
 8004d5a:	6883      	ldr	r3, [r0, #8]
 8004d5c:	f5b3 5f80 	cmp.w	r3, #4096	; 0x1000
 8004d60:	d019      	beq.n	8004d96 <UART_Start_Receive_IT+0xfe>
      huart->RxISR = UART_RxISR_8BIT_FIFOEN;
 8004d62:	4b19      	ldr	r3, [pc, #100]	; (8004dc8 <UART_Start_Receive_IT+0x130>)
 8004d64:	6743      	str	r3, [r0, #116]	; 0x74
    if (huart->Init.Parity != UART_PARITY_NONE)
 8004d66:	6903      	ldr	r3, [r0, #16]
 8004d68:	b143      	cbz	r3, 8004d7c <UART_Start_Receive_IT+0xe4>
      ATOMIC_SET_BIT(huart->Instance->CR1, USART_CR1_PEIE);
 8004d6a:	6802      	ldr	r2, [r0, #0]
   __ASM volatile ("ldrex %0, %1" : "=r" (result) : "Q" (*addr) );
 8004d6c:	e852 3f00 	ldrex	r3, [r2]
 8004d70:	f443 7380 	orr.w	r3, r3, #256	; 0x100
   __ASM volatile ("strex %0, %2, %1" : "=&r" (result), "=Q" (*addr) : "r" (value) );
 8004d74:	e842 3100 	strex	r1, r3, [r2]
 8004d78:	2900      	cmp	r1, #0
 8004d7a:	d1f6      	bne.n	8004d6a <UART_Start_Receive_IT+0xd2>
    ATOMIC_SET_BIT(huart->Instance->CR3, USART_CR3_RXFTIE);
 8004d7c:	6802      	ldr	r2, [r0, #0]
   __ASM volatile ("ldrex %0, %1" : "=r" (result) : "Q" (*addr) );
 8004d7e:	f102 0308 	add.w	r3, r2, #8
 8004d82:	e853 3f00 	ldrex	r3, [r3]
 8004d86:	f043 5380 	orr.w	r3, r3, #268435456	; 0x10000000
   __ASM volatile ("strex %0, %2, %1" : "=&r" (result), "=Q" (*addr) : "r" (value) );
 8004d8a:	3208      	adds	r2, #8
 8004d8c:	e842 3100 	strex	r1, r3, [r2]
 8004d90:	2900      	cmp	r1, #0
 8004d92:	d1f3      	bne.n	8004d7c <UART_Start_Receive_IT+0xe4>
 8004d94:	e7d0      	b.n	8004d38 <UART_Start_Receive_IT+0xa0>
    if ((huart->Init.WordLength == UART_WORDLENGTH_9B) && (huart->Init.Parity == UART_PARITY_NONE))
 8004d96:	6903      	ldr	r3, [r0, #16]
 8004d98:	2b00      	cmp	r3, #0
 8004d9a:	d1e2      	bne.n	8004d62 <UART_Start_Receive_IT+0xca>
      huart->RxISR = UART_RxISR_16BIT_FIFOEN;
 8004d9c:	4b0b      	ldr	r3, [pc, #44]	; (8004dcc <UART_Start_Receive_IT+0x134>)
 8004d9e:	6743      	str	r3, [r0, #116]	; 0x74
 8004da0:	e7e1      	b.n	8004d66 <UART_Start_Receive_IT+0xce>
    if ((huart->Init.WordLength == UART_WORDLENGTH_9B) && (huart->Init.Parity == UART_PARITY_NONE))
 8004da2:	6903      	ldr	r3, [r0, #16]
 8004da4:	2b00      	cmp	r3, #0
 8004da6:	d1b9      	bne.n	8004d1c <UART_Start_Receive_IT+0x84>
      huart->RxISR = UART_RxISR_16BIT;
 8004da8:	4b09      	ldr	r3, [pc, #36]	; (8004dd0 <UART_Start_Receive_IT+0x138>)
 8004daa:	6743      	str	r3, [r0, #116]	; 0x74
 8004dac:	e7b8      	b.n	8004d20 <UART_Start_Receive_IT+0x88>
      ATOMIC_SET_BIT(huart->Instance->CR1, USART_CR1_RXNEIE_RXFNEIE);
 8004dae:	6802      	ldr	r2, [r0, #0]
   __ASM volatile ("ldrex %0, %1" : "=r" (result) : "Q" (*addr) );
 8004db0:	e852 3f00 	ldrex	r3, [r2]
 8004db4:	f043 0320 	orr.w	r3, r3, #32
   __ASM volatile ("strex %0, %2, %1" : "=&r" (result), "=Q" (*addr) : "r" (value) );
 8004db8:	e842 3100 	strex	r1, r3, [r2]
 8004dbc:	2900      	cmp	r1, #0
 8004dbe:	d1f6      	bne.n	8004dae <UART_Start_Receive_IT+0x116>
 8004dc0:	e7ba      	b.n	8004d38 <UART_Start_Receive_IT+0xa0>
 8004dc2:	bf00      	nop
 8004dc4:	08004205 	.word	0x08004205
 8004dc8:	080043b9 	.word	0x080043b9
 8004dcc:	08004585 	.word	0x08004585
 8004dd0:	080042e1 	.word	0x080042e1

08004dd4 <HAL_UART_Receive_IT>:
{
 8004dd4:	b538      	push	{r3, r4, r5, lr}
  if (huart->RxState == HAL_UART_STATE_READY)
 8004dd6:	f8d0 308c 	ldr.w	r3, [r0, #140]	; 0x8c
 8004dda:	2b20      	cmp	r3, #32
 8004ddc:	d117      	bne.n	8004e0e <HAL_UART_Receive_IT+0x3a>
    if ((pData == NULL) || (Size == 0U))
 8004dde:	b1c1      	cbz	r1, 8004e12 <HAL_UART_Receive_IT+0x3e>
 8004de0:	b1ca      	cbz	r2, 8004e16 <HAL_UART_Receive_IT+0x42>
    huart->ReceptionType = HAL_UART_RECEPTION_STANDARD;
 8004de2:	2300      	movs	r3, #0
 8004de4:	66c3      	str	r3, [r0, #108]	; 0x6c
    if (!(IS_LPUART_INSTANCE(huart->Instance)))
 8004de6:	6803      	ldr	r3, [r0, #0]
 8004de8:	4c0c      	ldr	r4, [pc, #48]	; (8004e1c <HAL_UART_Receive_IT+0x48>)
 8004dea:	42a3      	cmp	r3, r4
 8004dec:	d00c      	beq.n	8004e08 <HAL_UART_Receive_IT+0x34>
      if (READ_BIT(huart->Instance->CR2, USART_CR2_RTOEN) != 0U)
 8004dee:	685b      	ldr	r3, [r3, #4]
 8004df0:	f413 0f00 	tst.w	r3, #8388608	; 0x800000
 8004df4:	d008      	beq.n	8004e08 <HAL_UART_Receive_IT+0x34>
        ATOMIC_SET_BIT(huart->Instance->CR1, USART_CR1_RTOIE);
 8004df6:	6804      	ldr	r4, [r0, #0]
   __ASM volatile ("ldrex %0, %1" : "=r" (result) : "Q" (*addr) );
 8004df8:	e854 3f00 	ldrex	r3, [r4]
 8004dfc:	f043 6380 	orr.w	r3, r3, #67108864	; 0x4000000
   __ASM volatile ("strex %0, %2, %1" : "=&r" (result), "=Q" (*addr) : "r" (value) );
 8004e00:	e844 3500 	strex	r5, r3, [r4]
 8004e04:	2d00      	cmp	r5, #0
 8004e06:	d1f6      	bne.n	8004df6 <HAL_UART_Receive_IT+0x22>
    return (UART_Start_Receive_IT(huart, pData, Size));
 8004e08:	f7ff ff46 	bl	8004c98 <UART_Start_Receive_IT>
 8004e0c:	e000      	b.n	8004e10 <HAL_UART_Receive_IT+0x3c>
    return HAL_BUSY;
 8004e0e:	2002      	movs	r0, #2
}
 8004e10:	bd38      	pop	{r3, r4, r5, pc}
      return HAL_ERROR;
 8004e12:	2001      	movs	r0, #1
 8004e14:	e7fc      	b.n	8004e10 <HAL_UART_Receive_IT+0x3c>
 8004e16:	2001      	movs	r0, #1
 8004e18:	e7fa      	b.n	8004e10 <HAL_UART_Receive_IT+0x3c>
 8004e1a:	bf00      	nop
 8004e1c:	40008000 	.word	0x40008000

08004e20 <UARTEx_Wakeup_AddressConfig>:
  * @param huart           UART handle.
  * @param WakeUpSelection UART wake up from stop mode parameters.
  * @retval None
  */
static void UARTEx_Wakeup_AddressConfig(UART_HandleTypeDef *huart, UART_WakeUpTypeDef WakeUpSelection)
{
 8004e20:	b082      	sub	sp, #8
 8004e22:	ab02      	add	r3, sp, #8
 8004e24:	e903 0006 	stmdb	r3, {r1, r2}
  assert_param(IS_UART_ADDRESSLENGTH_DETECT(WakeUpSelection.AddressLength));

  /* Set the USART address length */
  MODIFY_REG(huart->Instance->CR2, USART_CR2_ADDM7, WakeUpSelection.AddressLength);
 8004e28:	6802      	ldr	r2, [r0, #0]
 8004e2a:	6853      	ldr	r3, [r2, #4]
 8004e2c:	f023 0310 	bic.w	r3, r3, #16
 8004e30:	f8bd 1004 	ldrh.w	r1, [sp, #4]
 8004e34:	430b      	orrs	r3, r1
 8004e36:	6053      	str	r3, [r2, #4]

  /* Set the USART address node */
  MODIFY_REG(huart->Instance->CR2, USART_CR2_ADD, ((uint32_t)WakeUpSelection.Address << UART_CR2_ADDRESS_LSB_POS));
 8004e38:	6802      	ldr	r2, [r0, #0]
 8004e3a:	6853      	ldr	r3, [r2, #4]
 8004e3c:	f023 437f 	bic.w	r3, r3, #4278190080	; 0xff000000
 8004e40:	f89d 1006 	ldrb.w	r1, [sp, #6]
 8004e44:	ea43 6301 	orr.w	r3, r3, r1, lsl #24
 8004e48:	6053      	str	r3, [r2, #4]
}
 8004e4a:	b002      	add	sp, #8
 8004e4c:	4770      	bx	lr
	...

08004e50 <UARTEx_SetNbDataToProcess>:
  uint8_t rx_fifo_threshold;
  uint8_t tx_fifo_threshold;
  static const uint8_t numerator[] = {1U, 1U, 1U, 3U, 7U, 1U, 0U, 0U};
  static const uint8_t denominator[] = {8U, 4U, 2U, 4U, 8U, 1U, 1U, 1U};

  if (huart->FifoMode == UART_FIFOMODE_DISABLE)
 8004e50:	6e43      	ldr	r3, [r0, #100]	; 0x64
 8004e52:	b92b      	cbnz	r3, 8004e60 <UARTEx_SetNbDataToProcess+0x10>
  {
    huart->NbTxDataToProcess = 1U;
 8004e54:	2301      	movs	r3, #1
 8004e56:	f8a0 306a 	strh.w	r3, [r0, #106]	; 0x6a
    huart->NbRxDataToProcess = 1U;
 8004e5a:	f8a0 3068 	strh.w	r3, [r0, #104]	; 0x68
 8004e5e:	4770      	bx	lr
{
 8004e60:	b430      	push	{r4, r5}
  }
  else
  {
    rx_fifo_depth = RX_FIFO_DEPTH;
    tx_fifo_depth = TX_FIFO_DEPTH;
    rx_fifo_threshold = (uint8_t)(READ_BIT(huart->Instance->CR3, USART_CR3_RXFTCFG) >> USART_CR3_RXFTCFG_Pos);
 8004e62:	6803      	ldr	r3, [r0, #0]
 8004e64:	689a      	ldr	r2, [r3, #8]
 8004e66:	f3c2 6242 	ubfx	r2, r2, #25, #3
    tx_fifo_threshold = (uint8_t)(READ_BIT(huart->Instance->CR3, USART_CR3_TXFTCFG) >> USART_CR3_TXFTCFG_Pos);
 8004e6a:	6899      	ldr	r1, [r3, #8]
 8004e6c:	0f49      	lsrs	r1, r1, #29
    huart->NbTxDataToProcess = ((uint16_t)tx_fifo_depth * numerator[tx_fifo_threshold]) /
 8004e6e:	4d09      	ldr	r5, [pc, #36]	; (8004e94 <UARTEx_SetNbDataToProcess+0x44>)
 8004e70:	5c6b      	ldrb	r3, [r5, r1]
 8004e72:	00db      	lsls	r3, r3, #3
                               (uint16_t)denominator[tx_fifo_threshold];
 8004e74:	4c08      	ldr	r4, [pc, #32]	; (8004e98 <UARTEx_SetNbDataToProcess+0x48>)
 8004e76:	5c61      	ldrb	r1, [r4, r1]
    huart->NbTxDataToProcess = ((uint16_t)tx_fifo_depth * numerator[tx_fifo_threshold]) /
 8004e78:	fb93 f3f1 	sdiv	r3, r3, r1
 8004e7c:	f8a0 306a 	strh.w	r3, [r0, #106]	; 0x6a
    huart->NbRxDataToProcess = ((uint16_t)rx_fifo_depth * numerator[rx_fifo_threshold]) /
 8004e80:	5cab      	ldrb	r3, [r5, r2]
 8004e82:	00db      	lsls	r3, r3, #3
                               (uint16_t)denominator[rx_fifo_threshold];
 8004e84:	5ca2      	ldrb	r2, [r4, r2]
    huart->NbRxDataToProcess = ((uint16_t)rx_fifo_depth * numerator[rx_fifo_threshold]) /
 8004e86:	fb93 f3f2 	sdiv	r3, r3, r2
 8004e8a:	f8a0 3068 	strh.w	r3, [r0, #104]	; 0x68
  }
}
 8004e8e:	bc30      	pop	{r4, r5}
 8004e90:	4770      	bx	lr
 8004e92:	bf00      	nop
 8004e94:	08009684 	.word	0x08009684
 8004e98:	0800967c 	.word	0x0800967c

08004e9c <HAL_UARTEx_WakeupCallback>:
}
 8004e9c:	4770      	bx	lr

08004e9e <HAL_UARTEx_RxFifoFullCallback>:
}
 8004e9e:	4770      	bx	lr

08004ea0 <HAL_UARTEx_TxFifoEmptyCallback>:
}
 8004ea0:	4770      	bx	lr

08004ea2 <HAL_UARTEx_StopModeWakeUpSourceConfig>:
{
 8004ea2:	b510      	push	{r4, lr}
 8004ea4:	b084      	sub	sp, #16
 8004ea6:	ab04      	add	r3, sp, #16
 8004ea8:	e903 0006 	stmdb	r3, {r1, r2}
  __HAL_LOCK(huart);
 8004eac:	f890 3084 	ldrb.w	r3, [r0, #132]	; 0x84
 8004eb0:	2b01      	cmp	r3, #1
 8004eb2:	d035      	beq.n	8004f20 <HAL_UARTEx_StopModeWakeUpSourceConfig+0x7e>
 8004eb4:	4604      	mov	r4, r0
 8004eb6:	2301      	movs	r3, #1
 8004eb8:	f880 3084 	strb.w	r3, [r0, #132]	; 0x84
  huart->gState = HAL_UART_STATE_BUSY;
 8004ebc:	2324      	movs	r3, #36	; 0x24
 8004ebe:	f8c0 3088 	str.w	r3, [r0, #136]	; 0x88
  __HAL_UART_DISABLE(huart);
 8004ec2:	6802      	ldr	r2, [r0, #0]
 8004ec4:	6813      	ldr	r3, [r2, #0]
 8004ec6:	f023 0301 	bic.w	r3, r3, #1
 8004eca:	6013      	str	r3, [r2, #0]
  MODIFY_REG(huart->Instance->CR3, USART_CR3_WUS, WakeUpSelection.WakeUpEvent);
 8004ecc:	6801      	ldr	r1, [r0, #0]
 8004ece:	688b      	ldr	r3, [r1, #8]
 8004ed0:	f423 1340 	bic.w	r3, r3, #3145728	; 0x300000
 8004ed4:	9a02      	ldr	r2, [sp, #8]
 8004ed6:	4313      	orrs	r3, r2
 8004ed8:	608b      	str	r3, [r1, #8]
  if (WakeUpSelection.WakeUpEvent == UART_WAKEUP_ON_ADDRESS)
 8004eda:	b1aa      	cbz	r2, 8004f08 <HAL_UARTEx_StopModeWakeUpSourceConfig+0x66>
  __HAL_UART_ENABLE(huart);
 8004edc:	6822      	ldr	r2, [r4, #0]
 8004ede:	6813      	ldr	r3, [r2, #0]
 8004ee0:	f043 0301 	orr.w	r3, r3, #1
 8004ee4:	6013      	str	r3, [r2, #0]
  tickstart = HAL_GetTick();
 8004ee6:	f7fb fd59 	bl	800099c <HAL_GetTick>
 8004eea:	4603      	mov	r3, r0
  if (UART_WaitOnFlagUntilTimeout(huart, USART_ISR_REACK, RESET, tickstart, HAL_UART_TIMEOUT_VALUE) != HAL_OK)
 8004eec:	f06f 427e 	mvn.w	r2, #4261412864	; 0xfe000000
 8004ef0:	9200      	str	r2, [sp, #0]
 8004ef2:	2200      	movs	r2, #0
 8004ef4:	f44f 0180 	mov.w	r1, #4194304	; 0x400000
 8004ef8:	4620      	mov	r0, r4
 8004efa:	f7ff fdf2 	bl	8004ae2 <UART_WaitOnFlagUntilTimeout>
 8004efe:	b948      	cbnz	r0, 8004f14 <HAL_UARTEx_StopModeWakeUpSourceConfig+0x72>
    huart->gState = HAL_UART_STATE_READY;
 8004f00:	2320      	movs	r3, #32
 8004f02:	f8c4 3088 	str.w	r3, [r4, #136]	; 0x88
 8004f06:	e006      	b.n	8004f16 <HAL_UARTEx_StopModeWakeUpSourceConfig+0x74>
    UARTEx_Wakeup_AddressConfig(huart, WakeUpSelection);
 8004f08:	ab04      	add	r3, sp, #16
 8004f0a:	e913 0006 	ldmdb	r3, {r1, r2}
 8004f0e:	f7ff ff87 	bl	8004e20 <UARTEx_Wakeup_AddressConfig>
 8004f12:	e7e3      	b.n	8004edc <HAL_UARTEx_StopModeWakeUpSourceConfig+0x3a>
    status = HAL_TIMEOUT;
 8004f14:	2003      	movs	r0, #3
  __HAL_UNLOCK(huart);
 8004f16:	2300      	movs	r3, #0
 8004f18:	f884 3084 	strb.w	r3, [r4, #132]	; 0x84
}
 8004f1c:	b004      	add	sp, #16
 8004f1e:	bd10      	pop	{r4, pc}
  __HAL_LOCK(huart);
 8004f20:	2002      	movs	r0, #2
 8004f22:	e7fb      	b.n	8004f1c <HAL_UARTEx_StopModeWakeUpSourceConfig+0x7a>

08004f24 <HAL_UARTEx_EnableStopMode>:
  __HAL_LOCK(huart);
 8004f24:	f890 3084 	ldrb.w	r3, [r0, #132]	; 0x84
 8004f28:	2b01      	cmp	r3, #1
 8004f2a:	d010      	beq.n	8004f4e <HAL_UARTEx_EnableStopMode+0x2a>
 8004f2c:	2301      	movs	r3, #1
 8004f2e:	f880 3084 	strb.w	r3, [r0, #132]	; 0x84
  ATOMIC_SET_BIT(huart->Instance->CR1, USART_CR1_UESM);
 8004f32:	6802      	ldr	r2, [r0, #0]
   __ASM volatile ("ldrex %0, %1" : "=r" (result) : "Q" (*addr) );
 8004f34:	e852 3f00 	ldrex	r3, [r2]
 8004f38:	f043 0302 	orr.w	r3, r3, #2
   __ASM volatile ("strex %0, %2, %1" : "=&r" (result), "=Q" (*addr) : "r" (value) );
 8004f3c:	e842 3100 	strex	r1, r3, [r2]
 8004f40:	2900      	cmp	r1, #0
 8004f42:	d1f6      	bne.n	8004f32 <HAL_UARTEx_EnableStopMode+0xe>
  __HAL_UNLOCK(huart);
 8004f44:	2300      	movs	r3, #0
 8004f46:	f880 3084 	strb.w	r3, [r0, #132]	; 0x84
  return HAL_OK;
 8004f4a:	4618      	mov	r0, r3
 8004f4c:	4770      	bx	lr
  __HAL_LOCK(huart);
 8004f4e:	2002      	movs	r0, #2
}
 8004f50:	4770      	bx	lr

08004f52 <HAL_UARTEx_EnableFifoMode>:
  __HAL_LOCK(huart);
 8004f52:	f890 3084 	ldrb.w	r3, [r0, #132]	; 0x84
 8004f56:	2b01      	cmp	r3, #1
 8004f58:	d01d      	beq.n	8004f96 <HAL_UARTEx_EnableFifoMode+0x44>
{
 8004f5a:	b510      	push	{r4, lr}
 8004f5c:	4604      	mov	r4, r0
  __HAL_LOCK(huart);
 8004f5e:	2301      	movs	r3, #1
 8004f60:	f880 3084 	strb.w	r3, [r0, #132]	; 0x84
  huart->gState = HAL_UART_STATE_BUSY;
 8004f64:	2324      	movs	r3, #36	; 0x24
 8004f66:	f8c0 3088 	str.w	r3, [r0, #136]	; 0x88
  tmpcr1 = READ_REG(huart->Instance->CR1);
 8004f6a:	6802      	ldr	r2, [r0, #0]
 8004f6c:	6813      	ldr	r3, [r2, #0]
  __HAL_UART_DISABLE(huart);
 8004f6e:	6811      	ldr	r1, [r2, #0]
 8004f70:	f021 0101 	bic.w	r1, r1, #1
 8004f74:	6011      	str	r1, [r2, #0]
  SET_BIT(tmpcr1, USART_CR1_FIFOEN);
 8004f76:	f043 5300 	orr.w	r3, r3, #536870912	; 0x20000000
  huart->FifoMode = UART_FIFOMODE_ENABLE;
 8004f7a:	f04f 5200 	mov.w	r2, #536870912	; 0x20000000
 8004f7e:	6642      	str	r2, [r0, #100]	; 0x64
  WRITE_REG(huart->Instance->CR1, tmpcr1);
 8004f80:	6802      	ldr	r2, [r0, #0]
 8004f82:	6013      	str	r3, [r2, #0]
  UARTEx_SetNbDataToProcess(huart);
 8004f84:	f7ff ff64 	bl	8004e50 <UARTEx_SetNbDataToProcess>
  huart->gState = HAL_UART_STATE_READY;
 8004f88:	2320      	movs	r3, #32
 8004f8a:	f8c4 3088 	str.w	r3, [r4, #136]	; 0x88
  __HAL_UNLOCK(huart);
 8004f8e:	2000      	movs	r0, #0
 8004f90:	f884 0084 	strb.w	r0, [r4, #132]	; 0x84
}
 8004f94:	bd10      	pop	{r4, pc}
  __HAL_LOCK(huart);
 8004f96:	2002      	movs	r0, #2
}
 8004f98:	4770      	bx	lr

08004f9a <HAL_UARTEx_SetTxFifoThreshold>:
{
 8004f9a:	b538      	push	{r3, r4, r5, lr}
  __HAL_LOCK(huart);
 8004f9c:	f890 3084 	ldrb.w	r3, [r0, #132]	; 0x84
 8004fa0:	2b01      	cmp	r3, #1
 8004fa2:	d01d      	beq.n	8004fe0 <HAL_UARTEx_SetTxFifoThreshold+0x46>
 8004fa4:	4604      	mov	r4, r0
 8004fa6:	2301      	movs	r3, #1
 8004fa8:	f880 3084 	strb.w	r3, [r0, #132]	; 0x84
  huart->gState = HAL_UART_STATE_BUSY;
 8004fac:	2324      	movs	r3, #36	; 0x24
 8004fae:	f8c0 3088 	str.w	r3, [r0, #136]	; 0x88
  tmpcr1 = READ_REG(huart->Instance->CR1);
 8004fb2:	6803      	ldr	r3, [r0, #0]
 8004fb4:	681d      	ldr	r5, [r3, #0]
  __HAL_UART_DISABLE(huart);
 8004fb6:	681a      	ldr	r2, [r3, #0]
 8004fb8:	f022 0201 	bic.w	r2, r2, #1
 8004fbc:	601a      	str	r2, [r3, #0]
  MODIFY_REG(huart->Instance->CR3, USART_CR3_TXFTCFG, Threshold);
 8004fbe:	6802      	ldr	r2, [r0, #0]
 8004fc0:	6893      	ldr	r3, [r2, #8]
 8004fc2:	f023 4360 	bic.w	r3, r3, #3758096384	; 0xe0000000
 8004fc6:	4319      	orrs	r1, r3
 8004fc8:	6091      	str	r1, [r2, #8]
  UARTEx_SetNbDataToProcess(huart);
 8004fca:	f7ff ff41 	bl	8004e50 <UARTEx_SetNbDataToProcess>
  WRITE_REG(huart->Instance->CR1, tmpcr1);
 8004fce:	6823      	ldr	r3, [r4, #0]
 8004fd0:	601d      	str	r5, [r3, #0]
  huart->gState = HAL_UART_STATE_READY;
 8004fd2:	2320      	movs	r3, #32
 8004fd4:	f8c4 3088 	str.w	r3, [r4, #136]	; 0x88
  __HAL_UNLOCK(huart);
 8004fd8:	2000      	movs	r0, #0
 8004fda:	f884 0084 	strb.w	r0, [r4, #132]	; 0x84
}
 8004fde:	bd38      	pop	{r3, r4, r5, pc}
  __HAL_LOCK(huart);
 8004fe0:	2002      	movs	r0, #2
 8004fe2:	e7fc      	b.n	8004fde <HAL_UARTEx_SetTxFifoThreshold+0x44>

08004fe4 <HAL_UARTEx_SetRxFifoThreshold>:
{
 8004fe4:	b538      	push	{r3, r4, r5, lr}
  __HAL_LOCK(huart);
 8004fe6:	f890 3084 	ldrb.w	r3, [r0, #132]	; 0x84
 8004fea:	2b01      	cmp	r3, #1
 8004fec:	d01d      	beq.n	800502a <HAL_UARTEx_SetRxFifoThreshold+0x46>
 8004fee:	4604      	mov	r4, r0
 8004ff0:	2301      	movs	r3, #1
 8004ff2:	f880 3084 	strb.w	r3, [r0, #132]	; 0x84
  huart->gState = HAL_UART_STATE_BUSY;
 8004ff6:	2324      	movs	r3, #36	; 0x24
 8004ff8:	f8c0 3088 	str.w	r3, [r0, #136]	; 0x88
  tmpcr1 = READ_REG(huart->Instance->CR1);
 8004ffc:	6803      	ldr	r3, [r0, #0]
 8004ffe:	681d      	ldr	r5, [r3, #0]
  __HAL_UART_DISABLE(huart);
 8005000:	681a      	ldr	r2, [r3, #0]
 8005002:	f022 0201 	bic.w	r2, r2, #1
 8005006:	601a      	str	r2, [r3, #0]
  MODIFY_REG(huart->Instance->CR3, USART_CR3_RXFTCFG, Threshold);
 8005008:	6802      	ldr	r2, [r0, #0]
 800500a:	6893      	ldr	r3, [r2, #8]
 800500c:	f023 6360 	bic.w	r3, r3, #234881024	; 0xe000000
 8005010:	4319      	orrs	r1, r3
 8005012:	6091      	str	r1, [r2, #8]
  UARTEx_SetNbDataToProcess(huart);
 8005014:	f7ff ff1c 	bl	8004e50 <UARTEx_SetNbDataToProcess>
  WRITE_REG(huart->Instance->CR1, tmpcr1);
 8005018:	6823      	ldr	r3, [r4, #0]
 800501a:	601d      	str	r5, [r3, #0]
  huart->gState = HAL_UART_STATE_READY;
 800501c:	2320      	movs	r3, #32
 800501e:	f8c4 3088 	str.w	r3, [r4, #136]	; 0x88
  __HAL_UNLOCK(huart);
 8005022:	2000      	movs	r0, #0
 8005024:	f884 0084 	strb.w	r0, [r4, #132]	; 0x84
}
 8005028:	bd38      	pop	{r3, r4, r5, pc}
  __HAL_LOCK(huart);
 800502a:	2002      	movs	r0, #2
 800502c:	e7fc      	b.n	8005028 <HAL_UARTEx_SetRxFifoThreshold+0x44>

0800502e <RadioCheckRfFrequency>:
}

static bool RadioCheckRfFrequency( uint32_t frequency )
{
    return true;
}
 800502e:	2001      	movs	r0, #1
 8005030:	4770      	bx	lr
	...

08005034 <RadioGetLoRaBandwidthInHz>:

static uint32_t RadioGetLoRaBandwidthInHz( RadioLoRaBandwidths_t bw )
{
    uint32_t bandwidthInHz = 0;

    switch( bw )
 8005034:	280a      	cmp	r0, #10
 8005036:	d807      	bhi.n	8005048 <RadioGetLoRaBandwidthInHz+0x14>
 8005038:	e8df f000 	tbb	[pc, r0]
 800503c:	17110b20 	.word	0x17110b20
 8005040:	061e1c1a 	.word	0x061e1c1a
 8005044:	0e08      	.short	0x0e08
 8005046:	14          	.byte	0x14
 8005047:	00          	.byte	0x00
 8005048:	2000      	movs	r0, #0
 800504a:	4770      	bx	lr
    {
    case LORA_BW_007:
        bandwidthInHz = 7812UL;
        break;
    case LORA_BW_010:
        bandwidthInHz = 10417UL;
 800504c:	f642 00b1 	movw	r0, #10417	; 0x28b1
        break;
 8005050:	4770      	bx	lr
    case LORA_BW_015:
        bandwidthInHz = 15625UL;
 8005052:	f643 5009 	movw	r0, #15625	; 0x3d09
        break;
 8005056:	4770      	bx	lr
    case LORA_BW_020:
        bandwidthInHz = 20833UL;
 8005058:	f245 1061 	movw	r0, #20833	; 0x5161
        break;
 800505c:	4770      	bx	lr
    case LORA_BW_031:
        bandwidthInHz = 31250UL;
 800505e:	f647 2012 	movw	r0, #31250	; 0x7a12
        break;
 8005062:	4770      	bx	lr
    case LORA_BW_041:
        bandwidthInHz = 41667UL;
 8005064:	f24a 20c3 	movw	r0, #41667	; 0xa2c3
        break;
 8005068:	4770      	bx	lr
    case LORA_BW_062:
        bandwidthInHz = 62500UL;
 800506a:	f24f 4024 	movw	r0, #62500	; 0xf424
        break;
 800506e:	4770      	bx	lr
    case LORA_BW_125:
        bandwidthInHz = 125000UL;
 8005070:	4804      	ldr	r0, [pc, #16]	; (8005084 <RadioGetLoRaBandwidthInHz+0x50>)
        break;
 8005072:	4770      	bx	lr
    case LORA_BW_250:
        bandwidthInHz = 250000UL;
 8005074:	4804      	ldr	r0, [pc, #16]	; (8005088 <RadioGetLoRaBandwidthInHz+0x54>)
        break;
 8005076:	4770      	bx	lr
    case LORA_BW_500:
        bandwidthInHz = 500000UL;
 8005078:	4804      	ldr	r0, [pc, #16]	; (800508c <RadioGetLoRaBandwidthInHz+0x58>)
        break;
 800507a:	4770      	bx	lr
        bandwidthInHz = 7812UL;
 800507c:	f641 6084 	movw	r0, #7812	; 0x1e84
    }

    return bandwidthInHz;
}
 8005080:	4770      	bx	lr
 8005082:	bf00      	nop
 8005084:	0001e848 	.word	0x0001e848
 8005088:	0003d090 	.word	0x0003d090
 800508c:	0007a120 	.word	0x0007a120

08005090 <RadioGetGfskTimeOnAirNumerator>:

static uint32_t RadioGetGfskTimeOnAirNumerator( uint32_t datarate, uint8_t coderate,
                                                uint16_t preambleLen, bool fixLen, uint8_t payloadLen,
                                                bool crcOn )
{
 8005090:	f89d 1004 	ldrb.w	r1, [sp, #4]
    return ( preambleLen << 3 ) +
 8005094:	00d2      	lsls	r2, r2, #3
           ( ( fixLen == false ) ? 8 : 0 ) + 24 +
 8005096:	b953      	cbnz	r3, 80050ae <RadioGetGfskTimeOnAirNumerator+0x1e>
 8005098:	2308      	movs	r3, #8
    return ( preambleLen << 3 ) +
 800509a:	441a      	add	r2, r3
           ( ( fixLen == false ) ? 8 : 0 ) + 24 +
 800509c:	3218      	adds	r2, #24
           ( ( payloadLen + ( ( crcOn == true ) ? 2 : 0 ) ) << 3 );
 800509e:	b141      	cbz	r1, 80050b2 <RadioGetGfskTimeOnAirNumerator+0x22>
 80050a0:	2302      	movs	r3, #2
 80050a2:	f89d 0000 	ldrb.w	r0, [sp]
 80050a6:	4418      	add	r0, r3
}
 80050a8:	eb02 00c0 	add.w	r0, r2, r0, lsl #3
 80050ac:	4770      	bx	lr
           ( ( fixLen == false ) ? 8 : 0 ) + 24 +
 80050ae:	2300      	movs	r3, #0
 80050b0:	e7f3      	b.n	800509a <RadioGetGfskTimeOnAirNumerator+0xa>
           ( ( payloadLen + ( ( crcOn == true ) ? 2 : 0 ) ) << 3 );
 80050b2:	2300      	movs	r3, #0
 80050b4:	e7f5      	b.n	80050a2 <RadioGetGfskTimeOnAirNumerator+0x12>

080050b6 <RadioGetLoRaTimeOnAirNumerator>:

static uint32_t RadioGetLoRaTimeOnAirNumerator( uint32_t bandwidth,
                                                uint32_t datarate, uint8_t coderate,
                                                uint16_t preambleLen, bool fixLen, uint8_t payloadLen,
                                                bool crcOn )
{
 80050b6:	b570      	push	{r4, r5, r6, lr}
 80050b8:	f89d 4010 	ldrb.w	r4, [sp, #16]
 80050bc:	f89d 5018 	ldrb.w	r5, [sp, #24]
    int32_t crDenom           = coderate + 4;
 80050c0:	3204      	adds	r2, #4
    bool    lowDatareOptimize = false;

    // Ensure that the preamble length is at least 12 symbols when using SF5 or SF6
    if( ( datarate == 5 ) || ( datarate == 6 ) )
 80050c2:	f1a1 0c05 	sub.w	ip, r1, #5
 80050c6:	f1bc 0f01 	cmp.w	ip, #1
 80050ca:	d931      	bls.n	8005130 <RadioGetLoRaTimeOnAirNumerator+0x7a>
        {
            preambleLen = 12;
        }
    }

    if( ( ( bandwidth == 0 ) && ( ( datarate == 11 ) || ( datarate == 12 ) ) ) ||
 80050cc:	b918      	cbnz	r0, 80050d6 <RadioGetLoRaTimeOnAirNumerator+0x20>
 80050ce:	f1a1 060b 	sub.w	r6, r1, #11
 80050d2:	2e01      	cmp	r6, #1
 80050d4:	d934      	bls.n	8005140 <RadioGetLoRaTimeOnAirNumerator+0x8a>
 80050d6:	2801      	cmp	r0, #1
 80050d8:	d02e      	beq.n	8005138 <RadioGetLoRaTimeOnAirNumerator+0x82>
    bool    lowDatareOptimize = false;
 80050da:	2600      	movs	r6, #0
    {
        lowDatareOptimize = true;
    }

    int32_t ceilDenominator;
    int32_t ceilNumerator = ( payloadLen << 3 ) +
 80050dc:	f89d c014 	ldrb.w	ip, [sp, #20]
 80050e0:	ea4f 0ccc 	mov.w	ip, ip, lsl #3
                            ( crcOn ? 16 : 0 ) -
 80050e4:	b385      	cbz	r5, 8005148 <RadioGetLoRaTimeOnAirNumerator+0x92>
 80050e6:	2010      	movs	r0, #16
    int32_t ceilNumerator = ( payloadLen << 3 ) +
 80050e8:	4484      	add	ip, r0
                            ( 4 * datarate ) +
 80050ea:	0088      	lsls	r0, r1, #2
                            ( crcOn ? 16 : 0 ) -
 80050ec:	ebac 0c81 	sub.w	ip, ip, r1, lsl #2
                            ( fixLen ? 0 : 20 );
 80050f0:	b364      	cbz	r4, 800514c <RadioGetLoRaTimeOnAirNumerator+0x96>
 80050f2:	f04f 0e00 	mov.w	lr, #0
                            ( 4 * datarate ) +
 80050f6:	44f4      	add	ip, lr

    if( datarate <= 6 )
 80050f8:	2906      	cmp	r1, #6
 80050fa:	d904      	bls.n	8005106 <RadioGetLoRaTimeOnAirNumerator+0x50>
    {
        ceilDenominator = 4 * datarate;
    }
    else
    {
        ceilNumerator += 8;
 80050fc:	f10c 0c08 	add.w	ip, ip, #8

        if( lowDatareOptimize == true )
 8005100:	b10e      	cbz	r6, 8005106 <RadioGetLoRaTimeOnAirNumerator+0x50>
        {
            ceilDenominator = 4 * ( datarate - 2 );
 8005102:	1e88      	subs	r0, r1, #2
 8005104:	0080      	lsls	r0, r0, #2
        {
            ceilDenominator = 4 * datarate;
        }
    }

    if( ceilNumerator < 0 )
 8005106:	f1bc 0f00 	cmp.w	ip, #0
 800510a:	db22      	blt.n	8005152 <RadioGetLoRaTimeOnAirNumerator+0x9c>
        ceilNumerator = 0;
    }

    // Perform integral ceil()
    int32_t intermediate =
        ( ( ceilNumerator + ceilDenominator - 1 ) / ceilDenominator ) * crDenom + preambleLen + 12;
 800510c:	4484      	add	ip, r0
 800510e:	f10c 3cff 	add.w	ip, ip, #4294967295
 8005112:	fb9c fcf0 	sdiv	ip, ip, r0
 8005116:	fb02 330c 	mla	r3, r2, ip, r3
    int32_t intermediate =
 800511a:	f103 000c 	add.w	r0, r3, #12

    if( datarate <= 6 )
 800511e:	2906      	cmp	r1, #6
 8005120:	d801      	bhi.n	8005126 <RadioGetLoRaTimeOnAirNumerator+0x70>
    {
        intermediate += 2;
 8005122:	f103 000e 	add.w	r0, r3, #14
    }

    return ( uint32_t )( ( 4 * intermediate + 1 ) * ( 1 << ( datarate - 2 ) ) );
 8005126:	0080      	lsls	r0, r0, #2
 8005128:	3001      	adds	r0, #1
 800512a:	3902      	subs	r1, #2
}
 800512c:	4088      	lsls	r0, r1
 800512e:	bd70      	pop	{r4, r5, r6, pc}
        if( preambleLen < 12 )
 8005130:	2b0b      	cmp	r3, #11
 8005132:	d8cb      	bhi.n	80050cc <RadioGetLoRaTimeOnAirNumerator+0x16>
            preambleLen = 12;
 8005134:	230c      	movs	r3, #12
 8005136:	e7c9      	b.n	80050cc <RadioGetLoRaTimeOnAirNumerator+0x16>
        ( ( bandwidth == 1 ) && ( datarate == 12 ) ) )
 8005138:	290c      	cmp	r1, #12
 800513a:	d003      	beq.n	8005144 <RadioGetLoRaTimeOnAirNumerator+0x8e>
    bool    lowDatareOptimize = false;
 800513c:	2600      	movs	r6, #0
 800513e:	e7cd      	b.n	80050dc <RadioGetLoRaTimeOnAirNumerator+0x26>
        lowDatareOptimize = true;
 8005140:	2601      	movs	r6, #1
 8005142:	e7cb      	b.n	80050dc <RadioGetLoRaTimeOnAirNumerator+0x26>
 8005144:	2601      	movs	r6, #1
 8005146:	e7c9      	b.n	80050dc <RadioGetLoRaTimeOnAirNumerator+0x26>
                            ( crcOn ? 16 : 0 ) -
 8005148:	2000      	movs	r0, #0
 800514a:	e7cd      	b.n	80050e8 <RadioGetLoRaTimeOnAirNumerator+0x32>
                            ( fixLen ? 0 : 20 );
 800514c:	f04f 0e14 	mov.w	lr, #20
 8005150:	e7d1      	b.n	80050f6 <RadioGetLoRaTimeOnAirNumerator+0x40>
        ceilNumerator = 0;
 8005152:	f04f 0c00 	mov.w	ip, #0
 8005156:	e7d9      	b.n	800510c <RadioGetLoRaTimeOnAirNumerator+0x56>

08005158 <RadioTimeOnAir>:

static uint32_t RadioTimeOnAir( RadioModems_t modem, uint32_t bandwidth,
                                uint32_t datarate, uint8_t coderate,
                                uint16_t preambleLen, bool fixLen, uint8_t payloadLen,
                                bool crcOn )
{
 8005158:	b5f0      	push	{r4, r5, r6, r7, lr}
 800515a:	b085      	sub	sp, #20
 800515c:	460e      	mov	r6, r1
 800515e:	4615      	mov	r5, r2
 8005160:	4619      	mov	r1, r3
 8005162:	f8bd 2028 	ldrh.w	r2, [sp, #40]	; 0x28
 8005166:	f89d 302c 	ldrb.w	r3, [sp, #44]	; 0x2c
 800516a:	f89d 7030 	ldrb.w	r7, [sp, #48]	; 0x30
 800516e:	f89d c034 	ldrb.w	ip, [sp, #52]	; 0x34
    uint32_t numerator = 0;
    uint32_t denominator = 1;

    switch( modem )
 8005172:	b148      	cbz	r0, 8005188 <RadioTimeOnAir+0x30>
 8005174:	2801      	cmp	r0, #1
 8005176:	d012      	beq.n	800519e <RadioTimeOnAir+0x46>
 8005178:	2501      	movs	r5, #1
 800517a:	2400      	movs	r4, #0
        break;
    default:
        break;
    }
    // Perform integral ceil()
    return DIVC( numerator, denominator );
 800517c:	442c      	add	r4, r5
 800517e:	1e60      	subs	r0, r4, #1
}
 8005180:	fbb0 f0f5 	udiv	r0, r0, r5
 8005184:	b005      	add	sp, #20
 8005186:	bdf0      	pop	{r4, r5, r6, r7, pc}
            numerator   = 1000U * RadioGetGfskTimeOnAirNumerator( datarate, coderate,
 8005188:	f8cd c004 	str.w	ip, [sp, #4]
 800518c:	9700      	str	r7, [sp, #0]
 800518e:	4628      	mov	r0, r5
 8005190:	f7ff ff7e 	bl	8005090 <RadioGetGfskTimeOnAirNumerator>
 8005194:	f44f 737a 	mov.w	r3, #1000	; 0x3e8
 8005198:	fb03 f400 	mul.w	r4, r3, r0
        break;
 800519c:	e7ee      	b.n	800517c <RadioTimeOnAir+0x24>
            numerator   = 1000U * RadioGetLoRaTimeOnAirNumerator( bandwidth, datarate,
 800519e:	f8cd c008 	str.w	ip, [sp, #8]
 80051a2:	9701      	str	r7, [sp, #4]
 80051a4:	9300      	str	r3, [sp, #0]
 80051a6:	4613      	mov	r3, r2
 80051a8:	460a      	mov	r2, r1
 80051aa:	4629      	mov	r1, r5
 80051ac:	4630      	mov	r0, r6
 80051ae:	f7ff ff82 	bl	80050b6 <RadioGetLoRaTimeOnAirNumerator>
 80051b2:	f44f 737a 	mov.w	r3, #1000	; 0x3e8
 80051b6:	fb03 f400 	mul.w	r4, r3, r0
            denominator = RadioGetLoRaBandwidthInHz( Bandwidths[bandwidth] );
 80051ba:	4b03      	ldr	r3, [pc, #12]	; (80051c8 <RadioTimeOnAir+0x70>)
 80051bc:	5d98      	ldrb	r0, [r3, r6]
 80051be:	f7ff ff39 	bl	8005034 <RadioGetLoRaBandwidthInHz>
 80051c2:	4605      	mov	r5, r0
        break;
 80051c4:	e7da      	b.n	800517c <RadioTimeOnAir+0x24>
 80051c6:	bf00      	nop
 80051c8:	080096f8 	.word	0x080096f8

080051cc <RadioOnTxTimeoutProcess>:
{
    RADIO_RX_TIMEOUT_PROCESS();
}

static void RadioOnTxTimeoutProcess( void )
{
 80051cc:	b508      	push	{r3, lr}
  *         @arg @ref LL_GPIO_PIN_ALL
  * @retval None
  */
__STATIC_INLINE void LL_GPIO_ResetOutputPin(GPIO_TypeDef *GPIOx, uint32_t PinMask)
{
  WRITE_REG(GPIOx->BRR, PinMask);
 80051ce:	4b05      	ldr	r3, [pc, #20]	; (80051e4 <RadioOnTxTimeoutProcess+0x18>)
 80051d0:	f44f 5200 	mov.w	r2, #8192	; 0x2000
 80051d4:	629a      	str	r2, [r3, #40]	; 0x28
    DBG_GPIO_RADIO_TX( RST );

    if( ( RadioEvents != NULL ) && ( RadioEvents->TxTimeout != NULL ) )
 80051d6:	4b04      	ldr	r3, [pc, #16]	; (80051e8 <RadioOnTxTimeoutProcess+0x1c>)
 80051d8:	681b      	ldr	r3, [r3, #0]
 80051da:	b113      	cbz	r3, 80051e2 <RadioOnTxTimeoutProcess+0x16>
 80051dc:	685b      	ldr	r3, [r3, #4]
 80051de:	b103      	cbz	r3, 80051e2 <RadioOnTxTimeoutProcess+0x16>
    {
        RadioEvents->TxTimeout( );
 80051e0:	4798      	blx	r3
    }
}
 80051e2:	bd08      	pop	{r3, pc}
 80051e4:	48000400 	.word	0x48000400
 80051e8:	200005d4 	.word	0x200005d4

080051ec <RadioOnTxTimeoutIrq>:
{
 80051ec:	b508      	push	{r3, lr}
    RADIO_TX_TIMEOUT_PROCESS();
 80051ee:	f7ff ffed 	bl	80051cc <RadioOnTxTimeoutProcess>
}
 80051f2:	bd08      	pop	{r3, pc}

080051f4 <RadioOnRxTimeoutProcess>:

static void RadioOnRxTimeoutProcess( void )
{
 80051f4:	b508      	push	{r3, lr}
 80051f6:	4b05      	ldr	r3, [pc, #20]	; (800520c <RadioOnRxTimeoutProcess+0x18>)
 80051f8:	f44f 5280 	mov.w	r2, #4096	; 0x1000
 80051fc:	629a      	str	r2, [r3, #40]	; 0x28
    DBG_GPIO_RADIO_RX( RST );

    if( ( RadioEvents != NULL ) && ( RadioEvents->RxTimeout != NULL ) )
 80051fe:	4b04      	ldr	r3, [pc, #16]	; (8005210 <RadioOnRxTimeoutProcess+0x1c>)
 8005200:	681b      	ldr	r3, [r3, #0]
 8005202:	b113      	cbz	r3, 800520a <RadioOnRxTimeoutProcess+0x16>
 8005204:	68db      	ldr	r3, [r3, #12]
 8005206:	b103      	cbz	r3, 800520a <RadioOnRxTimeoutProcess+0x16>
    {
        RadioEvents->RxTimeout( );
 8005208:	4798      	blx	r3
    }
}
 800520a:	bd08      	pop	{r3, pc}
 800520c:	48000400 	.word	0x48000400
 8005210:	200005d4 	.word	0x200005d4

08005214 <RadioOnRxTimeoutIrq>:
{
 8005214:	b508      	push	{r3, lr}
    RADIO_RX_TIMEOUT_PROCESS();
 8005216:	f7ff ffed 	bl	80051f4 <RadioOnRxTimeoutProcess>
}
 800521a:	bd08      	pop	{r3, pc}

0800521c <payload_integration>:
    SUBGRF_SetTxContinuousWave( );
}

#if (RADIO_SIGFOX_ENABLE == 1)
static void payload_integration( uint8_t *outBuffer, uint8_t *inBuffer, uint8_t size )
{
 800521c:	b570      	push	{r4, r5, r6, lr}
    uint8_t index_byte;
    uint8_t index_bit_out;
    uint8_t index_byte_out;
    int32_t i = 0;

    for( i = 0; i < size; i++ )
 800521e:	2300      	movs	r3, #0
 8005220:	e005      	b.n	800522e <payload_integration+0x12>
    {
        /* reverse all inputs */
        inBuffer[i] = ~inBuffer[i];
 8005222:	5ccc      	ldrb	r4, [r1, r3]
 8005224:	43e4      	mvns	r4, r4
 8005226:	54cc      	strb	r4, [r1, r3]
        /* init outBuffer */
        outBuffer[i] = 0;
 8005228:	2400      	movs	r4, #0
 800522a:	54c4      	strb	r4, [r0, r3]
    for( i = 0; i < size; i++ )
 800522c:	3301      	adds	r3, #1
 800522e:	429a      	cmp	r2, r3
 8005230:	dcf7      	bgt.n	8005222 <payload_integration+0x6>
    }

    for( i = 0; i < ( size * 8 ); i++ )
 8005232:	2300      	movs	r3, #0
    uint8_t prevInt = 0;
 8005234:	461c      	mov	r4, r3
 8005236:	e011      	b.n	800525c <payload_integration+0x40>
    {
        /* index to take bit in inBuffer */
        index_bit = 7 - ( i % 8 );
        index_byte = i / 8;
 8005238:	f103 0c07 	add.w	ip, r3, #7
 800523c:	e022      	b.n	8005284 <payload_integration+0x68>
        /* index to place bit in outBuffer is shifted 1 bit right */
        index_bit_out = 7 - ( ( i + 1 ) % 8 );
        index_byte_out = ( i + 1 ) / 8;
        /* extract current bit from input */
        currBit = ( inBuffer[index_byte] >> index_bit ) & 0x01;
 800523e:	b2ed      	uxtb	r5, r5
 8005240:	5d4d      	ldrb	r5, [r1, r5]
 8005242:	fa45 f50e 	asr.w	r5, r5, lr
 8005246:	f005 0501 	and.w	r5, r5, #1
        /* integration */
        prevInt ^= currBit;
 800524a:	406c      	eors	r4, r5
        /* write result integration in output */
        outBuffer[index_byte_out] |= ( prevInt << index_bit_out );
 800524c:	f3c6 05c7 	ubfx	r5, r6, #3, #8
 8005250:	fa04 fc0c 	lsl.w	ip, r4, ip
 8005254:	5d46      	ldrb	r6, [r0, r5]
 8005256:	ea46 060c 	orr.w	r6, r6, ip
 800525a:	5546      	strb	r6, [r0, r5]
    for( i = 0; i < ( size * 8 ); i++ )
 800525c:	ebb3 0fc2 	cmp.w	r3, r2, lsl #3
 8005260:	da26      	bge.n	80052b0 <payload_integration+0x94>
        index_bit = 7 - ( i % 8 );
 8005262:	425d      	negs	r5, r3
 8005264:	f003 0c07 	and.w	ip, r3, #7
 8005268:	f005 0507 	and.w	r5, r5, #7
 800526c:	bf58      	it	pl
 800526e:	f1c5 0c00 	rsbpl	ip, r5, #0
 8005272:	fa5f fe8c 	uxtb.w	lr, ip
 8005276:	f1ce 0e07 	rsb	lr, lr, #7
 800527a:	fa5f fe8e 	uxtb.w	lr, lr
        index_byte = i / 8;
 800527e:	469c      	mov	ip, r3
 8005280:	2b00      	cmp	r3, #0
 8005282:	dbd9      	blt.n	8005238 <payload_integration+0x1c>
 8005284:	ea4f 05ec 	mov.w	r5, ip, asr #3
        index_bit_out = 7 - ( ( i + 1 ) % 8 );
 8005288:	3301      	adds	r3, #1
 800528a:	425e      	negs	r6, r3
 800528c:	f003 0c07 	and.w	ip, r3, #7
 8005290:	f006 0607 	and.w	r6, r6, #7
 8005294:	bf58      	it	pl
 8005296:	f1c6 0c00 	rsbpl	ip, r6, #0
 800529a:	fa5f fc8c 	uxtb.w	ip, ip
 800529e:	f1cc 0c07 	rsb	ip, ip, #7
 80052a2:	fa5f fc8c 	uxtb.w	ip, ip
        index_byte_out = ( i + 1 ) / 8;
 80052a6:	461e      	mov	r6, r3
 80052a8:	2b00      	cmp	r3, #0
 80052aa:	dac8      	bge.n	800523e <payload_integration+0x22>
 80052ac:	1dde      	adds	r6, r3, #7
 80052ae:	e7c6      	b.n	800523e <payload_integration+0x22>
    }

    outBuffer[size] = ( prevInt << 7 ) | ( prevInt << 6 ) | ( ( ( !prevInt ) & 0x01 ) << 5 ) ;
 80052b0:	01a3      	lsls	r3, r4, #6
 80052b2:	ea43 13c4 	orr.w	r3, r3, r4, lsl #7
 80052b6:	b25b      	sxtb	r3, r3
 80052b8:	b91c      	cbnz	r4, 80052c2 <payload_integration+0xa6>
 80052ba:	2120      	movs	r1, #32
 80052bc:	430b      	orrs	r3, r1
 80052be:	5483      	strb	r3, [r0, r2]
}
 80052c0:	bd70      	pop	{r4, r5, r6, pc}
    outBuffer[size] = ( prevInt << 7 ) | ( prevInt << 6 ) | ( ( ( !prevInt ) & 0x01 ) << 5 ) ;
 80052c2:	2100      	movs	r1, #0
 80052c4:	e7fa      	b.n	80052bc <payload_integration+0xa0>

080052c6 <RadioLrFhssSetCfg>:
        return status;
    }
    SubgRf.lr_fhss.is_lr_fhss_on = true;
#endif /* RADIO_LR_FHSS_IS_ON == 1 */
    return  status;
}
 80052c6:	2001      	movs	r0, #1
 80052c8:	4770      	bx	lr

080052ca <RadioLrFhssGetTimeOnAirInMs>:

    return RADIO_STATUS_OK;
#else
    return RADIO_STATUS_UNSUPPORTED_FEATURE;
#endif /* RADIO_LR_FHSS_IS_ON */
 80052ca:	2001      	movs	r0, #1
 80052cc:	4770      	bx	lr
	...

080052d0 <RadioSetMaxPayloadLength>:
{
 80052d0:	b508      	push	{r3, lr}
    if( modem == MODEM_LORA )
 80052d2:	2801      	cmp	r0, #1
 80052d4:	d004      	beq.n	80052e0 <RadioSetMaxPayloadLength+0x10>
        if( SubgRf.PacketParams.Params.Gfsk.HeaderType == RADIO_PACKET_VARIABLE_LENGTH )
 80052d6:	4b0a      	ldr	r3, [pc, #40]	; (8005300 <RadioSetMaxPayloadLength+0x30>)
 80052d8:	7d5b      	ldrb	r3, [r3, #21]
 80052da:	2b01      	cmp	r3, #1
 80052dc:	d008      	beq.n	80052f0 <RadioSetMaxPayloadLength+0x20>
}
 80052de:	bd08      	pop	{r3, pc}
        SubgRf.PacketParams.Params.LoRa.PayloadLength = MaxPayloadLength = max;
 80052e0:	4b08      	ldr	r3, [pc, #32]	; (8005304 <RadioSetMaxPayloadLength+0x34>)
 80052e2:	7019      	strb	r1, [r3, #0]
 80052e4:	4806      	ldr	r0, [pc, #24]	; (8005300 <RadioSetMaxPayloadLength+0x30>)
 80052e6:	77c1      	strb	r1, [r0, #31]
        SUBGRF_SetPacketParams( &SubgRf.PacketParams );
 80052e8:	300e      	adds	r0, #14
 80052ea:	f001 fe3b 	bl	8006f64 <SUBGRF_SetPacketParams>
 80052ee:	e7f6      	b.n	80052de <RadioSetMaxPayloadLength+0xe>
            SubgRf.PacketParams.Params.Gfsk.PayloadLength = MaxPayloadLength = max;
 80052f0:	4b04      	ldr	r3, [pc, #16]	; (8005304 <RadioSetMaxPayloadLength+0x34>)
 80052f2:	7019      	strb	r1, [r3, #0]
 80052f4:	4802      	ldr	r0, [pc, #8]	; (8005300 <RadioSetMaxPayloadLength+0x30>)
 80052f6:	7581      	strb	r1, [r0, #22]
            SUBGRF_SetPacketParams( &SubgRf.PacketParams );
 80052f8:	300e      	adds	r0, #14
 80052fa:	f001 fe33 	bl	8006f64 <SUBGRF_SetPacketParams>
}
 80052fe:	e7ee      	b.n	80052de <RadioSetMaxPayloadLength+0xe>
 8005300:	200005f0 	.word	0x200005f0
 8005304:	2000002c 	.word	0x2000002c

08005308 <RadioRead>:
{
 8005308:	b508      	push	{r3, lr}
    return SUBGRF_ReadRegister( addr );
 800530a:	f001 f9c9 	bl	80066a0 <SUBGRF_ReadRegister>
}
 800530e:	bd08      	pop	{r3, pc}

08005310 <RadioWrite>:
{
 8005310:	b508      	push	{r3, lr}
    SUBGRF_WriteRegister( addr, data );
 8005312:	f001 f9b5 	bl	8006680 <SUBGRF_WriteRegister>
}
 8005316:	bd08      	pop	{r3, pc}

08005318 <RadioTxCw>:
{
 8005318:	b510      	push	{r4, lr}
    uint8_t paselect = SUBGRF_SetRfTxPower( power );
 800531a:	f001 ff4d 	bl	80071b8 <SUBGRF_SetRfTxPower>
 800531e:	4604      	mov	r4, r0
    SUBGRF_WriteRegister(REG_DRV_CTRL, 0x7 << 1);
 8005320:	210e      	movs	r1, #14
 8005322:	f640 101f 	movw	r0, #2335	; 0x91f
 8005326:	f001 f9ab 	bl	8006680 <SUBGRF_WriteRegister>
    SUBGRF_SetSwitch( paselect, RFSWITCH_TX );
 800532a:	2101      	movs	r1, #1
 800532c:	4620      	mov	r0, r4
 800532e:	f001 ff2f 	bl	8007190 <SUBGRF_SetSwitch>
    SUBGRF_SetTxContinuousWave( );
 8005332:	f001 fb75 	bl	8006a20 <SUBGRF_SetTxContinuousWave>
}
 8005336:	bd10      	pop	{r4, pc}

08005338 <RadioTxPrbs>:
{
 8005338:	b508      	push	{r3, lr}
    SUBGRF_SetSwitch( SubgRf.AntSwitchPaSelect, RFSWITCH_TX );
 800533a:	2101      	movs	r1, #1
 800533c:	4b07      	ldr	r3, [pc, #28]	; (800535c <RadioTxPrbs+0x24>)
 800533e:	f893 0056 	ldrb.w	r0, [r3, #86]	; 0x56
 8005342:	f001 ff25 	bl	8007190 <SUBGRF_SetSwitch>
    Radio.Write( SUBGHZ_GPKTCTL1AR, 0x2d );  // sel mode prbs9 instead of preamble
 8005346:	212d      	movs	r1, #45	; 0x2d
 8005348:	f44f 60d7 	mov.w	r0, #1720	; 0x6b8
 800534c:	f7ff ffe0 	bl	8005310 <RadioWrite>
    SUBGRF_SetTxInfinitePreamble( );
 8005350:	f001 fb6d 	bl	8006a2e <SUBGRF_SetTxInfinitePreamble>
    SUBGRF_SetTx( 0x0fffff );
 8005354:	4802      	ldr	r0, [pc, #8]	; (8005360 <RadioTxPrbs+0x28>)
 8005356:	f001 faa3 	bl	80068a0 <SUBGRF_SetTx>
}
 800535a:	bd08      	pop	{r3, pc}
 800535c:	200005f0 	.word	0x200005f0
 8005360:	000fffff 	.word	0x000fffff

08005364 <RadioSetRxDutyCycle>:
{
 8005364:	b570      	push	{r4, r5, r6, lr}
 8005366:	4604      	mov	r4, r0
 8005368:	460d      	mov	r5, r1
    SubgRf.RxDcPreambleDetectTimeout = 2 * rxTime + sleepTime;
 800536a:	eb01 0340 	add.w	r3, r1, r0, lsl #1
 800536e:	4e09      	ldr	r6, [pc, #36]	; (8005394 <RadioSetRxDutyCycle+0x30>)
 8005370:	65b3      	str	r3, [r6, #88]	; 0x58
    SUBGRF_SetDioIrqParams( IRQ_RADIO_ALL, IRQ_RADIO_ALL, IRQ_RADIO_NONE, IRQ_RADIO_NONE );
 8005372:	2300      	movs	r3, #0
 8005374:	461a      	mov	r2, r3
 8005376:	f64f 71ff 	movw	r1, #65535	; 0xffff
 800537a:	4608      	mov	r0, r1
 800537c:	f001 fc23 	bl	8006bc6 <SUBGRF_SetDioIrqParams>
    SUBGRF_SetSwitch( SubgRf.AntSwitchPaSelect, RFSWITCH_RX );
 8005380:	2100      	movs	r1, #0
 8005382:	f896 0056 	ldrb.w	r0, [r6, #86]	; 0x56
 8005386:	f001 ff03 	bl	8007190 <SUBGRF_SetSwitch>
    SUBGRF_SetRxDutyCycle( rxTime, sleepTime );
 800538a:	4629      	mov	r1, r5
 800538c:	4620      	mov	r0, r4
 800538e:	f001 fb17 	bl	80069c0 <SUBGRF_SetRxDutyCycle>
}
 8005392:	bd70      	pop	{r4, r5, r6, pc}
 8005394:	200005f0 	.word	0x200005f0

08005398 <RadioRxBoosted>:
{
 8005398:	b538      	push	{r3, r4, r5, lr}
 800539a:	4604      	mov	r4, r0
    if( 1UL == RFW_Is_Init() )
 800539c:	f001 ffea 	bl	8007374 <RFW_Is_Init>
 80053a0:	2801      	cmp	r0, #1
 80053a2:	d019      	beq.n	80053d8 <RadioRxBoosted+0x40>
        SUBGRF_SetDioIrqParams( IRQ_RX_DONE | IRQ_RX_TX_TIMEOUT | IRQ_CRC_ERROR | IRQ_HEADER_ERROR | IRQ_RX_DBG,
 80053a4:	2300      	movs	r3, #0
 80053a6:	461a      	mov	r2, r3
 80053a8:	f240 2162 	movw	r1, #610	; 0x262
 80053ac:	4608      	mov	r0, r1
 80053ae:	f001 fc0a 	bl	8006bc6 <SUBGRF_SetDioIrqParams>
    if( timeout != 0 )
 80053b2:	b9a4      	cbnz	r4, 80053de <RadioRxBoosted+0x46>
    SubgRf.RxDcPreambleDetectTimeout = 0;
 80053b4:	4c11      	ldr	r4, [pc, #68]	; (80053fc <RadioRxBoosted+0x64>)
 80053b6:	2100      	movs	r1, #0
 80053b8:	65a1      	str	r1, [r4, #88]	; 0x58
  WRITE_REG(GPIOx->BSRR, PinMask);
 80053ba:	4b11      	ldr	r3, [pc, #68]	; (8005400 <RadioRxBoosted+0x68>)
 80053bc:	f44f 5280 	mov.w	r2, #4096	; 0x1000
 80053c0:	619a      	str	r2, [r3, #24]
    SUBGRF_SetSwitch( SubgRf.AntSwitchPaSelect, RFSWITCH_RX );
 80053c2:	f894 0056 	ldrb.w	r0, [r4, #86]	; 0x56
 80053c6:	f001 fee3 	bl	8007190 <SUBGRF_SetSwitch>
    if( SubgRf.RxContinuous == true )
 80053ca:	7863      	ldrb	r3, [r4, #1]
 80053cc:	b183      	cbz	r3, 80053f0 <RadioRxBoosted+0x58>
        SUBGRF_SetRxBoosted( 0xFFFFFF ); // Rx Continuous
 80053ce:	f06f 407f 	mvn.w	r0, #4278190080	; 0xff000000
 80053d2:	f001 fad7 	bl	8006984 <SUBGRF_SetRxBoosted>
}
 80053d6:	bd38      	pop	{r3, r4, r5, pc}
        RFW_ReceiveInit();
 80053d8:	f001 ffd4 	bl	8007384 <RFW_ReceiveInit>
 80053dc:	e7e9      	b.n	80053b2 <RadioRxBoosted+0x1a>
        TimerSetValue( &RxTimeoutTimer, timeout );
 80053de:	4d09      	ldr	r5, [pc, #36]	; (8005404 <RadioRxBoosted+0x6c>)
 80053e0:	4621      	mov	r1, r4
 80053e2:	4628      	mov	r0, r5
 80053e4:	f002 fbfc 	bl	8007be0 <UTIL_TIMER_SetPeriod>
        TimerStart( &RxTimeoutTimer );
 80053e8:	4628      	mov	r0, r5
 80053ea:	f002 fbb3 	bl	8007b54 <UTIL_TIMER_Start>
 80053ee:	e7e1      	b.n	80053b4 <RadioRxBoosted+0x1c>
        SUBGRF_SetRxBoosted( SubgRf.RxTimeout << 6 );
 80053f0:	4b02      	ldr	r3, [pc, #8]	; (80053fc <RadioRxBoosted+0x64>)
 80053f2:	6898      	ldr	r0, [r3, #8]
 80053f4:	0180      	lsls	r0, r0, #6
 80053f6:	f001 fac5 	bl	8006984 <SUBGRF_SetRxBoosted>
}
 80053fa:	e7ec      	b.n	80053d6 <RadioRxBoosted+0x3e>
 80053fc:	200005f0 	.word	0x200005f0
 8005400:	48000400 	.word	0x48000400
 8005404:	200005d8 	.word	0x200005d8

08005408 <RadioStandby>:
{
 8005408:	b508      	push	{r3, lr}
    SUBGRF_SetStandby( STDBY_RC );
 800540a:	2000      	movs	r0, #0
 800540c:	f001 fa2e 	bl	800686c <SUBGRF_SetStandby>
}
 8005410:	bd08      	pop	{r3, pc}

08005412 <RadioGetStatus>:
{
 8005412:	b508      	push	{r3, lr}
    switch( SUBGRF_GetOperatingMode( ) )
 8005414:	f001 f928 	bl	8006668 <SUBGRF_GetOperatingMode>
 8005418:	2805      	cmp	r0, #5
 800541a:	d007      	beq.n	800542c <RadioGetStatus+0x1a>
 800541c:	2807      	cmp	r0, #7
 800541e:	d007      	beq.n	8005430 <RadioGetStatus+0x1e>
 8005420:	2804      	cmp	r0, #4
 8005422:	d001      	beq.n	8005428 <RadioGetStatus+0x16>
            return RF_IDLE;
 8005424:	2000      	movs	r0, #0
}
 8005426:	bd08      	pop	{r3, pc}
    switch( SUBGRF_GetOperatingMode( ) )
 8005428:	2002      	movs	r0, #2
 800542a:	e7fc      	b.n	8005426 <RadioGetStatus+0x14>
            return RF_RX_RUNNING;
 800542c:	2001      	movs	r0, #1
 800542e:	e7fa      	b.n	8005426 <RadioGetStatus+0x14>
            return RF_CAD;
 8005430:	2003      	movs	r0, #3
 8005432:	e7f8      	b.n	8005426 <RadioGetStatus+0x14>

08005434 <RadioIrqProcess>:
{
 8005434:	b530      	push	{r4, r5, lr}
 8005436:	b083      	sub	sp, #12
    uint8_t size = 0;
 8005438:	2300      	movs	r3, #0
 800543a:	f88d 3007 	strb.w	r3, [sp, #7]
    int32_t cfo = 0;
 800543e:	9300      	str	r3, [sp, #0]
    switch( SubgRf.RadioIrq )
 8005440:	4ba5      	ldr	r3, [pc, #660]	; (80056d8 <RadioIrqProcess+0x2a4>)
 8005442:	f8b3 3054 	ldrh.w	r3, [r3, #84]	; 0x54
 8005446:	2b20      	cmp	r3, #32
 8005448:	d829      	bhi.n	800549e <RadioIrqProcess+0x6a>
 800544a:	b21a      	sxth	r2, r3
 800544c:	2a00      	cmp	r2, #0
 800544e:	f000 8140 	beq.w	80056d2 <RadioIrqProcess+0x29e>
 8005452:	3b01      	subs	r3, #1
 8005454:	2b1f      	cmp	r3, #31
 8005456:	f200 813c 	bhi.w	80056d2 <RadioIrqProcess+0x29e>
 800545a:	e8df f013 	tbh	[pc, r3, lsl #1]
 800545e:	0063      	.short	0x0063
 8005460:	013a007f 	.word	0x013a007f
 8005464:	013a00f7 	.word	0x013a00f7
 8005468:	013a013a 	.word	0x013a013a
 800546c:	013a0127 	.word	0x013a0127
 8005470:	013a013a 	.word	0x013a013a
 8005474:	013a013a 	.word	0x013a013a
 8005478:	013a013a 	.word	0x013a013a
 800547c:	013a0134 	.word	0x013a0134
 8005480:	013a013a 	.word	0x013a013a
 8005484:	013a013a 	.word	0x013a013a
 8005488:	013a013a 	.word	0x013a013a
 800548c:	013a013a 	.word	0x013a013a
 8005490:	013a013a 	.word	0x013a013a
 8005494:	013a013a 	.word	0x013a013a
 8005498:	013a013a 	.word	0x013a013a
 800549c:	0155      	.short	0x0155
 800549e:	f5b3 7f80 	cmp.w	r3, #256	; 0x100
 80054a2:	f000 80b3 	beq.w	800560c <RadioIrqProcess+0x1d8>
 80054a6:	d928      	bls.n	80054fa <RadioIrqProcess+0xc6>
 80054a8:	f5b3 7f00 	cmp.w	r3, #512	; 0x200
 80054ac:	f040 8111 	bne.w	80056d2 <RadioIrqProcess+0x29e>
        MW_LOG( TS_ON, VLEVEL_M,  "IRQ_RX_TX_TIMEOUT\r\n" );
 80054b0:	4b8a      	ldr	r3, [pc, #552]	; (80056dc <RadioIrqProcess+0x2a8>)
 80054b2:	2201      	movs	r2, #1
 80054b4:	2100      	movs	r1, #0
 80054b6:	2002      	movs	r0, #2
 80054b8:	f002 f842 	bl	8007540 <UTIL_ADV_TRACE_COND_FSend>
        if( SUBGRF_GetOperatingMode( ) == MODE_TX )
 80054bc:	f001 f8d4 	bl	8006668 <SUBGRF_GetOperatingMode>
 80054c0:	2804      	cmp	r0, #4
 80054c2:	f000 80b0 	beq.w	8005626 <RadioIrqProcess+0x1f2>
        else if( SUBGRF_GetOperatingMode( ) == MODE_RX )
 80054c6:	f001 f8cf 	bl	8006668 <SUBGRF_GetOperatingMode>
 80054ca:	2805      	cmp	r0, #5
 80054cc:	f040 8101 	bne.w	80056d2 <RadioIrqProcess+0x29e>
  WRITE_REG(GPIOx->BRR, PinMask);
 80054d0:	4b83      	ldr	r3, [pc, #524]	; (80056e0 <RadioIrqProcess+0x2ac>)
 80054d2:	f44f 5280 	mov.w	r2, #4096	; 0x1000
 80054d6:	629a      	str	r2, [r3, #40]	; 0x28
            TimerStop( &RxTimeoutTimer );
 80054d8:	4882      	ldr	r0, [pc, #520]	; (80056e4 <RadioIrqProcess+0x2b0>)
 80054da:	f002 fae1 	bl	8007aa0 <UTIL_TIMER_Stop>
            SUBGRF_SetStandby( STDBY_RC );
 80054de:	2000      	movs	r0, #0
 80054e0:	f001 f9c4 	bl	800686c <SUBGRF_SetStandby>
            if( ( RadioEvents != NULL ) && ( RadioEvents->RxTimeout != NULL ) )
 80054e4:	4b80      	ldr	r3, [pc, #512]	; (80056e8 <RadioIrqProcess+0x2b4>)
 80054e6:	681b      	ldr	r3, [r3, #0]
 80054e8:	2b00      	cmp	r3, #0
 80054ea:	f000 80f2 	beq.w	80056d2 <RadioIrqProcess+0x29e>
 80054ee:	68db      	ldr	r3, [r3, #12]
 80054f0:	2b00      	cmp	r3, #0
 80054f2:	f000 80ee 	beq.w	80056d2 <RadioIrqProcess+0x29e>
                RadioEvents->RxTimeout( );
 80054f6:	4798      	blx	r3
 80054f8:	e0eb      	b.n	80056d2 <RadioIrqProcess+0x29e>
    switch( SubgRf.RadioIrq )
 80054fa:	2b40      	cmp	r3, #64	; 0x40
 80054fc:	f000 811d 	beq.w	800573a <RadioIrqProcess+0x306>
 8005500:	2b80      	cmp	r3, #128	; 0x80
 8005502:	f040 80e6 	bne.w	80056d2 <RadioIrqProcess+0x29e>
        SUBGRF_SetStandby( STDBY_RC );
 8005506:	2000      	movs	r0, #0
 8005508:	f001 f9b0 	bl	800686c <SUBGRF_SetStandby>
        if( ( RadioEvents != NULL ) && ( RadioEvents->CadDone != NULL ) )
 800550c:	4b76      	ldr	r3, [pc, #472]	; (80056e8 <RadioIrqProcess+0x2b4>)
 800550e:	681b      	ldr	r3, [r3, #0]
 8005510:	2b00      	cmp	r3, #0
 8005512:	f000 80de 	beq.w	80056d2 <RadioIrqProcess+0x29e>
 8005516:	699b      	ldr	r3, [r3, #24]
 8005518:	2b00      	cmp	r3, #0
 800551a:	f000 80da 	beq.w	80056d2 <RadioIrqProcess+0x29e>
            RadioEvents->CadDone( false );
 800551e:	2000      	movs	r0, #0
 8005520:	4798      	blx	r3
 8005522:	e0d6      	b.n	80056d2 <RadioIrqProcess+0x29e>
 8005524:	4b6e      	ldr	r3, [pc, #440]	; (80056e0 <RadioIrqProcess+0x2ac>)
 8005526:	f44f 5200 	mov.w	r2, #8192	; 0x2000
 800552a:	629a      	str	r2, [r3, #40]	; 0x28
        TimerStop( &TxTimeoutTimer );
 800552c:	486f      	ldr	r0, [pc, #444]	; (80056ec <RadioIrqProcess+0x2b8>)
 800552e:	f002 fab7 	bl	8007aa0 <UTIL_TIMER_Stop>
        SUBGRF_SetStandby( STDBY_RC );
 8005532:	2000      	movs	r0, #0
 8005534:	f001 f99a 	bl	800686c <SUBGRF_SetStandby>
        if( RFW_Is_LongPacketModeEnabled() == 1 )
 8005538:	f001 ff1e 	bl	8007378 <RFW_Is_LongPacketModeEnabled>
 800553c:	2801      	cmp	r0, #1
 800553e:	d00a      	beq.n	8005556 <RadioIrqProcess+0x122>
        if( ( RadioEvents != NULL ) && ( RadioEvents->TxDone != NULL ) )
 8005540:	4b69      	ldr	r3, [pc, #420]	; (80056e8 <RadioIrqProcess+0x2b4>)
 8005542:	681b      	ldr	r3, [r3, #0]
 8005544:	2b00      	cmp	r3, #0
 8005546:	f000 80c4 	beq.w	80056d2 <RadioIrqProcess+0x29e>
 800554a:	681b      	ldr	r3, [r3, #0]
 800554c:	2b00      	cmp	r3, #0
 800554e:	f000 80c0 	beq.w	80056d2 <RadioIrqProcess+0x29e>
            RadioEvents->TxDone( );
 8005552:	4798      	blx	r3
 8005554:	e0bd      	b.n	80056d2 <RadioIrqProcess+0x29e>
            RFW_DeInit_TxLongPacket( );
 8005556:	f001 ff18 	bl	800738a <RFW_DeInit_TxLongPacket>
 800555a:	e7f1      	b.n	8005540 <RadioIrqProcess+0x10c>
 800555c:	4b60      	ldr	r3, [pc, #384]	; (80056e0 <RadioIrqProcess+0x2ac>)
 800555e:	f44f 5280 	mov.w	r2, #4096	; 0x1000
 8005562:	629a      	str	r2, [r3, #40]	; 0x28
        TimerStop( &RxTimeoutTimer );
 8005564:	485f      	ldr	r0, [pc, #380]	; (80056e4 <RadioIrqProcess+0x2b0>)
 8005566:	f002 fa9b 	bl	8007aa0 <UTIL_TIMER_Stop>
        if( SubgRf.RxContinuous == false )
 800556a:	4b5b      	ldr	r3, [pc, #364]	; (80056d8 <RadioIrqProcess+0x2a4>)
 800556c:	785b      	ldrb	r3, [r3, #1]
 800556e:	b303      	cbz	r3, 80055b2 <RadioIrqProcess+0x17e>
        SUBGRF_GetPayload( RadioBuffer, &size, 255 );
 8005570:	22ff      	movs	r2, #255	; 0xff
 8005572:	f10d 0107 	add.w	r1, sp, #7
 8005576:	485e      	ldr	r0, [pc, #376]	; (80056f0 <RadioIrqProcess+0x2bc>)
 8005578:	f001 fdb4 	bl	80070e4 <SUBGRF_GetPayload>
        SUBGRF_GetPacketStatus( &( SubgRf.PacketStatus ) );
 800557c:	485d      	ldr	r0, [pc, #372]	; (80056f4 <RadioIrqProcess+0x2c0>)
 800557e:	f001 fdcb 	bl	8007118 <SUBGRF_GetPacketStatus>
        if( ( RadioEvents != NULL ) && ( RadioEvents->RxDone != NULL ) )
 8005582:	4b59      	ldr	r3, [pc, #356]	; (80056e8 <RadioIrqProcess+0x2b4>)
 8005584:	681b      	ldr	r3, [r3, #0]
 8005586:	2b00      	cmp	r3, #0
 8005588:	f000 80a3 	beq.w	80056d2 <RadioIrqProcess+0x29e>
 800558c:	689c      	ldr	r4, [r3, #8]
 800558e:	2c00      	cmp	r4, #0
 8005590:	f000 809f 	beq.w	80056d2 <RadioIrqProcess+0x29e>
            switch( SubgRf.PacketStatus.packetType )
 8005594:	4b50      	ldr	r3, [pc, #320]	; (80056d8 <RadioIrqProcess+0x2a4>)
 8005596:	f893 3024 	ldrb.w	r3, [r3, #36]	; 0x24
 800559a:	2b01      	cmp	r3, #1
 800559c:	d11d      	bne.n	80055da <RadioIrqProcess+0x1a6>
                RadioEvents->RxDone( RadioBuffer, size, SubgRf.PacketStatus.Params.LoRa.RssiPkt,
 800559e:	4a4e      	ldr	r2, [pc, #312]	; (80056d8 <RadioIrqProcess+0x2a4>)
 80055a0:	f992 3031 	ldrsb.w	r3, [r2, #49]	; 0x31
 80055a4:	f992 2030 	ldrsb.w	r2, [r2, #48]	; 0x30
 80055a8:	f89d 1007 	ldrb.w	r1, [sp, #7]
 80055ac:	4850      	ldr	r0, [pc, #320]	; (80056f0 <RadioIrqProcess+0x2bc>)
 80055ae:	47a0      	blx	r4
                break;
 80055b0:	e08f      	b.n	80056d2 <RadioIrqProcess+0x29e>
            SUBGRF_SetStandby( STDBY_RC );
 80055b2:	2000      	movs	r0, #0
 80055b4:	f001 f95a 	bl	800686c <SUBGRF_SetStandby>
            SUBGRF_WriteRegister( SUBGHZ_RTCCTLR, 0x00 );
 80055b8:	2100      	movs	r1, #0
 80055ba:	f640 1002 	movw	r0, #2306	; 0x902
 80055be:	f001 f85f 	bl	8006680 <SUBGRF_WriteRegister>
            SUBGRF_WriteRegister( SUBGHZ_EVENTMASKR, SUBGRF_ReadRegister( SUBGHZ_EVENTMASKR ) | ( 1 << 1 ) );
 80055c2:	f640 1044 	movw	r0, #2372	; 0x944
 80055c6:	f001 f86b 	bl	80066a0 <SUBGRF_ReadRegister>
 80055ca:	f040 0102 	orr.w	r1, r0, #2
 80055ce:	b2c9      	uxtb	r1, r1
 80055d0:	f640 1044 	movw	r0, #2372	; 0x944
 80055d4:	f001 f854 	bl	8006680 <SUBGRF_WriteRegister>
 80055d8:	e7ca      	b.n	8005570 <RadioIrqProcess+0x13c>
                SUBGRF_GetCFO( SubgRf.ModulationParams.Params.Gfsk.BitRate, &cfo );
 80055da:	4c3f      	ldr	r4, [pc, #252]	; (80056d8 <RadioIrqProcess+0x2a4>)
 80055dc:	4669      	mov	r1, sp
 80055de:	6be0      	ldr	r0, [r4, #60]	; 0x3c
 80055e0:	f001 fe7a 	bl	80072d8 <SUBGRF_GetCFO>
                RadioEvents->RxDone( RadioBuffer, size, SubgRf.PacketStatus.Params.Gfsk.RssiAvg, ( int8_t ) DIVR( cfo, 1000 ) );
 80055e4:	4b40      	ldr	r3, [pc, #256]	; (80056e8 <RadioIrqProcess+0x2b4>)
 80055e6:	681b      	ldr	r3, [r3, #0]
 80055e8:	689d      	ldr	r5, [r3, #8]
 80055ea:	9b00      	ldr	r3, [sp, #0]
 80055ec:	f503 73fa 	add.w	r3, r3, #500	; 0x1f4
 80055f0:	4a41      	ldr	r2, [pc, #260]	; (80056f8 <RadioIrqProcess+0x2c4>)
 80055f2:	fb82 1203 	smull	r1, r2, r2, r3
 80055f6:	17db      	asrs	r3, r3, #31
 80055f8:	ebc3 13a2 	rsb	r3, r3, r2, asr #6
 80055fc:	b25b      	sxtb	r3, r3
 80055fe:	f994 2029 	ldrsb.w	r2, [r4, #41]	; 0x29
 8005602:	f89d 1007 	ldrb.w	r1, [sp, #7]
 8005606:	483a      	ldr	r0, [pc, #232]	; (80056f0 <RadioIrqProcess+0x2bc>)
 8005608:	47a8      	blx	r5
                break;
 800560a:	e062      	b.n	80056d2 <RadioIrqProcess+0x29e>
        SUBGRF_SetStandby( STDBY_RC );
 800560c:	2000      	movs	r0, #0
 800560e:	f001 f92d 	bl	800686c <SUBGRF_SetStandby>
        if( ( RadioEvents != NULL ) && ( RadioEvents->CadDone != NULL ) )
 8005612:	4b35      	ldr	r3, [pc, #212]	; (80056e8 <RadioIrqProcess+0x2b4>)
 8005614:	681b      	ldr	r3, [r3, #0]
 8005616:	2b00      	cmp	r3, #0
 8005618:	d05b      	beq.n	80056d2 <RadioIrqProcess+0x29e>
 800561a:	699b      	ldr	r3, [r3, #24]
 800561c:	2b00      	cmp	r3, #0
 800561e:	d058      	beq.n	80056d2 <RadioIrqProcess+0x29e>
            RadioEvents->CadDone( true );
 8005620:	2001      	movs	r0, #1
 8005622:	4798      	blx	r3
 8005624:	e055      	b.n	80056d2 <RadioIrqProcess+0x29e>
 8005626:	4b2e      	ldr	r3, [pc, #184]	; (80056e0 <RadioIrqProcess+0x2ac>)
 8005628:	f44f 5200 	mov.w	r2, #8192	; 0x2000
 800562c:	629a      	str	r2, [r3, #40]	; 0x28
            TimerStop( &TxTimeoutTimer );
 800562e:	482f      	ldr	r0, [pc, #188]	; (80056ec <RadioIrqProcess+0x2b8>)
 8005630:	f002 fa36 	bl	8007aa0 <UTIL_TIMER_Stop>
            SUBGRF_SetStandby( STDBY_RC );
 8005634:	2000      	movs	r0, #0
 8005636:	f001 f919 	bl	800686c <SUBGRF_SetStandby>
            if( ( RadioEvents != NULL ) && ( RadioEvents->TxTimeout != NULL ) )
 800563a:	4b2b      	ldr	r3, [pc, #172]	; (80056e8 <RadioIrqProcess+0x2b4>)
 800563c:	681b      	ldr	r3, [r3, #0]
 800563e:	2b00      	cmp	r3, #0
 8005640:	d047      	beq.n	80056d2 <RadioIrqProcess+0x29e>
 8005642:	685b      	ldr	r3, [r3, #4]
 8005644:	2b00      	cmp	r3, #0
 8005646:	d044      	beq.n	80056d2 <RadioIrqProcess+0x29e>
                RadioEvents->TxTimeout( );
 8005648:	4798      	blx	r3
 800564a:	e042      	b.n	80056d2 <RadioIrqProcess+0x29e>
        MW_LOG( TS_ON, VLEVEL_M,  "PRE OK\r\n" );
 800564c:	4b2b      	ldr	r3, [pc, #172]	; (80056fc <RadioIrqProcess+0x2c8>)
 800564e:	2201      	movs	r2, #1
 8005650:	2100      	movs	r1, #0
 8005652:	2002      	movs	r0, #2
 8005654:	f001 ff74 	bl	8007540 <UTIL_ADV_TRACE_COND_FSend>
        if( SubgRf.RxDcPreambleDetectTimeout != 0 )
 8005658:	4b1f      	ldr	r3, [pc, #124]	; (80056d8 <RadioIrqProcess+0x2a4>)
 800565a:	6d99      	ldr	r1, [r3, #88]	; 0x58
 800565c:	b3c9      	cbz	r1, 80056d2 <RadioIrqProcess+0x29e>
            Radio.Write( SUBGHZ_RTCPRDR2, ( SubgRf.RxDcPreambleDetectTimeout >> 16 ) & 0xFF ); /*Update Radio RTC Period MSB*/
 800565e:	f3c1 4107 	ubfx	r1, r1, #16, #8
 8005662:	f640 1003 	movw	r0, #2307	; 0x903
 8005666:	f7ff fe53 	bl	8005310 <RadioWrite>
            Radio.Write( SUBGHZ_RTCPRDR1, ( SubgRf.RxDcPreambleDetectTimeout >> 8 ) & 0xFF ); /*Update Radio RTC Period MidByte*/
 800566a:	4c1b      	ldr	r4, [pc, #108]	; (80056d8 <RadioIrqProcess+0x2a4>)
 800566c:	f894 1059 	ldrb.w	r1, [r4, #89]	; 0x59
 8005670:	f640 1004 	movw	r0, #2308	; 0x904
 8005674:	f7ff fe4c 	bl	8005310 <RadioWrite>
            Radio.Write( SUBGHZ_RTCPRDR0, ( SubgRf.RxDcPreambleDetectTimeout ) & 0xFF ); /*Update Radio RTC Period lsb*/
 8005678:	f894 1058 	ldrb.w	r1, [r4, #88]	; 0x58
 800567c:	f640 1005 	movw	r0, #2309	; 0x905
 8005680:	f7ff fe46 	bl	8005310 <RadioWrite>
            Radio.Write( SUBGHZ_RTCCTLR, Radio.Read( SUBGHZ_RTCCTLR ) | 0x1 ); /*restart Radio RTC*/
 8005684:	f640 1002 	movw	r0, #2306	; 0x902
 8005688:	f7ff fe3e 	bl	8005308 <RadioRead>
 800568c:	f040 0101 	orr.w	r1, r0, #1
 8005690:	b2c9      	uxtb	r1, r1
 8005692:	f640 1002 	movw	r0, #2306	; 0x902
 8005696:	f7ff fe3b 	bl	8005310 <RadioWrite>
            SubgRf.RxDcPreambleDetectTimeout = 0;
 800569a:	2200      	movs	r2, #0
 800569c:	65a2      	str	r2, [r4, #88]	; 0x58
            SUBGRF_SetDioIrqParams( IRQ_RX_DONE | IRQ_RX_TX_TIMEOUT | IRQ_CRC_ERROR | IRQ_HEADER_ERROR | IRQ_RX_DBG,
 800569e:	4613      	mov	r3, r2
 80056a0:	f240 2162 	movw	r1, #610	; 0x262
 80056a4:	4608      	mov	r0, r1
 80056a6:	f001 fa8e 	bl	8006bc6 <SUBGRF_SetDioIrqParams>
 80056aa:	e012      	b.n	80056d2 <RadioIrqProcess+0x29e>
        MW_LOG( TS_ON, VLEVEL_M,  "SYNC OK\r\n" );
 80056ac:	4b14      	ldr	r3, [pc, #80]	; (8005700 <RadioIrqProcess+0x2cc>)
 80056ae:	2201      	movs	r2, #1
 80056b0:	2100      	movs	r1, #0
 80056b2:	2002      	movs	r0, #2
 80056b4:	f001 ff44 	bl	8007540 <UTIL_ADV_TRACE_COND_FSend>
        if( 1UL == RFW_Is_Init( ) )
 80056b8:	f001 fe5c 	bl	8007374 <RFW_Is_Init>
 80056bc:	2801      	cmp	r0, #1
 80056be:	d108      	bne.n	80056d2 <RadioIrqProcess+0x29e>
            RFW_ReceivePayload( );
 80056c0:	f001 fe64 	bl	800738c <RFW_ReceivePayload>
 80056c4:	e005      	b.n	80056d2 <RadioIrqProcess+0x29e>
        MW_LOG( TS_ON, VLEVEL_M,  "HDR OK\r\n" );
 80056c6:	4b0f      	ldr	r3, [pc, #60]	; (8005704 <RadioIrqProcess+0x2d0>)
 80056c8:	2201      	movs	r2, #1
 80056ca:	2100      	movs	r1, #0
 80056cc:	2002      	movs	r0, #2
 80056ce:	f001 ff37 	bl	8007540 <UTIL_ADV_TRACE_COND_FSend>
}
 80056d2:	b003      	add	sp, #12
 80056d4:	bd30      	pop	{r4, r5, pc}
 80056d6:	bf00      	nop
 80056d8:	200005f0 	.word	0x200005f0
 80056dc:	0800968c 	.word	0x0800968c
 80056e0:	48000400 	.word	0x48000400
 80056e4:	200005d8 	.word	0x200005d8
 80056e8:	200005d4 	.word	0x200005d4
 80056ec:	2000064c 	.word	0x2000064c
 80056f0:	200004d4 	.word	0x200004d4
 80056f4:	20000614 	.word	0x20000614
 80056f8:	10624dd3 	.word	0x10624dd3
 80056fc:	080096a0 	.word	0x080096a0
 8005700:	080096ac 	.word	0x080096ac
 8005704:	080096b8 	.word	0x080096b8
        TimerStop( &RxTimeoutTimer );
 8005708:	4817      	ldr	r0, [pc, #92]	; (8005768 <RadioIrqProcess+0x334>)
 800570a:	f002 f9c9 	bl	8007aa0 <UTIL_TIMER_Stop>
        if( SubgRf.RxContinuous == false )
 800570e:	4b17      	ldr	r3, [pc, #92]	; (800576c <RadioIrqProcess+0x338>)
 8005710:	785b      	ldrb	r3, [r3, #1]
 8005712:	b173      	cbz	r3, 8005732 <RadioIrqProcess+0x2fe>
        if( ( RadioEvents != NULL ) && ( RadioEvents->RxTimeout != NULL ) )
 8005714:	4b16      	ldr	r3, [pc, #88]	; (8005770 <RadioIrqProcess+0x33c>)
 8005716:	681b      	ldr	r3, [r3, #0]
 8005718:	2b00      	cmp	r3, #0
 800571a:	d0da      	beq.n	80056d2 <RadioIrqProcess+0x29e>
 800571c:	68db      	ldr	r3, [r3, #12]
 800571e:	2b00      	cmp	r3, #0
 8005720:	d0d7      	beq.n	80056d2 <RadioIrqProcess+0x29e>
            RadioEvents->RxTimeout( );
 8005722:	4798      	blx	r3
            MW_LOG( TS_ON, VLEVEL_M,  "HDR KO\r\n" );
 8005724:	4b13      	ldr	r3, [pc, #76]	; (8005774 <RadioIrqProcess+0x340>)
 8005726:	2201      	movs	r2, #1
 8005728:	2100      	movs	r1, #0
 800572a:	2002      	movs	r0, #2
 800572c:	f001 ff08 	bl	8007540 <UTIL_ADV_TRACE_COND_FSend>
 8005730:	e7cf      	b.n	80056d2 <RadioIrqProcess+0x29e>
            SUBGRF_SetStandby( STDBY_RC );
 8005732:	2000      	movs	r0, #0
 8005734:	f001 f89a 	bl	800686c <SUBGRF_SetStandby>
 8005738:	e7ec      	b.n	8005714 <RadioIrqProcess+0x2e0>
        MW_LOG( TS_ON, VLEVEL_M,  "IRQ_CRC_ERROR\r\n" );
 800573a:	4b0f      	ldr	r3, [pc, #60]	; (8005778 <RadioIrqProcess+0x344>)
 800573c:	2201      	movs	r2, #1
 800573e:	2100      	movs	r1, #0
 8005740:	2002      	movs	r0, #2
 8005742:	f001 fefd 	bl	8007540 <UTIL_ADV_TRACE_COND_FSend>
        if( SubgRf.RxContinuous == false )
 8005746:	4b09      	ldr	r3, [pc, #36]	; (800576c <RadioIrqProcess+0x338>)
 8005748:	785b      	ldrb	r3, [r3, #1]
 800574a:	b143      	cbz	r3, 800575e <RadioIrqProcess+0x32a>
        if( ( RadioEvents != NULL ) && ( RadioEvents->RxError ) )
 800574c:	4b08      	ldr	r3, [pc, #32]	; (8005770 <RadioIrqProcess+0x33c>)
 800574e:	681b      	ldr	r3, [r3, #0]
 8005750:	2b00      	cmp	r3, #0
 8005752:	d0be      	beq.n	80056d2 <RadioIrqProcess+0x29e>
 8005754:	691b      	ldr	r3, [r3, #16]
 8005756:	2b00      	cmp	r3, #0
 8005758:	d0bb      	beq.n	80056d2 <RadioIrqProcess+0x29e>
            RadioEvents->RxError( );
 800575a:	4798      	blx	r3
}
 800575c:	e7b9      	b.n	80056d2 <RadioIrqProcess+0x29e>
            SUBGRF_SetStandby( STDBY_RC );
 800575e:	2000      	movs	r0, #0
 8005760:	f001 f884 	bl	800686c <SUBGRF_SetStandby>
 8005764:	e7f2      	b.n	800574c <RadioIrqProcess+0x318>
 8005766:	bf00      	nop
 8005768:	200005d8 	.word	0x200005d8
 800576c:	200005f0 	.word	0x200005f0
 8005770:	200005d4 	.word	0x200005d4
 8005774:	080096c4 	.word	0x080096c4
 8005778:	080096d0 	.word	0x080096d0

0800577c <RadioOnDioIrq>:
{
 800577c:	b508      	push	{r3, lr}
    SubgRf.RadioIrq = radioIrq;
 800577e:	4b03      	ldr	r3, [pc, #12]	; (800578c <RadioOnDioIrq+0x10>)
 8005780:	f8a3 0054 	strh.w	r0, [r3, #84]	; 0x54
    RADIO_IRQ_PROCESS();
 8005784:	f7ff fe56 	bl	8005434 <RadioIrqProcess>
}
 8005788:	bd08      	pop	{r3, pc}
 800578a:	bf00      	nop
 800578c:	200005f0 	.word	0x200005f0

08005790 <RadioGetWakeupTime>:
{
 8005790:	b508      	push	{r3, lr}
    return SUBGRF_GetRadioWakeUpTime() + RADIO_WAKEUP_TIME;
 8005792:	f001 fd28 	bl	80071e6 <SUBGRF_GetRadioWakeUpTime>
}
 8005796:	3003      	adds	r0, #3
 8005798:	bd08      	pop	{r3, pc}

0800579a <RadioReadRegisters>:
{
 800579a:	b508      	push	{r3, lr}
    SUBGRF_ReadRegisters( addr, buffer, size );
 800579c:	f000 fffe 	bl	800679c <SUBGRF_ReadRegisters>
}
 80057a0:	bd08      	pop	{r3, pc}

080057a2 <RadioWriteRegisters>:
{
 80057a2:	b508      	push	{r3, lr}
    SUBGRF_WriteRegisters( addr, buffer, size );
 80057a4:	f000 ffb8 	bl	8006718 <SUBGRF_WriteRegisters>
}
 80057a8:	bd08      	pop	{r3, pc}

080057aa <RadioRssi>:
{
 80057aa:	b508      	push	{r3, lr}
    return SUBGRF_GetRssiInst( );
 80057ac:	f001 fc6a 	bl	8007084 <SUBGRF_GetRssiInst>
}
 80057b0:	b200      	sxth	r0, r0
 80057b2:	bd08      	pop	{r3, pc}

080057b4 <RadioSetTxContinuousWave>:
{
 80057b4:	b538      	push	{r3, r4, r5, lr}
 80057b6:	460d      	mov	r5, r1
    uint32_t timeout = ( uint32_t )time * 1000;
 80057b8:	f44f 737a 	mov.w	r3, #1000	; 0x3e8
 80057bc:	fb03 f402 	mul.w	r4, r3, r2
    SUBGRF_SetRfFrequency( freq );
 80057c0:	f001 fa74 	bl	8006cac <SUBGRF_SetRfFrequency>
    antswitchpow = SUBGRF_SetRfTxPower( power );
 80057c4:	4628      	mov	r0, r5
 80057c6:	f001 fcf7 	bl	80071b8 <SUBGRF_SetRfTxPower>
 80057ca:	4605      	mov	r5, r0
    SUBGRF_WriteRegister(REG_DRV_CTRL, 0x7 << 1);
 80057cc:	210e      	movs	r1, #14
 80057ce:	f640 101f 	movw	r0, #2335	; 0x91f
 80057d2:	f000 ff55 	bl	8006680 <SUBGRF_WriteRegister>
    SUBGRF_SetSwitch( antswitchpow, RFSWITCH_TX );
 80057d6:	2101      	movs	r1, #1
 80057d8:	4628      	mov	r0, r5
 80057da:	f001 fcd9 	bl	8007190 <SUBGRF_SetSwitch>
    SUBGRF_SetTxContinuousWave( );
 80057de:	f001 f91f 	bl	8006a20 <SUBGRF_SetTxContinuousWave>
    TimerSetValue( &TxTimeoutTimer, timeout );
 80057e2:	4d04      	ldr	r5, [pc, #16]	; (80057f4 <RadioSetTxContinuousWave+0x40>)
 80057e4:	4621      	mov	r1, r4
 80057e6:	4628      	mov	r0, r5
 80057e8:	f002 f9fa 	bl	8007be0 <UTIL_TIMER_SetPeriod>
    TimerStart( &TxTimeoutTimer );
 80057ec:	4628      	mov	r0, r5
 80057ee:	f002 f9b1 	bl	8007b54 <UTIL_TIMER_Start>
}
 80057f2:	bd38      	pop	{r3, r4, r5, pc}
 80057f4:	2000064c 	.word	0x2000064c

080057f8 <RadioSetChannel>:
{
 80057f8:	b508      	push	{r3, lr}
    SUBGRF_SetRfFrequency( freq );
 80057fa:	f001 fa57 	bl	8006cac <SUBGRF_SetRfFrequency>
}
 80057fe:	bd08      	pop	{r3, pc}

08005800 <RadioStartCad>:
{
 8005800:	b508      	push	{r3, lr}
    SUBGRF_SetSwitch( SubgRf.AntSwitchPaSelect, RFSWITCH_RX );
 8005802:	2100      	movs	r1, #0
 8005804:	4b07      	ldr	r3, [pc, #28]	; (8005824 <RadioStartCad+0x24>)
 8005806:	f893 0056 	ldrb.w	r0, [r3, #86]	; 0x56
 800580a:	f001 fcc1 	bl	8007190 <SUBGRF_SetSwitch>
    SUBGRF_SetDioIrqParams( IRQ_CAD_CLEAR | IRQ_CAD_DETECTED,
 800580e:	2300      	movs	r3, #0
 8005810:	461a      	mov	r2, r3
 8005812:	f44f 71c0 	mov.w	r1, #384	; 0x180
 8005816:	4608      	mov	r0, r1
 8005818:	f001 f9d5 	bl	8006bc6 <SUBGRF_SetDioIrqParams>
    SUBGRF_SetCad( );
 800581c:	f001 f8f4 	bl	8006a08 <SUBGRF_SetCad>
}
 8005820:	bd08      	pop	{r3, pc}
 8005822:	bf00      	nop
 8005824:	200005f0 	.word	0x200005f0

08005828 <RadioRx>:
{
 8005828:	b538      	push	{r3, r4, r5, lr}
 800582a:	4604      	mov	r4, r0
    if( 1UL == RFW_Is_Init( ) )
 800582c:	f001 fda2 	bl	8007374 <RFW_Is_Init>
 8005830:	2801      	cmp	r0, #1
 8005832:	d019      	beq.n	8005868 <RadioRx+0x40>
        SUBGRF_SetDioIrqParams( IRQ_RX_DONE | IRQ_RX_TX_TIMEOUT | IRQ_CRC_ERROR | IRQ_HEADER_ERROR | IRQ_RX_DBG,
 8005834:	2300      	movs	r3, #0
 8005836:	461a      	mov	r2, r3
 8005838:	f240 2162 	movw	r1, #610	; 0x262
 800583c:	4608      	mov	r0, r1
 800583e:	f001 f9c2 	bl	8006bc6 <SUBGRF_SetDioIrqParams>
    if( timeout != 0 )
 8005842:	b9a4      	cbnz	r4, 800586e <RadioRx+0x46>
    SubgRf.RxDcPreambleDetectTimeout = 0;
 8005844:	4c11      	ldr	r4, [pc, #68]	; (800588c <RadioRx+0x64>)
 8005846:	2100      	movs	r1, #0
 8005848:	65a1      	str	r1, [r4, #88]	; 0x58
  WRITE_REG(GPIOx->BSRR, PinMask);
 800584a:	4b11      	ldr	r3, [pc, #68]	; (8005890 <RadioRx+0x68>)
 800584c:	f44f 5280 	mov.w	r2, #4096	; 0x1000
 8005850:	619a      	str	r2, [r3, #24]
    SUBGRF_SetSwitch( SubgRf.AntSwitchPaSelect, RFSWITCH_RX );
 8005852:	f894 0056 	ldrb.w	r0, [r4, #86]	; 0x56
 8005856:	f001 fc9b 	bl	8007190 <SUBGRF_SetSwitch>
    if( SubgRf.RxContinuous == true )
 800585a:	7863      	ldrb	r3, [r4, #1]
 800585c:	b183      	cbz	r3, 8005880 <RadioRx+0x58>
        SUBGRF_SetRx( 0xFFFFFF ); // Rx Continuous
 800585e:	f06f 407f 	mvn.w	r0, #4278190080	; 0xff000000
 8005862:	f001 f83f 	bl	80068e4 <SUBGRF_SetRx>
}
 8005866:	bd38      	pop	{r3, r4, r5, pc}
        RFW_ReceiveInit( );
 8005868:	f001 fd8c 	bl	8007384 <RFW_ReceiveInit>
 800586c:	e7e9      	b.n	8005842 <RadioRx+0x1a>
        TimerSetValue( &RxTimeoutTimer, timeout );
 800586e:	4d09      	ldr	r5, [pc, #36]	; (8005894 <RadioRx+0x6c>)
 8005870:	4621      	mov	r1, r4
 8005872:	4628      	mov	r0, r5
 8005874:	f002 f9b4 	bl	8007be0 <UTIL_TIMER_SetPeriod>
        TimerStart( &RxTimeoutTimer );
 8005878:	4628      	mov	r0, r5
 800587a:	f002 f96b 	bl	8007b54 <UTIL_TIMER_Start>
 800587e:	e7e1      	b.n	8005844 <RadioRx+0x1c>
        SUBGRF_SetRx( SubgRf.RxTimeout << 6 );
 8005880:	4b02      	ldr	r3, [pc, #8]	; (800588c <RadioRx+0x64>)
 8005882:	6898      	ldr	r0, [r3, #8]
 8005884:	0180      	lsls	r0, r0, #6
 8005886:	f001 f82d 	bl	80068e4 <SUBGRF_SetRx>
}
 800588a:	e7ec      	b.n	8005866 <RadioRx+0x3e>
 800588c:	200005f0 	.word	0x200005f0
 8005890:	48000400 	.word	0x48000400
 8005894:	200005d8 	.word	0x200005d8

08005898 <RadioSleep>:
{
 8005898:	b508      	push	{r3, lr}
    SUBGRF_SetSleep( params );
 800589a:	f04f 0004 	mov.w	r0, #4
 800589e:	f000 ffc5 	bl	800682c <SUBGRF_SetSleep>
    RADIO_DELAY_MS( 2 );
 80058a2:	2002      	movs	r0, #2
 80058a4:	f7fb f886 	bl	80009b4 <HAL_Delay>
}
 80058a8:	bd08      	pop	{r3, pc}
	...

080058ac <RadioSend>:
{
 80058ac:	b570      	push	{r4, r5, r6, lr}
 80058ae:	b082      	sub	sp, #8
 80058b0:	4605      	mov	r5, r0
 80058b2:	460c      	mov	r4, r1
    SUBGRF_SetDioIrqParams( IRQ_TX_DONE | IRQ_RX_TX_TIMEOUT | IRQ_TX_DBG,
 80058b4:	2300      	movs	r3, #0
 80058b6:	461a      	mov	r2, r3
 80058b8:	f240 2101 	movw	r1, #513	; 0x201
 80058bc:	4608      	mov	r0, r1
 80058be:	f001 f982 	bl	8006bc6 <SUBGRF_SetDioIrqParams>
 80058c2:	4b5e      	ldr	r3, [pc, #376]	; (8005a3c <RadioSend+0x190>)
 80058c4:	f44f 5200 	mov.w	r2, #8192	; 0x2000
 80058c8:	619a      	str	r2, [r3, #24]
    SUBGRF_SetSwitch( SubgRf.AntSwitchPaSelect, RFSWITCH_TX );
 80058ca:	4e5d      	ldr	r6, [pc, #372]	; (8005a40 <RadioSend+0x194>)
 80058cc:	2101      	movs	r1, #1
 80058ce:	f896 0056 	ldrb.w	r0, [r6, #86]	; 0x56
 80058d2:	f001 fc5d 	bl	8007190 <SUBGRF_SetSwitch>
    if( ( SubgRf.Modem == MODEM_LORA ) && ( SubgRf.ModulationParams.Params.LoRa.Bandwidth == LORA_BW_500 ) )
 80058d6:	7833      	ldrb	r3, [r6, #0]
 80058d8:	2b01      	cmp	r3, #1
 80058da:	d103      	bne.n	80058e4 <RadioSend+0x38>
 80058dc:	f896 3051 	ldrb.w	r3, [r6, #81]	; 0x51
 80058e0:	2b06      	cmp	r3, #6
 80058e2:	d013      	beq.n	800590c <RadioSend+0x60>
        SUBGRF_WriteRegister( SUBGHZ_SDCFG0R, SUBGRF_ReadRegister( SUBGHZ_SDCFG0R ) | ( 1 << 2 ) );
 80058e4:	f640 0089 	movw	r0, #2185	; 0x889
 80058e8:	f000 feda 	bl	80066a0 <SUBGRF_ReadRegister>
 80058ec:	f040 0104 	orr.w	r1, r0, #4
 80058f0:	b2c9      	uxtb	r1, r1
 80058f2:	f640 0089 	movw	r0, #2185	; 0x889
 80058f6:	f000 fec3 	bl	8006680 <SUBGRF_WriteRegister>
        switch( SubgRf.Modem )
 80058fa:	4b51      	ldr	r3, [pc, #324]	; (8005a40 <RadioSend+0x194>)
 80058fc:	781b      	ldrb	r3, [r3, #0]
 80058fe:	2b04      	cmp	r3, #4
 8005900:	d819      	bhi.n	8005936 <RadioSend+0x8a>
 8005902:	e8df f003 	tbb	[pc, r3]
 8005906:	0e24      	.short	0x0e24
 8005908:	5024      	.short	0x5024
 800590a:	5d          	.byte	0x5d
 800590b:	00          	.byte	0x00
        SUBGRF_WriteRegister( SUBGHZ_SDCFG0R, SUBGRF_ReadRegister( SUBGHZ_SDCFG0R ) & ~( 1 << 2 ) );
 800590c:	f640 0089 	movw	r0, #2185	; 0x889
 8005910:	f000 fec6 	bl	80066a0 <SUBGRF_ReadRegister>
 8005914:	f000 01fb 	and.w	r1, r0, #251	; 0xfb
 8005918:	f640 0089 	movw	r0, #2185	; 0x889
 800591c:	f000 feb0 	bl	8006680 <SUBGRF_WriteRegister>
 8005920:	e7eb      	b.n	80058fa <RadioSend+0x4e>
            SubgRf.PacketParams.Params.LoRa.PayloadLength = size;
 8005922:	4847      	ldr	r0, [pc, #284]	; (8005a40 <RadioSend+0x194>)
 8005924:	77c4      	strb	r4, [r0, #31]
            SUBGRF_SetPacketParams( &SubgRf.PacketParams );
 8005926:	300e      	adds	r0, #14
 8005928:	f001 fb1c 	bl	8006f64 <SUBGRF_SetPacketParams>
            SUBGRF_SendPayload( buffer, size, 0 );
 800592c:	2200      	movs	r2, #0
 800592e:	4621      	mov	r1, r4
 8005930:	4628      	mov	r0, r5
 8005932:	f000 ffcf 	bl	80068d4 <SUBGRF_SendPayload>
        TimerSetValue( &TxTimeoutTimer, SubgRf.TxTimeout );
 8005936:	4c43      	ldr	r4, [pc, #268]	; (8005a44 <RadioSend+0x198>)
 8005938:	4b41      	ldr	r3, [pc, #260]	; (8005a40 <RadioSend+0x194>)
 800593a:	6859      	ldr	r1, [r3, #4]
 800593c:	4620      	mov	r0, r4
 800593e:	f002 f94f 	bl	8007be0 <UTIL_TIMER_SetPeriod>
        TimerStart( &TxTimeoutTimer );
 8005942:	4620      	mov	r0, r4
 8005944:	f002 f906 	bl	8007b54 <UTIL_TIMER_Start>
    return RADIO_STATUS_OK;
 8005948:	2000      	movs	r0, #0
}
 800594a:	b002      	add	sp, #8
 800594c:	bd70      	pop	{r4, r5, r6, pc}
            if ( 1UL == RFW_Is_Init( ) )
 800594e:	f001 fd11 	bl	8007374 <RFW_Is_Init>
 8005952:	2801      	cmp	r0, #1
 8005954:	d00a      	beq.n	800596c <RadioSend+0xc0>
                SubgRf.PacketParams.Params.Gfsk.PayloadLength = size;
 8005956:	483a      	ldr	r0, [pc, #232]	; (8005a40 <RadioSend+0x194>)
 8005958:	7584      	strb	r4, [r0, #22]
                SUBGRF_SetPacketParams( &SubgRf.PacketParams );
 800595a:	300e      	adds	r0, #14
 800595c:	f001 fb02 	bl	8006f64 <SUBGRF_SetPacketParams>
                SUBGRF_SendPayload( buffer, size, 0 );
 8005960:	2200      	movs	r2, #0
 8005962:	4621      	mov	r1, r4
 8005964:	4628      	mov	r0, r5
 8005966:	f000 ffb5 	bl	80068d4 <SUBGRF_SendPayload>
 800596a:	e7e4      	b.n	8005936 <RadioSend+0x8a>
                if ( 0UL == RFW_TransmitInit( buffer,size, &outsize ) )
 800596c:	f10d 0207 	add.w	r2, sp, #7
 8005970:	4621      	mov	r1, r4
 8005972:	4628      	mov	r0, r5
 8005974:	f001 fd03 	bl	800737e <RFW_TransmitInit>
 8005978:	b968      	cbnz	r0, 8005996 <RadioSend+0xea>
                    SubgRf.PacketParams.Params.Gfsk.PayloadLength = outsize;
 800597a:	4831      	ldr	r0, [pc, #196]	; (8005a40 <RadioSend+0x194>)
 800597c:	f89d 3007 	ldrb.w	r3, [sp, #7]
 8005980:	7583      	strb	r3, [r0, #22]
                    SUBGRF_SetPacketParams( &SubgRf.PacketParams );
 8005982:	300e      	adds	r0, #14
 8005984:	f001 faee 	bl	8006f64 <SUBGRF_SetPacketParams>
                    SUBGRF_SendPayload( buffer, outsize, 0 );
 8005988:	2200      	movs	r2, #0
 800598a:	f89d 1007 	ldrb.w	r1, [sp, #7]
 800598e:	4628      	mov	r0, r5
 8005990:	f000 ffa0 	bl	80068d4 <SUBGRF_SendPayload>
 8005994:	e7cf      	b.n	8005936 <RadioSend+0x8a>
                    MW_LOG( TS_ON, VLEVEL_M, "RadioSend Oversize\r\n" );
 8005996:	4b2c      	ldr	r3, [pc, #176]	; (8005a48 <RadioSend+0x19c>)
 8005998:	2201      	movs	r2, #1
 800599a:	2100      	movs	r1, #0
 800599c:	2002      	movs	r0, #2
 800599e:	f001 fdcf 	bl	8007540 <UTIL_ADV_TRACE_COND_FSend>
                    return RADIO_STATUS_ERROR;
 80059a2:	2003      	movs	r0, #3
 80059a4:	e7d1      	b.n	800594a <RadioSend+0x9e>
            SubgRf.PacketParams.PacketType = PACKET_TYPE_BPSK;
 80059a6:	4826      	ldr	r0, [pc, #152]	; (8005a40 <RadioSend+0x194>)
 80059a8:	2302      	movs	r3, #2
 80059aa:	7383      	strb	r3, [r0, #14]
            SubgRf.PacketParams.Params.Bpsk.PayloadLength = size;
 80059ac:	7684      	strb	r4, [r0, #26]
            SUBGRF_SetPacketParams( &SubgRf.PacketParams );
 80059ae:	300e      	adds	r0, #14
 80059b0:	f001 fad8 	bl	8006f64 <SUBGRF_SetPacketParams>
            SUBGRF_SendPayload( buffer, size, 0 );
 80059b4:	2200      	movs	r2, #0
 80059b6:	4621      	mov	r1, r4
 80059b8:	4628      	mov	r0, r5
 80059ba:	f000 ff8b 	bl	80068d4 <SUBGRF_SendPayload>
            break;
 80059be:	e7ba      	b.n	8005936 <RadioSend+0x8a>
            payload_integration( RadioBuffer, buffer, size );
 80059c0:	4622      	mov	r2, r4
 80059c2:	4629      	mov	r1, r5
 80059c4:	4821      	ldr	r0, [pc, #132]	; (8005a4c <RadioSend+0x1a0>)
 80059c6:	f7ff fc29 	bl	800521c <payload_integration>
            SubgRf.PacketParams.PacketType = PACKET_TYPE_BPSK;
 80059ca:	4e1d      	ldr	r6, [pc, #116]	; (8005a40 <RadioSend+0x194>)
 80059cc:	2302      	movs	r3, #2
 80059ce:	73b3      	strb	r3, [r6, #14]
            SubgRf.PacketParams.Params.Bpsk.PayloadLength = size + 1;
 80059d0:	1c65      	adds	r5, r4, #1
 80059d2:	b2ed      	uxtb	r5, r5
 80059d4:	76b5      	strb	r5, [r6, #26]
            SUBGRF_SetPacketParams( &SubgRf.PacketParams );
 80059d6:	f106 000e 	add.w	r0, r6, #14
 80059da:	f001 fac3 	bl	8006f64 <SUBGRF_SetPacketParams>
            RadioWrite( SUBGHZ_RAM_RAMPUPL, 0 ); // clean start-up LSB
 80059de:	2100      	movs	r1, #0
 80059e0:	20f1      	movs	r0, #241	; 0xf1
 80059e2:	f7ff fc95 	bl	8005310 <RadioWrite>
            RadioWrite( SUBGHZ_RAM_RAMPUPH, 0 ); // clean start-up MSB
 80059e6:	2100      	movs	r1, #0
 80059e8:	20f0      	movs	r0, #240	; 0xf0
 80059ea:	f7ff fc91 	bl	8005310 <RadioWrite>
            if( SubgRf.ModulationParams.Params.Bpsk.BitRate == 100 )
 80059ee:	6cb3      	ldr	r3, [r6, #72]	; 0x48
 80059f0:	2b64      	cmp	r3, #100	; 0x64
 80059f2:	d019      	beq.n	8005a28 <RadioSend+0x17c>
                RadioWrite( SUBGHZ_RAM_RAMPDNL, 0xE1 ); // clean end of frame LSB
 80059f4:	21e1      	movs	r1, #225	; 0xe1
 80059f6:	20f3      	movs	r0, #243	; 0xf3
 80059f8:	f7ff fc8a 	bl	8005310 <RadioWrite>
                RadioWrite( SUBGHZ_RAM_RAMPDNH, 0x04 ); // clean end of frame MSB
 80059fc:	2104      	movs	r1, #4
 80059fe:	20f2      	movs	r0, #242	; 0xf2
 8005a00:	f7ff fc86 	bl	8005310 <RadioWrite>
            uint16_t bitNum = ( size * 8 ) + 2;
 8005a04:	00e1      	lsls	r1, r4, #3
 8005a06:	1c8c      	adds	r4, r1, #2
            RadioWrite( SUBGHZ_RAM_FRAMELIMH, ( bitNum >> 8 ) & 0x00FF );    // limit frame
 8005a08:	0a09      	lsrs	r1, r1, #8
 8005a0a:	20f4      	movs	r0, #244	; 0xf4
 8005a0c:	f7ff fc80 	bl	8005310 <RadioWrite>
            RadioWrite( SUBGHZ_RAM_FRAMELIML, bitNum & 0x00FF );             // limit frame
 8005a10:	f004 01fe 	and.w	r1, r4, #254	; 0xfe
 8005a14:	20f5      	movs	r0, #245	; 0xf5
 8005a16:	f7ff fc7b 	bl	8005310 <RadioWrite>
            SUBGRF_SendPayload( RadioBuffer, size + 1, 0xFFFFFF );
 8005a1a:	f06f 427f 	mvn.w	r2, #4278190080	; 0xff000000
 8005a1e:	4629      	mov	r1, r5
 8005a20:	480a      	ldr	r0, [pc, #40]	; (8005a4c <RadioSend+0x1a0>)
 8005a22:	f000 ff57 	bl	80068d4 <SUBGRF_SendPayload>
            break;
 8005a26:	e786      	b.n	8005936 <RadioSend+0x8a>
                RadioWrite( SUBGHZ_RAM_RAMPDNL, 0x70 ); // clean end of frame LSB
 8005a28:	2170      	movs	r1, #112	; 0x70
 8005a2a:	20f3      	movs	r0, #243	; 0xf3
 8005a2c:	f7ff fc70 	bl	8005310 <RadioWrite>
                RadioWrite( SUBGHZ_RAM_RAMPDNH, 0x1D ); // clean end of frame MSB
 8005a30:	211d      	movs	r1, #29
 8005a32:	20f2      	movs	r0, #242	; 0xf2
 8005a34:	f7ff fc6c 	bl	8005310 <RadioWrite>
 8005a38:	e7e4      	b.n	8005a04 <RadioSend+0x158>
 8005a3a:	bf00      	nop
 8005a3c:	48000400 	.word	0x48000400
 8005a40:	200005f0 	.word	0x200005f0
 8005a44:	2000064c 	.word	0x2000064c
 8005a48:	080096e0 	.word	0x080096e0
 8005a4c:	200004d4 	.word	0x200004d4

08005a50 <RadioRandom>:
{
 8005a50:	b508      	push	{r3, lr}
    SUBGRF_SetDioIrqParams( IRQ_RADIO_NONE, IRQ_RADIO_NONE, IRQ_RADIO_NONE, IRQ_RADIO_NONE );
 8005a52:	2300      	movs	r3, #0
 8005a54:	461a      	mov	r2, r3
 8005a56:	4619      	mov	r1, r3
 8005a58:	4618      	mov	r0, r3
 8005a5a:	f001 f8b4 	bl	8006bc6 <SUBGRF_SetDioIrqParams>
    rnd = SUBGRF_GetRandom();
 8005a5e:	f000 ff5b 	bl	8006918 <SUBGRF_GetRandom>
}
 8005a62:	bd08      	pop	{r3, pc}

08005a64 <RadioSetModem>:
{
 8005a64:	b510      	push	{r4, lr}
 8005a66:	4604      	mov	r4, r0
    SubgRf.Modem = modem;
 8005a68:	4b1c      	ldr	r3, [pc, #112]	; (8005adc <RadioSetModem+0x78>)
 8005a6a:	7018      	strb	r0, [r3, #0]
    RFW_SetRadioModem( modem );
 8005a6c:	f001 fc8f 	bl	800738e <RFW_SetRadioModem>
    switch( modem )
 8005a70:	2c05      	cmp	r4, #5
 8005a72:	d804      	bhi.n	8005a7e <RadioSetModem+0x1a>
 8005a74:	e8df f004 	tbb	[pc, r4]
 8005a78:	1d03110a 	.word	0x1d03110a
 8005a7c:	2b24      	.short	0x2b24
        SUBGRF_SetPacketType( PACKET_TYPE_GMSK );
 8005a7e:	2003      	movs	r0, #3
 8005a80:	f001 f940 	bl	8006d04 <SUBGRF_SetPacketType>
        SubgRf.PublicNetwork.Current = false;
 8005a84:	4b15      	ldr	r3, [pc, #84]	; (8005adc <RadioSetModem+0x78>)
 8005a86:	2200      	movs	r2, #0
 8005a88:	735a      	strb	r2, [r3, #13]
}
 8005a8a:	bd10      	pop	{r4, pc}
        SUBGRF_SetPacketType( PACKET_TYPE_GFSK );
 8005a8c:	2000      	movs	r0, #0
 8005a8e:	f001 f939 	bl	8006d04 <SUBGRF_SetPacketType>
        SubgRf.PublicNetwork.Current = false;
 8005a92:	4b12      	ldr	r3, [pc, #72]	; (8005adc <RadioSetModem+0x78>)
 8005a94:	2200      	movs	r2, #0
 8005a96:	735a      	strb	r2, [r3, #13]
        break;
 8005a98:	e7f7      	b.n	8005a8a <RadioSetModem+0x26>
        SUBGRF_SetPacketType( PACKET_TYPE_LORA );
 8005a9a:	2001      	movs	r0, #1
 8005a9c:	f001 f932 	bl	8006d04 <SUBGRF_SetPacketType>
        if( SubgRf.PublicNetwork.Current != SubgRf.PublicNetwork.Previous )
 8005aa0:	4b0e      	ldr	r3, [pc, #56]	; (8005adc <RadioSetModem+0x78>)
 8005aa2:	7b5a      	ldrb	r2, [r3, #13]
 8005aa4:	7b18      	ldrb	r0, [r3, #12]
 8005aa6:	4282      	cmp	r2, r0
 8005aa8:	d0ef      	beq.n	8005a8a <RadioSetModem+0x26>
            SubgRf.PublicNetwork.Current = SubgRf.PublicNetwork.Previous;
 8005aaa:	7358      	strb	r0, [r3, #13]
            RadioSetPublicNetwork( SubgRf.PublicNetwork.Current );
 8005aac:	f000 fade 	bl	800606c <RadioSetPublicNetwork>
 8005ab0:	e7eb      	b.n	8005a8a <RadioSetModem+0x26>
        SUBGRF_SetPacketType( PACKET_TYPE_BPSK );
 8005ab2:	2002      	movs	r0, #2
 8005ab4:	f001 f926 	bl	8006d04 <SUBGRF_SetPacketType>
        SubgRf.PublicNetwork.Current = false;
 8005ab8:	4b08      	ldr	r3, [pc, #32]	; (8005adc <RadioSetModem+0x78>)
 8005aba:	2200      	movs	r2, #0
 8005abc:	735a      	strb	r2, [r3, #13]
        break;
 8005abe:	e7e4      	b.n	8005a8a <RadioSetModem+0x26>
        SUBGRF_SetPacketType( PACKET_TYPE_BPSK );
 8005ac0:	2002      	movs	r0, #2
 8005ac2:	f001 f91f 	bl	8006d04 <SUBGRF_SetPacketType>
        SubgRf.PublicNetwork.Current = false;
 8005ac6:	4b05      	ldr	r3, [pc, #20]	; (8005adc <RadioSetModem+0x78>)
 8005ac8:	2200      	movs	r2, #0
 8005aca:	735a      	strb	r2, [r3, #13]
        break;
 8005acc:	e7dd      	b.n	8005a8a <RadioSetModem+0x26>
        SUBGRF_SetPacketType( PACKET_TYPE_GFSK );
 8005ace:	2000      	movs	r0, #0
 8005ad0:	f001 f918 	bl	8006d04 <SUBGRF_SetPacketType>
        SubgRf.PublicNetwork.Current = false;
 8005ad4:	4b01      	ldr	r3, [pc, #4]	; (8005adc <RadioSetModem+0x78>)
 8005ad6:	2200      	movs	r2, #0
 8005ad8:	735a      	strb	r2, [r3, #13]
}
 8005ada:	e7d6      	b.n	8005a8a <RadioSetModem+0x26>
 8005adc:	200005f0 	.word	0x200005f0

08005ae0 <RadioSetTxGenericConfig>:
{
 8005ae0:	e92d 41f0 	stmdb	sp!, {r4, r5, r6, r7, r8, lr}
 8005ae4:	b086      	sub	sp, #24
 8005ae6:	4605      	mov	r5, r0
 8005ae8:	460c      	mov	r4, r1
 8005aea:	4617      	mov	r7, r2
 8005aec:	461e      	mov	r6, r3
    uint8_t syncword[8] = {0};
 8005aee:	2100      	movs	r1, #0
 8005af0:	9104      	str	r1, [sp, #16]
 8005af2:	9105      	str	r1, [sp, #20]
    RFW_DeInit( ); /* switch Off FwPacketDecoding by default */
 8005af4:	f001 fc3d 	bl	8007372 <RFW_DeInit>
    switch( modem )
 8005af8:	2d03      	cmp	r5, #3
 8005afa:	f200 8156 	bhi.w	8005daa <RadioSetTxGenericConfig+0x2ca>
 8005afe:	e8df f015 	tbh	[pc, r5, lsl #1]
 8005b02:	007a      	.short	0x007a
 8005b04:	014000dd 	.word	0x014000dd
 8005b08:	0004      	.short	0x0004
        if( config->msk.SyncWordLength > 8 )
 8005b0a:	7ca2      	ldrb	r2, [r4, #18]
 8005b0c:	2a08      	cmp	r2, #8
 8005b0e:	f200 8159 	bhi.w	8005dc4 <RadioSetTxGenericConfig+0x2e4>
            RADIO_MEMCPY8( syncword, config->msk.SyncWord, config->msk.SyncWordLength );
 8005b12:	68a1      	ldr	r1, [r4, #8]
 8005b14:	a804      	add	r0, sp, #16
 8005b16:	f001 fe29 	bl	800776c <UTIL_MEM_cpy_8>
        if( ( config->msk.BitRate == 0 ) )
 8005b1a:	6823      	ldr	r3, [r4, #0]
 8005b1c:	2b00      	cmp	r3, #0
 8005b1e:	f000 8154 	beq.w	8005dca <RadioSetTxGenericConfig+0x2ea>
        else if( config->msk.BitRate <= 10000 )
 8005b22:	f242 7210 	movw	r2, #10000	; 0x2710
 8005b26:	4293      	cmp	r3, r2
 8005b28:	d823      	bhi.n	8005b72 <RadioSetTxGenericConfig+0x92>
            SubgRf.PacketParams.PacketType = PACKET_TYPE_GMSK;
 8005b2a:	4bae      	ldr	r3, [pc, #696]	; (8005de4 <RadioSetTxGenericConfig+0x304>)
 8005b2c:	2203      	movs	r2, #3
 8005b2e:	739a      	strb	r2, [r3, #14]
            SubgRf.ModulationParams.PacketType = PACKET_TYPE_GMSK;
 8005b30:	f883 2038 	strb.w	r2, [r3, #56]	; 0x38
            SubgRf.ModulationParams.Params.Gfsk.BitRate = config->msk.BitRate;
 8005b34:	6822      	ldr	r2, [r4, #0]
 8005b36:	63da      	str	r2, [r3, #60]	; 0x3c
            SubgRf.ModulationParams.Params.Gfsk.ModulationShaping = ( RadioModShapings_t ) config->msk.ModulationShaping;
 8005b38:	7ce2      	ldrb	r2, [r4, #19]
 8005b3a:	f883 2044 	strb.w	r2, [r3, #68]	; 0x44
            radio_modem = MODEM_MSK;
 8005b3e:	2502      	movs	r5, #2
        SubgRf.PacketParams.Params.Gfsk.PreambleLength = ( config->msk.PreambleLen ) << 3; // convert byte into bit
 8005b40:	6863      	ldr	r3, [r4, #4]
 8005b42:	00da      	lsls	r2, r3, #3
 8005b44:	4ba7      	ldr	r3, [pc, #668]	; (8005de4 <RadioSetTxGenericConfig+0x304>)
 8005b46:	821a      	strh	r2, [r3, #16]
        SubgRf.PacketParams.Params.Gfsk.PreambleMinDetect = RADIO_PREAMBLE_DETECTOR_08_BITS; // don't care in tx
 8005b48:	2204      	movs	r2, #4
 8005b4a:	749a      	strb	r2, [r3, #18]
        SubgRf.PacketParams.Params.Gfsk.SyncWordLength = ( config->msk.SyncWordLength ) << 3; // convert byte into bit
 8005b4c:	7ca2      	ldrb	r2, [r4, #18]
 8005b4e:	00d2      	lsls	r2, r2, #3
 8005b50:	74da      	strb	r2, [r3, #19]
        SubgRf.PacketParams.Params.Gfsk.AddrComp = RADIO_ADDRESSCOMP_FILT_OFF; // don't care in tx
 8005b52:	2200      	movs	r2, #0
 8005b54:	751a      	strb	r2, [r3, #20]
        if( ( config->msk.Whitening == RADIO_FSK_DC_IBM_WHITENING )
 8005b56:	7da3      	ldrb	r3, [r4, #22]
 8005b58:	2b02      	cmp	r3, #2
 8005b5a:	d018      	beq.n	8005b8e <RadioSetTxGenericConfig+0xae>
            || ( config->msk.HeaderType == RADIO_FSK_PACKET_2BYTES_LENGTH ) )
 8005b5c:	7d23      	ldrb	r3, [r4, #20]
 8005b5e:	2b02      	cmp	r3, #2
 8005b60:	d015      	beq.n	8005b8e <RadioSetTxGenericConfig+0xae>
            SubgRf.PacketParams.Params.Gfsk.CrcLength = ( RadioCrcTypes_t ) config->msk.CrcLength;
 8005b62:	7d62      	ldrb	r2, [r4, #21]
 8005b64:	4b9f      	ldr	r3, [pc, #636]	; (8005de4 <RadioSetTxGenericConfig+0x304>)
 8005b66:	75da      	strb	r2, [r3, #23]
            SubgRf.PacketParams.Params.Gfsk.DcFree = ( RadioDcFree_t ) config->msk.Whitening;
 8005b68:	7da2      	ldrb	r2, [r4, #22]
 8005b6a:	761a      	strb	r2, [r3, #24]
            SubgRf.PacketParams.Params.Gfsk.HeaderType = ( RadioPacketLengthModes_t ) config->msk.HeaderType;
 8005b6c:	7d22      	ldrb	r2, [r4, #20]
 8005b6e:	755a      	strb	r2, [r3, #21]
 8005b70:	e026      	b.n	8005bc0 <RadioSetTxGenericConfig+0xe0>
            SubgRf.PacketParams.PacketType = PACKET_TYPE_GFSK;
 8005b72:	4b9c      	ldr	r3, [pc, #624]	; (8005de4 <RadioSetTxGenericConfig+0x304>)
 8005b74:	2500      	movs	r5, #0
 8005b76:	739d      	strb	r5, [r3, #14]
            SubgRf.ModulationParams.PacketType = PACKET_TYPE_GFSK;
 8005b78:	f883 5038 	strb.w	r5, [r3, #56]	; 0x38
            SubgRf.ModulationParams.Params.Gfsk.BitRate = config->msk.BitRate;
 8005b7c:	6822      	ldr	r2, [r4, #0]
 8005b7e:	63da      	str	r2, [r3, #60]	; 0x3c
            SubgRf.ModulationParams.Params.Gfsk.ModulationShaping = ( RadioModShapings_t ) config->msk.ModulationShaping;
 8005b80:	7ce2      	ldrb	r2, [r4, #19]
 8005b82:	f883 2044 	strb.w	r2, [r3, #68]	; 0x44
            SubgRf.ModulationParams.Params.Gfsk.Fdev = config->msk.BitRate / 4;
 8005b86:	6822      	ldr	r2, [r4, #0]
 8005b88:	0892      	lsrs	r2, r2, #2
 8005b8a:	641a      	str	r2, [r3, #64]	; 0x40
 8005b8c:	e7d8      	b.n	8005b40 <RadioSetTxGenericConfig+0x60>
            if( ( config->msk.CrcLength != RADIO_FSK_CRC_2_BYTES_IBM ) && ( config->msk.CrcLength != RADIO_FSK_CRC_2_BYTES_CCIT )
 8005b8e:	7d62      	ldrb	r2, [r4, #21]
 8005b90:	f102 030f 	add.w	r3, r2, #15
 8005b94:	b2db      	uxtb	r3, r3
 8005b96:	2b01      	cmp	r3, #1
 8005b98:	d901      	bls.n	8005b9e <RadioSetTxGenericConfig+0xbe>
                && ( config->msk.CrcLength != RADIO_FSK_CRC_OFF ) )
 8005b9a:	2a01      	cmp	r2, #1
 8005b9c:	d128      	bne.n	8005bf0 <RadioSetTxGenericConfig+0x110>
            ConfigGeneric.TxConfig = config;
 8005b9e:	9401      	str	r4, [sp, #4]
            ConfigGeneric.rtx = CONFIG_TX;
 8005ba0:	2301      	movs	r3, #1
 8005ba2:	f88d 300c 	strb.w	r3, [sp, #12]
            if( 0UL != RFW_Init( &ConfigGeneric, RadioEvents, &TxTimeoutTimer ) )
 8005ba6:	4a90      	ldr	r2, [pc, #576]	; (8005de8 <RadioSetTxGenericConfig+0x308>)
 8005ba8:	4b90      	ldr	r3, [pc, #576]	; (8005dec <RadioSetTxGenericConfig+0x30c>)
 8005baa:	6819      	ldr	r1, [r3, #0]
 8005bac:	a801      	add	r0, sp, #4
 8005bae:	f001 fbdd 	bl	800736c <RFW_Init>
 8005bb2:	b9e8      	cbnz	r0, 8005bf0 <RadioSetTxGenericConfig+0x110>
            SubgRf.PacketParams.Params.Gfsk.DcFree = ( RadioDcFree_t ) RADIO_FSK_DC_FREE_OFF;
 8005bb4:	4b8b      	ldr	r3, [pc, #556]	; (8005de4 <RadioSetTxGenericConfig+0x304>)
 8005bb6:	2200      	movs	r2, #0
 8005bb8:	761a      	strb	r2, [r3, #24]
            SubgRf.PacketParams.Params.Gfsk.CrcLength = ( RadioCrcTypes_t ) RADIO_CRC_OFF;
 8005bba:	2101      	movs	r1, #1
 8005bbc:	75d9      	strb	r1, [r3, #23]
            SubgRf.PacketParams.Params.Gfsk.HeaderType = ( RadioPacketLengthModes_t ) RADIO_PACKET_FIXED_LENGTH;
 8005bbe:	755a      	strb	r2, [r3, #21]
        RadioStandby( );
 8005bc0:	f7ff fc22 	bl	8005408 <RadioStandby>
        RadioSetModem( radio_modem );
 8005bc4:	4628      	mov	r0, r5
 8005bc6:	f7ff ff4d 	bl	8005a64 <RadioSetModem>
        SUBGRF_SetModulationParams( &SubgRf.ModulationParams );
 8005bca:	4d86      	ldr	r5, [pc, #536]	; (8005de4 <RadioSetTxGenericConfig+0x304>)
 8005bcc:	f105 0038 	add.w	r0, r5, #56	; 0x38
 8005bd0:	f001 f940 	bl	8006e54 <SUBGRF_SetModulationParams>
        SUBGRF_SetPacketParams( &SubgRf.PacketParams );
 8005bd4:	f105 000e 	add.w	r0, r5, #14
 8005bd8:	f001 f9c4 	bl	8006f64 <SUBGRF_SetPacketParams>
        SUBGRF_SetSyncWord( syncword );
 8005bdc:	a804      	add	r0, sp, #16
 8005bde:	f000 fdab 	bl	8006738 <SUBGRF_SetSyncWord>
        SUBGRF_SetWhiteningSeed( config->msk.whiteSeed );
 8005be2:	8a20      	ldrh	r0, [r4, #16]
 8005be4:	f000 fd7f 	bl	80066e6 <SUBGRF_SetWhiteningSeed>
        SUBGRF_SetCrcPolynomial( config->msk.CrcPolynomial );
 8005be8:	89a0      	ldrh	r0, [r4, #12]
 8005bea:	f000 fdc2 	bl	8006772 <SUBGRF_SetCrcPolynomial>
        break;
 8005bee:	e0dc      	b.n	8005daa <RadioSetTxGenericConfig+0x2ca>
                return -1;
 8005bf0:	f04f 30ff 	mov.w	r0, #4294967295
 8005bf4:	e0e3      	b.n	8005dbe <RadioSetTxGenericConfig+0x2de>
        if( config->fsk.BitRate == 0 )
 8005bf6:	6823      	ldr	r3, [r4, #0]
 8005bf8:	2b00      	cmp	r3, #0
 8005bfa:	f000 80e9 	beq.w	8005dd0 <RadioSetTxGenericConfig+0x2f0>
        if( config->fsk.SyncWordLength > 8 )
 8005bfe:	7ca2      	ldrb	r2, [r4, #18]
 8005c00:	2a08      	cmp	r2, #8
 8005c02:	f200 80e8 	bhi.w	8005dd6 <RadioSetTxGenericConfig+0x2f6>
            RADIO_MEMCPY8( syncword, config->fsk.SyncWord, config->fsk.SyncWordLength );
 8005c06:	68a1      	ldr	r1, [r4, #8]
 8005c08:	a804      	add	r0, sp, #16
 8005c0a:	f001 fdaf 	bl	800776c <UTIL_MEM_cpy_8>
        SubgRf.ModulationParams.PacketType = PACKET_TYPE_GFSK;
 8005c0e:	4b75      	ldr	r3, [pc, #468]	; (8005de4 <RadioSetTxGenericConfig+0x304>)
 8005c10:	2200      	movs	r2, #0
 8005c12:	f883 2038 	strb.w	r2, [r3, #56]	; 0x38
        SubgRf.ModulationParams.Params.Gfsk.BitRate = config->fsk.BitRate;
 8005c16:	6821      	ldr	r1, [r4, #0]
 8005c18:	63d9      	str	r1, [r3, #60]	; 0x3c
        SubgRf.ModulationParams.Params.Gfsk.ModulationShaping = ( RadioModShapings_t ) config->fsk.ModulationShaping;
 8005c1a:	7ce1      	ldrb	r1, [r4, #19]
 8005c1c:	f883 1044 	strb.w	r1, [r3, #68]	; 0x44
        SubgRf.ModulationParams.Params.Gfsk.Fdev = config->fsk.FrequencyDeviation;
 8005c20:	69a1      	ldr	r1, [r4, #24]
 8005c22:	6419      	str	r1, [r3, #64]	; 0x40
        SubgRf.PacketParams.PacketType = PACKET_TYPE_GFSK;
 8005c24:	739a      	strb	r2, [r3, #14]
        SubgRf.PacketParams.Params.Gfsk.PreambleLength = ( config->fsk.PreambleLen ) << 3; // convert byte into bit
 8005c26:	6861      	ldr	r1, [r4, #4]
 8005c28:	00c9      	lsls	r1, r1, #3
 8005c2a:	8219      	strh	r1, [r3, #16]
        SubgRf.PacketParams.Params.Gfsk.PreambleMinDetect = RADIO_PREAMBLE_DETECTOR_08_BITS; // don't care in tx
 8005c2c:	2104      	movs	r1, #4
 8005c2e:	7499      	strb	r1, [r3, #18]
        SubgRf.PacketParams.Params.Gfsk.SyncWordLength = ( config->fsk.SyncWordLength ) << 3; // convert byte into bit
 8005c30:	7ca1      	ldrb	r1, [r4, #18]
 8005c32:	00c9      	lsls	r1, r1, #3
 8005c34:	74d9      	strb	r1, [r3, #19]
        SubgRf.PacketParams.Params.Gfsk.AddrComp = RADIO_ADDRESSCOMP_FILT_OFF; // don't care in tx
 8005c36:	751a      	strb	r2, [r3, #20]
        if( ( config->fsk.Whitening == RADIO_FSK_DC_IBM_WHITENING )
 8005c38:	7da3      	ldrb	r3, [r4, #22]
 8005c3a:	2b02      	cmp	r3, #2
 8005c3c:	d00a      	beq.n	8005c54 <RadioSetTxGenericConfig+0x174>
            || ( config->fsk.HeaderType == RADIO_FSK_PACKET_2BYTES_LENGTH ) )
 8005c3e:	7d23      	ldrb	r3, [r4, #20]
 8005c40:	2b02      	cmp	r3, #2
 8005c42:	d007      	beq.n	8005c54 <RadioSetTxGenericConfig+0x174>
            SubgRf.PacketParams.Params.Gfsk.CrcLength = ( RadioCrcTypes_t ) config->fsk.CrcLength;
 8005c44:	7d62      	ldrb	r2, [r4, #21]
 8005c46:	4b67      	ldr	r3, [pc, #412]	; (8005de4 <RadioSetTxGenericConfig+0x304>)
 8005c48:	75da      	strb	r2, [r3, #23]
            SubgRf.PacketParams.Params.Gfsk.DcFree = ( RadioDcFree_t ) config->fsk.Whitening;
 8005c4a:	7da2      	ldrb	r2, [r4, #22]
 8005c4c:	761a      	strb	r2, [r3, #24]
            SubgRf.PacketParams.Params.Gfsk.HeaderType = ( RadioPacketLengthModes_t ) config->fsk.HeaderType;
 8005c4e:	7d22      	ldrb	r2, [r4, #20]
 8005c50:	755a      	strb	r2, [r3, #21]
 8005c52:	e018      	b.n	8005c86 <RadioSetTxGenericConfig+0x1a6>
            if( ( config->fsk.CrcLength != RADIO_FSK_CRC_2_BYTES_IBM ) && ( config->fsk.CrcLength != RADIO_FSK_CRC_2_BYTES_CCIT )
 8005c54:	7d62      	ldrb	r2, [r4, #21]
 8005c56:	f102 030f 	add.w	r3, r2, #15
 8005c5a:	b2db      	uxtb	r3, r3
 8005c5c:	2b01      	cmp	r3, #1
 8005c5e:	d901      	bls.n	8005c64 <RadioSetTxGenericConfig+0x184>
                && ( config->fsk.CrcLength != RADIO_FSK_CRC_OFF ) )
 8005c60:	2a01      	cmp	r2, #1
 8005c62:	d128      	bne.n	8005cb6 <RadioSetTxGenericConfig+0x1d6>
            ConfigGeneric.rtx = CONFIG_TX;
 8005c64:	2301      	movs	r3, #1
 8005c66:	f88d 300c 	strb.w	r3, [sp, #12]
            ConfigGeneric.TxConfig = config;
 8005c6a:	9401      	str	r4, [sp, #4]
            if( 0UL != RFW_Init( &ConfigGeneric, RadioEvents, &TxTimeoutTimer ) )
 8005c6c:	4a5e      	ldr	r2, [pc, #376]	; (8005de8 <RadioSetTxGenericConfig+0x308>)
 8005c6e:	4b5f      	ldr	r3, [pc, #380]	; (8005dec <RadioSetTxGenericConfig+0x30c>)
 8005c70:	6819      	ldr	r1, [r3, #0]
 8005c72:	a801      	add	r0, sp, #4
 8005c74:	f001 fb7a 	bl	800736c <RFW_Init>
 8005c78:	b9e8      	cbnz	r0, 8005cb6 <RadioSetTxGenericConfig+0x1d6>
            SubgRf.PacketParams.Params.Gfsk.DcFree = ( RadioDcFree_t ) RADIO_FSK_DC_FREE_OFF;
 8005c7a:	4b5a      	ldr	r3, [pc, #360]	; (8005de4 <RadioSetTxGenericConfig+0x304>)
 8005c7c:	2200      	movs	r2, #0
 8005c7e:	761a      	strb	r2, [r3, #24]
            SubgRf.PacketParams.Params.Gfsk.CrcLength = ( RadioCrcTypes_t ) RADIO_CRC_OFF;
 8005c80:	2101      	movs	r1, #1
 8005c82:	75d9      	strb	r1, [r3, #23]
            SubgRf.PacketParams.Params.Gfsk.HeaderType = ( RadioPacketLengthModes_t ) RADIO_PACKET_FIXED_LENGTH;
 8005c84:	755a      	strb	r2, [r3, #21]
        RadioStandby( );
 8005c86:	f7ff fbbf 	bl	8005408 <RadioStandby>
        RadioSetModem( MODEM_FSK );
 8005c8a:	2000      	movs	r0, #0
 8005c8c:	f7ff feea 	bl	8005a64 <RadioSetModem>
        SUBGRF_SetModulationParams( &SubgRf.ModulationParams );
 8005c90:	4d54      	ldr	r5, [pc, #336]	; (8005de4 <RadioSetTxGenericConfig+0x304>)
 8005c92:	f105 0038 	add.w	r0, r5, #56	; 0x38
 8005c96:	f001 f8dd 	bl	8006e54 <SUBGRF_SetModulationParams>
        SUBGRF_SetPacketParams( &SubgRf.PacketParams );
 8005c9a:	f105 000e 	add.w	r0, r5, #14
 8005c9e:	f001 f961 	bl	8006f64 <SUBGRF_SetPacketParams>
        SUBGRF_SetSyncWord( syncword );
 8005ca2:	a804      	add	r0, sp, #16
 8005ca4:	f000 fd48 	bl	8006738 <SUBGRF_SetSyncWord>
        SUBGRF_SetWhiteningSeed( config->fsk.whiteSeed );
 8005ca8:	8a20      	ldrh	r0, [r4, #16]
 8005caa:	f000 fd1c 	bl	80066e6 <SUBGRF_SetWhiteningSeed>
        SUBGRF_SetCrcPolynomial( config->fsk.CrcPolynomial );
 8005cae:	89a0      	ldrh	r0, [r4, #12]
 8005cb0:	f000 fd5f 	bl	8006772 <SUBGRF_SetCrcPolynomial>
        break;
 8005cb4:	e079      	b.n	8005daa <RadioSetTxGenericConfig+0x2ca>
                return -1;
 8005cb6:	f04f 30ff 	mov.w	r0, #4294967295
 8005cba:	e080      	b.n	8005dbe <RadioSetTxGenericConfig+0x2de>
        SubgRf.ModulationParams.PacketType = PACKET_TYPE_LORA;
 8005cbc:	4b49      	ldr	r3, [pc, #292]	; (8005de4 <RadioSetTxGenericConfig+0x304>)
 8005cbe:	2201      	movs	r2, #1
 8005cc0:	f883 2038 	strb.w	r2, [r3, #56]	; 0x38
        SubgRf.ModulationParams.Params.LoRa.SpreadingFactor = ( RadioLoRaSpreadingFactors_t ) config->lora.SpreadingFactor;
 8005cc4:	7822      	ldrb	r2, [r4, #0]
 8005cc6:	f883 2050 	strb.w	r2, [r3, #80]	; 0x50
        SubgRf.ModulationParams.Params.LoRa.Bandwidth = ( RadioLoRaBandwidths_t ) config->lora.Bandwidth;
 8005cca:	7862      	ldrb	r2, [r4, #1]
 8005ccc:	f883 2051 	strb.w	r2, [r3, #81]	; 0x51
        SubgRf.ModulationParams.Params.LoRa.CodingRate = ( RadioLoRaCodingRates_t ) config->lora.Coderate;
 8005cd0:	78a2      	ldrb	r2, [r4, #2]
 8005cd2:	f883 2052 	strb.w	r2, [r3, #82]	; 0x52
        switch( config->lora.LowDatarateOptimize )
 8005cd6:	78e3      	ldrb	r3, [r4, #3]
 8005cd8:	2b01      	cmp	r3, #1
 8005cda:	d033      	beq.n	8005d44 <RadioSetTxGenericConfig+0x264>
 8005cdc:	2b02      	cmp	r3, #2
 8005cde:	d036      	beq.n	8005d4e <RadioSetTxGenericConfig+0x26e>
 8005ce0:	b35b      	cbz	r3, 8005d3a <RadioSetTxGenericConfig+0x25a>
        SubgRf.PacketParams.PacketType = PACKET_TYPE_LORA;
 8005ce2:	4d40      	ldr	r5, [pc, #256]	; (8005de4 <RadioSetTxGenericConfig+0x304>)
 8005ce4:	f04f 0801 	mov.w	r8, #1
 8005ce8:	f885 800e 	strb.w	r8, [r5, #14]
        SubgRf.PacketParams.Params.LoRa.PreambleLength = config->lora.PreambleLen;
 8005cec:	88a3      	ldrh	r3, [r4, #4]
 8005cee:	83ab      	strh	r3, [r5, #28]
        SubgRf.PacketParams.Params.LoRa.HeaderType = ( RadioLoRaPacketLengthsMode_t ) config->lora.LengthMode;
 8005cf0:	79a3      	ldrb	r3, [r4, #6]
 8005cf2:	77ab      	strb	r3, [r5, #30]
        SubgRf.PacketParams.Params.LoRa.CrcMode = ( RadioLoRaCrcModes_t ) config->lora.CrcMode;
 8005cf4:	79e3      	ldrb	r3, [r4, #7]
 8005cf6:	f885 3020 	strb.w	r3, [r5, #32]
        SubgRf.PacketParams.Params.LoRa.InvertIQ = ( RadioLoRaIQModes_t ) config->lora.IqInverted;
 8005cfa:	7a23      	ldrb	r3, [r4, #8]
 8005cfc:	f885 3021 	strb.w	r3, [r5, #33]	; 0x21
        RadioStandby( );
 8005d00:	f7ff fb82 	bl	8005408 <RadioStandby>
        RadioSetModem( MODEM_LORA );
 8005d04:	4640      	mov	r0, r8
 8005d06:	f7ff fead 	bl	8005a64 <RadioSetModem>
        SUBGRF_SetModulationParams( &SubgRf.ModulationParams );
 8005d0a:	f105 0038 	add.w	r0, r5, #56	; 0x38
 8005d0e:	f001 f8a1 	bl	8006e54 <SUBGRF_SetModulationParams>
        SUBGRF_SetPacketParams( &SubgRf.PacketParams );
 8005d12:	f105 000e 	add.w	r0, r5, #14
 8005d16:	f001 f925 	bl	8006f64 <SUBGRF_SetPacketParams>
        if( SubgRf.ModulationParams.Params.LoRa.Bandwidth == LORA_BW_500 )
 8005d1a:	f895 3051 	ldrb.w	r3, [r5, #81]	; 0x51
 8005d1e:	2b06      	cmp	r3, #6
 8005d20:	d024      	beq.n	8005d6c <RadioSetTxGenericConfig+0x28c>
            SUBGRF_WriteRegister( SUBGHZ_SDCFG0R, SUBGRF_ReadRegister( SUBGHZ_SDCFG0R ) | ( 1 << 2 ) );
 8005d22:	f640 0089 	movw	r0, #2185	; 0x889
 8005d26:	f000 fcbb 	bl	80066a0 <SUBGRF_ReadRegister>
 8005d2a:	f040 0104 	orr.w	r1, r0, #4
 8005d2e:	b2c9      	uxtb	r1, r1
 8005d30:	f640 0089 	movw	r0, #2185	; 0x889
 8005d34:	f000 fca4 	bl	8006680 <SUBGRF_WriteRegister>
 8005d38:	e037      	b.n	8005daa <RadioSetTxGenericConfig+0x2ca>
            SubgRf.ModulationParams.Params.LoRa.LowDatarateOptimize = 0;
 8005d3a:	4b2a      	ldr	r3, [pc, #168]	; (8005de4 <RadioSetTxGenericConfig+0x304>)
 8005d3c:	2200      	movs	r2, #0
 8005d3e:	f883 2053 	strb.w	r2, [r3, #83]	; 0x53
            break;
 8005d42:	e7ce      	b.n	8005ce2 <RadioSetTxGenericConfig+0x202>
            SubgRf.ModulationParams.Params.LoRa.LowDatarateOptimize = 1;
 8005d44:	4b27      	ldr	r3, [pc, #156]	; (8005de4 <RadioSetTxGenericConfig+0x304>)
 8005d46:	2201      	movs	r2, #1
 8005d48:	f883 2053 	strb.w	r2, [r3, #83]	; 0x53
            break;
 8005d4c:	e7c9      	b.n	8005ce2 <RadioSetTxGenericConfig+0x202>
            if( ( config->lora.SpreadingFactor == RADIO_LORA_SF11 ) || ( config->lora.SpreadingFactor == RADIO_LORA_SF12 ) )
 8005d4e:	7823      	ldrb	r3, [r4, #0]
 8005d50:	3b0b      	subs	r3, #11
 8005d52:	b2db      	uxtb	r3, r3
 8005d54:	2b01      	cmp	r3, #1
 8005d56:	d904      	bls.n	8005d62 <RadioSetTxGenericConfig+0x282>
                SubgRf.ModulationParams.Params.LoRa.LowDatarateOptimize = 0;
 8005d58:	4b22      	ldr	r3, [pc, #136]	; (8005de4 <RadioSetTxGenericConfig+0x304>)
 8005d5a:	2200      	movs	r2, #0
 8005d5c:	f883 2053 	strb.w	r2, [r3, #83]	; 0x53
 8005d60:	e7bf      	b.n	8005ce2 <RadioSetTxGenericConfig+0x202>
                SubgRf.ModulationParams.Params.LoRa.LowDatarateOptimize = 1;
 8005d62:	4b20      	ldr	r3, [pc, #128]	; (8005de4 <RadioSetTxGenericConfig+0x304>)
 8005d64:	2201      	movs	r2, #1
 8005d66:	f883 2053 	strb.w	r2, [r3, #83]	; 0x53
 8005d6a:	e7ba      	b.n	8005ce2 <RadioSetTxGenericConfig+0x202>
            SUBGRF_WriteRegister( SUBGHZ_SDCFG0R, SUBGRF_ReadRegister( SUBGHZ_SDCFG0R ) & ~( 1 << 2 ) );
 8005d6c:	f640 0089 	movw	r0, #2185	; 0x889
 8005d70:	f000 fc96 	bl	80066a0 <SUBGRF_ReadRegister>
 8005d74:	f000 01fb 	and.w	r1, r0, #251	; 0xfb
 8005d78:	f640 0089 	movw	r0, #2185	; 0x889
 8005d7c:	f000 fc80 	bl	8006680 <SUBGRF_WriteRegister>
 8005d80:	e013      	b.n	8005daa <RadioSetTxGenericConfig+0x2ca>
        if( ( config->bpsk.BitRate == 0 ) || ( config->bpsk.BitRate > 1000 ) )
 8005d82:	6823      	ldr	r3, [r4, #0]
 8005d84:	3b01      	subs	r3, #1
 8005d86:	f5b3 7f7a 	cmp.w	r3, #1000	; 0x3e8
 8005d8a:	d227      	bcs.n	8005ddc <RadioSetTxGenericConfig+0x2fc>
        RadioSetModem( MODEM_BPSK );
 8005d8c:	2003      	movs	r0, #3
 8005d8e:	f7ff fe69 	bl	8005a64 <RadioSetModem>
        SubgRf.ModulationParams.PacketType = PACKET_TYPE_BPSK;
 8005d92:	4814      	ldr	r0, [pc, #80]	; (8005de4 <RadioSetTxGenericConfig+0x304>)
 8005d94:	2302      	movs	r3, #2
 8005d96:	f880 3038 	strb.w	r3, [r0, #56]	; 0x38
        SubgRf.ModulationParams.Params.Bpsk.BitRate = config->bpsk.BitRate;
 8005d9a:	6823      	ldr	r3, [r4, #0]
 8005d9c:	6483      	str	r3, [r0, #72]	; 0x48
        SubgRf.ModulationParams.Params.Bpsk.ModulationShaping = MOD_SHAPING_DBPSK;
 8005d9e:	2316      	movs	r3, #22
 8005da0:	f880 304c 	strb.w	r3, [r0, #76]	; 0x4c
        SUBGRF_SetModulationParams( &SubgRf.ModulationParams );
 8005da4:	3038      	adds	r0, #56	; 0x38
 8005da6:	f001 f855 	bl	8006e54 <SUBGRF_SetModulationParams>
    SubgRf.AntSwitchPaSelect = SUBGRF_SetRfTxPower( power );
 8005daa:	4638      	mov	r0, r7
 8005dac:	f001 fa04 	bl	80071b8 <SUBGRF_SetRfTxPower>
 8005db0:	4c0c      	ldr	r4, [pc, #48]	; (8005de4 <RadioSetTxGenericConfig+0x304>)
 8005db2:	f884 0056 	strb.w	r0, [r4, #86]	; 0x56
    RFW_SetAntSwitch( SubgRf.AntSwitchPaSelect );
 8005db6:	f001 fae1 	bl	800737c <RFW_SetAntSwitch>
    SubgRf.TxTimeout = timeout;
 8005dba:	6066      	str	r6, [r4, #4]
    return 0;
 8005dbc:	2000      	movs	r0, #0
}
 8005dbe:	b006      	add	sp, #24
 8005dc0:	e8bd 81f0 	ldmia.w	sp!, {r4, r5, r6, r7, r8, pc}
            return -1;
 8005dc4:	f04f 30ff 	mov.w	r0, #4294967295
 8005dc8:	e7f9      	b.n	8005dbe <RadioSetTxGenericConfig+0x2de>
            return -1;
 8005dca:	f04f 30ff 	mov.w	r0, #4294967295
 8005dce:	e7f6      	b.n	8005dbe <RadioSetTxGenericConfig+0x2de>
            return -1;
 8005dd0:	f04f 30ff 	mov.w	r0, #4294967295
 8005dd4:	e7f3      	b.n	8005dbe <RadioSetTxGenericConfig+0x2de>
            return -1;
 8005dd6:	f04f 30ff 	mov.w	r0, #4294967295
 8005dda:	e7f0      	b.n	8005dbe <RadioSetTxGenericConfig+0x2de>
            return -1;
 8005ddc:	f04f 30ff 	mov.w	r0, #4294967295
 8005de0:	e7ed      	b.n	8005dbe <RadioSetTxGenericConfig+0x2de>
 8005de2:	bf00      	nop
 8005de4:	200005f0 	.word	0x200005f0
 8005de8:	2000064c 	.word	0x2000064c
 8005dec:	200005d4 	.word	0x200005d4

08005df0 <RadioSetRxGenericConfig>:
{
 8005df0:	e92d 41f0 	stmdb	sp!, {r4, r5, r6, r7, r8, lr}
 8005df4:	b086      	sub	sp, #24
 8005df6:	4606      	mov	r6, r0
 8005df8:	460c      	mov	r4, r1
 8005dfa:	4615      	mov	r5, r2
 8005dfc:	461f      	mov	r7, r3
    uint8_t syncword[8] = {0};
 8005dfe:	2300      	movs	r3, #0
 8005e00:	9304      	str	r3, [sp, #16]
 8005e02:	9305      	str	r3, [sp, #20]
    RFW_DeInit( ); /* switch Off FwPacketDecoding by default */
 8005e04:	f001 fab5 	bl	8007372 <RFW_DeInit>
    if( rxContinuous != 0 )
 8005e08:	b105      	cbz	r5, 8005e0c <RadioSetRxGenericConfig+0x1c>
        symbTimeout = 0;
 8005e0a:	2700      	movs	r7, #0
    SubgRf.RxContinuous = ( rxContinuous == 0 ) ? false : true;
 8005e0c:	3d00      	subs	r5, #0
 8005e0e:	bf18      	it	ne
 8005e10:	2501      	movne	r5, #1
 8005e12:	4b93      	ldr	r3, [pc, #588]	; (8006060 <RadioSetRxGenericConfig+0x270>)
 8005e14:	705d      	strb	r5, [r3, #1]
    switch( modem )
 8005e16:	b136      	cbz	r6, 8005e26 <RadioSetRxGenericConfig+0x36>
 8005e18:	2e01      	cmp	r6, #1
 8005e1a:	f000 808f 	beq.w	8005f3c <RadioSetRxGenericConfig+0x14c>
 8005e1e:	2000      	movs	r0, #0
}
 8005e20:	b006      	add	sp, #24
 8005e22:	e8bd 81f0 	ldmia.w	sp!, {r4, r5, r6, r7, r8, pc}
        if( ( config->fsk.BitRate == 0 ) || ( config->fsk.PreambleLen == 0 ) )
 8005e26:	68a3      	ldr	r3, [r4, #8]
 8005e28:	2b00      	cmp	r3, #0
 8005e2a:	f000 810d 	beq.w	8006048 <RadioSetRxGenericConfig+0x258>
 8005e2e:	68e3      	ldr	r3, [r4, #12]
 8005e30:	2b00      	cmp	r3, #0
 8005e32:	f000 810c 	beq.w	800604e <RadioSetRxGenericConfig+0x25e>
        if( config->fsk.SyncWordLength > 8 )
 8005e36:	7fa2      	ldrb	r2, [r4, #30]
 8005e38:	2a08      	cmp	r2, #8
 8005e3a:	f200 810b 	bhi.w	8006054 <RadioSetRxGenericConfig+0x264>
            RADIO_MEMCPY8( syncword, config->fsk.SyncWord, config->fsk.SyncWordLength );
 8005e3e:	6921      	ldr	r1, [r4, #16]
 8005e40:	a804      	add	r0, sp, #16
 8005e42:	f001 fc93 	bl	800776c <UTIL_MEM_cpy_8>
        SUBGRF_SetStopRxTimerOnPreambleDetect( ( config->fsk.StopTimerOnPreambleDetect == 0 ) ? false : true );
 8005e46:	6820      	ldr	r0, [r4, #0]
 8005e48:	3800      	subs	r0, #0
 8005e4a:	bf18      	it	ne
 8005e4c:	2001      	movne	r0, #1
 8005e4e:	f000 fdf5 	bl	8006a3c <SUBGRF_SetStopRxTimerOnPreambleDetect>
        SubgRf.ModulationParams.PacketType = PACKET_TYPE_GFSK;
 8005e52:	4d83      	ldr	r5, [pc, #524]	; (8006060 <RadioSetRxGenericConfig+0x270>)
 8005e54:	2600      	movs	r6, #0
 8005e56:	f885 6038 	strb.w	r6, [r5, #56]	; 0x38
        SubgRf.ModulationParams.Params.Gfsk.BitRate = config->fsk.BitRate;
 8005e5a:	68a3      	ldr	r3, [r4, #8]
 8005e5c:	63eb      	str	r3, [r5, #60]	; 0x3c
        SubgRf.ModulationParams.Params.Gfsk.ModulationShaping = ( RadioModShapings_t ) config->fsk.ModulationShaping;
 8005e5e:	f894 3020 	ldrb.w	r3, [r4, #32]
 8005e62:	f885 3044 	strb.w	r3, [r5, #68]	; 0x44
        SubgRf.ModulationParams.Params.Gfsk.Bandwidth = SUBGRF_GetFskBandwidthRegValue( config->fsk.Bandwidth );
 8005e66:	6860      	ldr	r0, [r4, #4]
 8005e68:	f001 fa1e 	bl	80072a8 <SUBGRF_GetFskBandwidthRegValue>
 8005e6c:	f885 0045 	strb.w	r0, [r5, #69]	; 0x45
        SubgRf.PacketParams.PacketType = PACKET_TYPE_GFSK;
 8005e70:	73ae      	strb	r6, [r5, #14]
        SubgRf.PacketParams.Params.Gfsk.PreambleLength = ( config->fsk.PreambleLen ) << 3 ; // convert byte into bit
 8005e72:	68e3      	ldr	r3, [r4, #12]
 8005e74:	00db      	lsls	r3, r3, #3
 8005e76:	822b      	strh	r3, [r5, #16]
        SubgRf.PacketParams.Params.Gfsk.PreambleMinDetect = ( RadioPreambleDetection_t ) config->fsk.PreambleMinDetect;
 8005e78:	7fe3      	ldrb	r3, [r4, #31]
 8005e7a:	74ab      	strb	r3, [r5, #18]
        SubgRf.PacketParams.Params.Gfsk.SyncWordLength = ( config->fsk.SyncWordLength ) << 3; // convert byte into bit
 8005e7c:	7fa3      	ldrb	r3, [r4, #30]
 8005e7e:	00db      	lsls	r3, r3, #3
 8005e80:	74eb      	strb	r3, [r5, #19]
        SubgRf.PacketParams.Params.Gfsk.AddrComp = ( RadioAddressComp_t ) config->fsk.AddrComp;
 8005e82:	f894 3021 	ldrb.w	r3, [r4, #33]	; 0x21
 8005e86:	752b      	strb	r3, [r5, #20]
        if( config->fsk.LengthMode == RADIO_FSK_PACKET_FIXED_LENGTH )
 8005e88:	f894 3022 	ldrb.w	r3, [r4, #34]	; 0x22
 8005e8c:	b973      	cbnz	r3, 8005eac <RadioSetRxGenericConfig+0xbc>
            SubgRf.PacketParams.Params.Gfsk.PayloadLength = config->fsk.MaxPayloadLength;
 8005e8e:	6961      	ldr	r1, [r4, #20]
 8005e90:	75a9      	strb	r1, [r5, #22]
        if( ( config->fsk.Whitening == RADIO_FSK_DC_IBM_WHITENING )
 8005e92:	f894 2024 	ldrb.w	r2, [r4, #36]	; 0x24
 8005e96:	2a02      	cmp	r2, #2
 8005e98:	d012      	beq.n	8005ec0 <RadioSetRxGenericConfig+0xd0>
            || ( config->fsk.LengthMode == RADIO_FSK_PACKET_2BYTES_LENGTH ) )
 8005e9a:	2b02      	cmp	r3, #2
 8005e9c:	d010      	beq.n	8005ec0 <RadioSetRxGenericConfig+0xd0>
            SubgRf.PacketParams.Params.Gfsk.CrcLength = ( RadioCrcTypes_t ) config->fsk.CrcLength;
 8005e9e:	f894 0023 	ldrb.w	r0, [r4, #35]	; 0x23
 8005ea2:	496f      	ldr	r1, [pc, #444]	; (8006060 <RadioSetRxGenericConfig+0x270>)
 8005ea4:	75c8      	strb	r0, [r1, #23]
            SubgRf.PacketParams.Params.Gfsk.DcFree = ( RadioDcFree_t ) config->fsk.Whitening;
 8005ea6:	760a      	strb	r2, [r1, #24]
            SubgRf.PacketParams.Params.Gfsk.HeaderType = ( RadioPacketLengthModes_t ) config->fsk.LengthMode;
 8005ea8:	754b      	strb	r3, [r1, #21]
 8005eaa:	e023      	b.n	8005ef4 <RadioSetRxGenericConfig+0x104>
        else if( config->fsk.LengthMode == RADIO_FSK_PACKET_2BYTES_LENGTH )
 8005eac:	2b02      	cmp	r3, #2
 8005eae:	d003      	beq.n	8005eb8 <RadioSetRxGenericConfig+0xc8>
            SubgRf.PacketParams.Params.Gfsk.PayloadLength = 0xFF;
 8005eb0:	4a6b      	ldr	r2, [pc, #428]	; (8006060 <RadioSetRxGenericConfig+0x270>)
 8005eb2:	21ff      	movs	r1, #255	; 0xff
 8005eb4:	7591      	strb	r1, [r2, #22]
 8005eb6:	e7ec      	b.n	8005e92 <RadioSetRxGenericConfig+0xa2>
            SubgRf.PacketParams.Params.Gfsk.PayloadLength = 0xFF;
 8005eb8:	4a69      	ldr	r2, [pc, #420]	; (8006060 <RadioSetRxGenericConfig+0x270>)
 8005eba:	21ff      	movs	r1, #255	; 0xff
 8005ebc:	7591      	strb	r1, [r2, #22]
 8005ebe:	e7e8      	b.n	8005e92 <RadioSetRxGenericConfig+0xa2>
            if( ( config->fsk.CrcLength != RADIO_FSK_CRC_2_BYTES_IBM ) && ( config->fsk.CrcLength != RADIO_FSK_CRC_2_BYTES_CCIT )
 8005ec0:	f894 2023 	ldrb.w	r2, [r4, #35]	; 0x23
 8005ec4:	f102 030f 	add.w	r3, r2, #15
 8005ec8:	b2db      	uxtb	r3, r3
 8005eca:	2b01      	cmp	r3, #1
 8005ecc:	d901      	bls.n	8005ed2 <RadioSetRxGenericConfig+0xe2>
                && ( config->fsk.CrcLength != RADIO_FSK_CRC_OFF ) )
 8005ece:	2a01      	cmp	r2, #1
 8005ed0:	d131      	bne.n	8005f36 <RadioSetRxGenericConfig+0x146>
            ConfigGeneric.rtx = CONFIG_RX;
 8005ed2:	2300      	movs	r3, #0
 8005ed4:	f88d 300c 	strb.w	r3, [sp, #12]
            ConfigGeneric.RxConfig = config;
 8005ed8:	9402      	str	r4, [sp, #8]
            if( 0UL != RFW_Init( &ConfigGeneric, RadioEvents, &RxTimeoutTimer ) )
 8005eda:	4a62      	ldr	r2, [pc, #392]	; (8006064 <RadioSetRxGenericConfig+0x274>)
 8005edc:	4b62      	ldr	r3, [pc, #392]	; (8006068 <RadioSetRxGenericConfig+0x278>)
 8005ede:	6819      	ldr	r1, [r3, #0]
 8005ee0:	a801      	add	r0, sp, #4
 8005ee2:	f001 fa43 	bl	800736c <RFW_Init>
 8005ee6:	bb30      	cbnz	r0, 8005f36 <RadioSetRxGenericConfig+0x146>
            SubgRf.PacketParams.Params.Gfsk.DcFree = ( RadioDcFree_t ) RADIO_FSK_DC_FREE_OFF;
 8005ee8:	4b5d      	ldr	r3, [pc, #372]	; (8006060 <RadioSetRxGenericConfig+0x270>)
 8005eea:	2200      	movs	r2, #0
 8005eec:	761a      	strb	r2, [r3, #24]
            SubgRf.PacketParams.Params.Gfsk.CrcLength = ( RadioCrcTypes_t ) RADIO_CRC_OFF;
 8005eee:	2101      	movs	r1, #1
 8005ef0:	75d9      	strb	r1, [r3, #23]
            SubgRf.PacketParams.Params.Gfsk.HeaderType = ( RadioPacketLengthModes_t ) RADIO_PACKET_FIXED_LENGTH;
 8005ef2:	755a      	strb	r2, [r3, #21]
        RadioStandby( );
 8005ef4:	f7ff fa88 	bl	8005408 <RadioStandby>
        RadioSetModem( MODEM_FSK );
 8005ef8:	2000      	movs	r0, #0
 8005efa:	f7ff fdb3 	bl	8005a64 <RadioSetModem>
        SUBGRF_SetModulationParams( &SubgRf.ModulationParams );
 8005efe:	4d58      	ldr	r5, [pc, #352]	; (8006060 <RadioSetRxGenericConfig+0x270>)
 8005f00:	f105 0038 	add.w	r0, r5, #56	; 0x38
 8005f04:	f000 ffa6 	bl	8006e54 <SUBGRF_SetModulationParams>
        SUBGRF_SetPacketParams( &SubgRf.PacketParams );
 8005f08:	f105 000e 	add.w	r0, r5, #14
 8005f0c:	f001 f82a 	bl	8006f64 <SUBGRF_SetPacketParams>
        SUBGRF_SetSyncWord( syncword );
 8005f10:	a804      	add	r0, sp, #16
 8005f12:	f000 fc11 	bl	8006738 <SUBGRF_SetSyncWord>
        SUBGRF_SetWhiteningSeed( config->fsk.whiteSeed );
 8005f16:	8ba0      	ldrh	r0, [r4, #28]
 8005f18:	f000 fbe5 	bl	80066e6 <SUBGRF_SetWhiteningSeed>
        SUBGRF_SetCrcPolynomial( config->fsk.CrcPolynomial );
 8005f1c:	8b20      	ldrh	r0, [r4, #24]
 8005f1e:	f000 fc28 	bl	8006772 <SUBGRF_SetCrcPolynomial>
        SubgRf.RxTimeout = ( uint32_t )( ( symbTimeout * 1000 * 8 ) / config->fsk.BitRate );
 8005f22:	f44f 53fa 	mov.w	r3, #8000	; 0x1f40
 8005f26:	fb07 f303 	mul.w	r3, r7, r3
 8005f2a:	68a2      	ldr	r2, [r4, #8]
 8005f2c:	fbb3 f3f2 	udiv	r3, r3, r2
 8005f30:	60ab      	str	r3, [r5, #8]
    return status;
 8005f32:	2000      	movs	r0, #0
        break;
 8005f34:	e774      	b.n	8005e20 <RadioSetRxGenericConfig+0x30>
                return -1;
 8005f36:	f04f 30ff 	mov.w	r0, #4294967295
 8005f3a:	e771      	b.n	8005e20 <RadioSetRxGenericConfig+0x30>
        if( config->lora.PreambleLen == 0 )
 8005f3c:	8e23      	ldrh	r3, [r4, #48]	; 0x30
 8005f3e:	2b00      	cmp	r3, #0
 8005f40:	f000 808b 	beq.w	800605a <RadioSetRxGenericConfig+0x26a>
        if( config->lora.LengthMode == RADIO_LORA_PACKET_FIXED_LENGTH )
 8005f44:	f894 3032 	ldrb.w	r3, [r4, #50]	; 0x32
 8005f48:	2b01      	cmp	r3, #1
 8005f4a:	d055      	beq.n	8005ff8 <RadioSetRxGenericConfig+0x208>
            MaxPayloadLength = 0xFF;
 8005f4c:	f04f 08ff 	mov.w	r8, #255	; 0xff
        SUBGRF_SetStopRxTimerOnPreambleDetect( ( config->lora.StopTimerOnPreambleDetect == 0 ) ? false : true );
 8005f50:	6aa0      	ldr	r0, [r4, #40]	; 0x28
 8005f52:	3800      	subs	r0, #0
 8005f54:	bf18      	it	ne
 8005f56:	2001      	movne	r0, #1
 8005f58:	f000 fd70 	bl	8006a3c <SUBGRF_SetStopRxTimerOnPreambleDetect>
        SUBGRF_SetLoRaSymbNumTimeout( symbTimeout );
 8005f5c:	b2f8      	uxtb	r0, r7
 8005f5e:	f000 fd7a 	bl	8006a56 <SUBGRF_SetLoRaSymbNumTimeout>
        SubgRf.ModulationParams.PacketType = PACKET_TYPE_LORA;
 8005f62:	4b3f      	ldr	r3, [pc, #252]	; (8006060 <RadioSetRxGenericConfig+0x270>)
 8005f64:	2201      	movs	r2, #1
 8005f66:	f883 2038 	strb.w	r2, [r3, #56]	; 0x38
        SubgRf.ModulationParams.Params.LoRa.SpreadingFactor = ( RadioLoRaSpreadingFactors_t ) config->lora.SpreadingFactor;
 8005f6a:	f894 202c 	ldrb.w	r2, [r4, #44]	; 0x2c
 8005f6e:	f883 2050 	strb.w	r2, [r3, #80]	; 0x50
        SubgRf.ModulationParams.Params.LoRa.Bandwidth = ( RadioLoRaBandwidths_t ) config->lora.Bandwidth;
 8005f72:	f894 202d 	ldrb.w	r2, [r4, #45]	; 0x2d
 8005f76:	f883 2051 	strb.w	r2, [r3, #81]	; 0x51
        SubgRf.ModulationParams.Params.LoRa.CodingRate = ( RadioLoRaCodingRates_t ) config->lora.Coderate;
 8005f7a:	f894 202e 	ldrb.w	r2, [r4, #46]	; 0x2e
 8005f7e:	f883 2052 	strb.w	r2, [r3, #82]	; 0x52
        switch( config->lora.LowDatarateOptimize )
 8005f82:	f894 302f 	ldrb.w	r3, [r4, #47]	; 0x2f
 8005f86:	2b01      	cmp	r3, #1
 8005f88:	d03e      	beq.n	8006008 <RadioSetRxGenericConfig+0x218>
 8005f8a:	2b02      	cmp	r3, #2
 8005f8c:	d041      	beq.n	8006012 <RadioSetRxGenericConfig+0x222>
 8005f8e:	b3b3      	cbz	r3, 8005ffe <RadioSetRxGenericConfig+0x20e>
        SubgRf.PacketParams.PacketType = PACKET_TYPE_LORA;
 8005f90:	4d33      	ldr	r5, [pc, #204]	; (8006060 <RadioSetRxGenericConfig+0x270>)
 8005f92:	2601      	movs	r6, #1
 8005f94:	73ae      	strb	r6, [r5, #14]
        SubgRf.PacketParams.Params.LoRa.PreambleLength = config->lora.PreambleLen;
 8005f96:	8e23      	ldrh	r3, [r4, #48]	; 0x30
 8005f98:	83ab      	strh	r3, [r5, #28]
        SubgRf.PacketParams.Params.LoRa.HeaderType = ( RadioLoRaPacketLengthsMode_t ) config->lora.LengthMode;
 8005f9a:	f894 3032 	ldrb.w	r3, [r4, #50]	; 0x32
 8005f9e:	77ab      	strb	r3, [r5, #30]
        SubgRf.PacketParams.Params.LoRa.PayloadLength = MaxPayloadLength;
 8005fa0:	f885 801f 	strb.w	r8, [r5, #31]
        SubgRf.PacketParams.Params.LoRa.CrcMode = ( RadioLoRaCrcModes_t ) config->lora.CrcMode;
 8005fa4:	f894 3034 	ldrb.w	r3, [r4, #52]	; 0x34
 8005fa8:	f885 3020 	strb.w	r3, [r5, #32]
        SubgRf.PacketParams.Params.LoRa.InvertIQ = ( RadioLoRaIQModes_t ) config->lora.IqInverted;
 8005fac:	f894 3035 	ldrb.w	r3, [r4, #53]	; 0x35
 8005fb0:	f885 3021 	strb.w	r3, [r5, #33]	; 0x21
        RadioStandby( );
 8005fb4:	f7ff fa28 	bl	8005408 <RadioStandby>
        RadioSetModem( MODEM_LORA );
 8005fb8:	4630      	mov	r0, r6
 8005fba:	f7ff fd53 	bl	8005a64 <RadioSetModem>
        SUBGRF_SetModulationParams( &SubgRf.ModulationParams );
 8005fbe:	f105 0038 	add.w	r0, r5, #56	; 0x38
 8005fc2:	f000 ff47 	bl	8006e54 <SUBGRF_SetModulationParams>
        SUBGRF_SetPacketParams( &SubgRf.PacketParams );
 8005fc6:	f105 000e 	add.w	r0, r5, #14
 8005fca:	f000 ffcb 	bl	8006f64 <SUBGRF_SetPacketParams>
        if( SubgRf.PacketParams.Params.LoRa.InvertIQ == LORA_IQ_INVERTED )
 8005fce:	f895 3021 	ldrb.w	r3, [r5, #33]	; 0x21
 8005fd2:	42b3      	cmp	r3, r6
 8005fd4:	d02d      	beq.n	8006032 <RadioSetRxGenericConfig+0x242>
            SUBGRF_WriteRegister( SUBGHZ_LIQPOLR, SUBGRF_ReadRegister( SUBGHZ_LIQPOLR ) | ( 1 << 2 ) );
 8005fd6:	f240 7036 	movw	r0, #1846	; 0x736
 8005fda:	f000 fb61 	bl	80066a0 <SUBGRF_ReadRegister>
 8005fde:	f040 0104 	orr.w	r1, r0, #4
 8005fe2:	b2c9      	uxtb	r1, r1
 8005fe4:	f240 7036 	movw	r0, #1846	; 0x736
 8005fe8:	f000 fb4a 	bl	8006680 <SUBGRF_WriteRegister>
        SubgRf.RxTimeout = 0xFFFF;
 8005fec:	4b1c      	ldr	r3, [pc, #112]	; (8006060 <RadioSetRxGenericConfig+0x270>)
 8005fee:	f64f 72ff 	movw	r2, #65535	; 0xffff
 8005ff2:	609a      	str	r2, [r3, #8]
    return status;
 8005ff4:	2000      	movs	r0, #0
        break;
 8005ff6:	e713      	b.n	8005e20 <RadioSetRxGenericConfig+0x30>
            MaxPayloadLength = config->fsk.MaxPayloadLength;
 8005ff8:	f894 8014 	ldrb.w	r8, [r4, #20]
 8005ffc:	e7a8      	b.n	8005f50 <RadioSetRxGenericConfig+0x160>
            SubgRf.ModulationParams.Params.LoRa.LowDatarateOptimize = 0;
 8005ffe:	4b18      	ldr	r3, [pc, #96]	; (8006060 <RadioSetRxGenericConfig+0x270>)
 8006000:	2200      	movs	r2, #0
 8006002:	f883 2053 	strb.w	r2, [r3, #83]	; 0x53
            break;
 8006006:	e7c3      	b.n	8005f90 <RadioSetRxGenericConfig+0x1a0>
            SubgRf.ModulationParams.Params.LoRa.LowDatarateOptimize = 1;
 8006008:	4b15      	ldr	r3, [pc, #84]	; (8006060 <RadioSetRxGenericConfig+0x270>)
 800600a:	2201      	movs	r2, #1
 800600c:	f883 2053 	strb.w	r2, [r3, #83]	; 0x53
            break;
 8006010:	e7be      	b.n	8005f90 <RadioSetRxGenericConfig+0x1a0>
            if( ( config->lora.SpreadingFactor == RADIO_LORA_SF11 ) || ( config->lora.SpreadingFactor == RADIO_LORA_SF12 ) )
 8006012:	f894 302c 	ldrb.w	r3, [r4, #44]	; 0x2c
 8006016:	3b0b      	subs	r3, #11
 8006018:	b2db      	uxtb	r3, r3
 800601a:	2b01      	cmp	r3, #1
 800601c:	d904      	bls.n	8006028 <RadioSetRxGenericConfig+0x238>
                SubgRf.ModulationParams.Params.LoRa.LowDatarateOptimize = 0;
 800601e:	4b10      	ldr	r3, [pc, #64]	; (8006060 <RadioSetRxGenericConfig+0x270>)
 8006020:	2200      	movs	r2, #0
 8006022:	f883 2053 	strb.w	r2, [r3, #83]	; 0x53
 8006026:	e7b3      	b.n	8005f90 <RadioSetRxGenericConfig+0x1a0>
                SubgRf.ModulationParams.Params.LoRa.LowDatarateOptimize = 1;
 8006028:	4b0d      	ldr	r3, [pc, #52]	; (8006060 <RadioSetRxGenericConfig+0x270>)
 800602a:	2201      	movs	r2, #1
 800602c:	f883 2053 	strb.w	r2, [r3, #83]	; 0x53
 8006030:	e7ae      	b.n	8005f90 <RadioSetRxGenericConfig+0x1a0>
            SUBGRF_WriteRegister( SUBGHZ_LIQPOLR, SUBGRF_ReadRegister( SUBGHZ_LIQPOLR ) & ~( 1 << 2 ) );
 8006032:	f240 7036 	movw	r0, #1846	; 0x736
 8006036:	f000 fb33 	bl	80066a0 <SUBGRF_ReadRegister>
 800603a:	f000 01fb 	and.w	r1, r0, #251	; 0xfb
 800603e:	f240 7036 	movw	r0, #1846	; 0x736
 8006042:	f000 fb1d 	bl	8006680 <SUBGRF_WriteRegister>
 8006046:	e7d1      	b.n	8005fec <RadioSetRxGenericConfig+0x1fc>
            return -1;
 8006048:	f04f 30ff 	mov.w	r0, #4294967295
 800604c:	e6e8      	b.n	8005e20 <RadioSetRxGenericConfig+0x30>
 800604e:	f04f 30ff 	mov.w	r0, #4294967295
 8006052:	e6e5      	b.n	8005e20 <RadioSetRxGenericConfig+0x30>
            return -1;
 8006054:	f04f 30ff 	mov.w	r0, #4294967295
 8006058:	e6e2      	b.n	8005e20 <RadioSetRxGenericConfig+0x30>
            return -1;
 800605a:	f04f 30ff 	mov.w	r0, #4294967295
 800605e:	e6df      	b.n	8005e20 <RadioSetRxGenericConfig+0x30>
 8006060:	200005f0 	.word	0x200005f0
 8006064:	200005d8 	.word	0x200005d8
 8006068:	200005d4 	.word	0x200005d4

0800606c <RadioSetPublicNetwork>:
{
 800606c:	b510      	push	{r4, lr}
 800606e:	4604      	mov	r4, r0
    SubgRf.PublicNetwork.Current = SubgRf.PublicNetwork.Previous = enable;
 8006070:	4b0e      	ldr	r3, [pc, #56]	; (80060ac <RadioSetPublicNetwork+0x40>)
 8006072:	7318      	strb	r0, [r3, #12]
 8006074:	7358      	strb	r0, [r3, #13]
    RadioSetModem( MODEM_LORA );
 8006076:	2001      	movs	r0, #1
 8006078:	f7ff fcf4 	bl	8005a64 <RadioSetModem>
    if( enable == true )
 800607c:	b154      	cbz	r4, 8006094 <RadioSetPublicNetwork+0x28>
        SUBGRF_WriteRegister( REG_LR_SYNCWORD, ( LORA_MAC_PUBLIC_SYNCWORD >> 8 ) & 0xFF );
 800607e:	2134      	movs	r1, #52	; 0x34
 8006080:	f44f 60e8 	mov.w	r0, #1856	; 0x740
 8006084:	f000 fafc 	bl	8006680 <SUBGRF_WriteRegister>
        SUBGRF_WriteRegister( REG_LR_SYNCWORD + 1, LORA_MAC_PUBLIC_SYNCWORD & 0xFF );
 8006088:	2144      	movs	r1, #68	; 0x44
 800608a:	f240 7041 	movw	r0, #1857	; 0x741
 800608e:	f000 faf7 	bl	8006680 <SUBGRF_WriteRegister>
}
 8006092:	bd10      	pop	{r4, pc}
        SUBGRF_WriteRegister( REG_LR_SYNCWORD, ( LORA_MAC_PRIVATE_SYNCWORD >> 8 ) & 0xFF );
 8006094:	2114      	movs	r1, #20
 8006096:	f44f 60e8 	mov.w	r0, #1856	; 0x740
 800609a:	f000 faf1 	bl	8006680 <SUBGRF_WriteRegister>
        SUBGRF_WriteRegister( REG_LR_SYNCWORD + 1, LORA_MAC_PRIVATE_SYNCWORD & 0xFF );
 800609e:	2124      	movs	r1, #36	; 0x24
 80060a0:	f240 7041 	movw	r0, #1857	; 0x741
 80060a4:	f000 faec 	bl	8006680 <SUBGRF_WriteRegister>
}
 80060a8:	e7f3      	b.n	8006092 <RadioSetPublicNetwork+0x26>
 80060aa:	bf00      	nop
 80060ac:	200005f0 	.word	0x200005f0

080060b0 <RadioSetTxConfig>:
{
 80060b0:	e92d 4ff0 	stmdb	sp!, {r4, r5, r6, r7, r8, r9, sl, fp, lr}
 80060b4:	b083      	sub	sp, #12
 80060b6:	4604      	mov	r4, r0
 80060b8:	460d      	mov	r5, r1
 80060ba:	4691      	mov	r9, r2
 80060bc:	461f      	mov	r7, r3
 80060be:	f8bd 6038 	ldrh.w	r6, [sp, #56]	; 0x38
 80060c2:	f89d 803c 	ldrb.w	r8, [sp, #60]	; 0x3c
 80060c6:	f89d a040 	ldrb.w	sl, [sp, #64]	; 0x40
    RFW_DeInit();
 80060ca:	f001 f952 	bl	8007372 <RFW_DeInit>
    switch( modem )
 80060ce:	2c01      	cmp	r4, #1
 80060d0:	d05d      	beq.n	800618e <RadioSetTxConfig+0xde>
 80060d2:	2c04      	cmp	r4, #4
 80060d4:	f000 80aa 	beq.w	800622c <RadioSetTxConfig+0x17c>
 80060d8:	b19c      	cbz	r4, 8006102 <RadioSetTxConfig+0x52>
    SubgRf.AntSwitchPaSelect = SUBGRF_SetRfTxPower( power );
 80060da:	4628      	mov	r0, r5
 80060dc:	f001 f86c 	bl	80071b8 <SUBGRF_SetRfTxPower>
 80060e0:	4c5a      	ldr	r4, [pc, #360]	; (800624c <RadioSetTxConfig+0x19c>)
 80060e2:	f884 0056 	strb.w	r0, [r4, #86]	; 0x56
    SUBGRF_WriteRegister(REG_DRV_CTRL, 0x7 << 1);
 80060e6:	210e      	movs	r1, #14
 80060e8:	f640 101f 	movw	r0, #2335	; 0x91f
 80060ec:	f000 fac8 	bl	8006680 <SUBGRF_WriteRegister>
    RFW_SetAntSwitch( SubgRf.AntSwitchPaSelect );
 80060f0:	f894 0056 	ldrb.w	r0, [r4, #86]	; 0x56
 80060f4:	f001 f942 	bl	800737c <RFW_SetAntSwitch>
    SubgRf.TxTimeout = timeout;
 80060f8:	9b14      	ldr	r3, [sp, #80]	; 0x50
 80060fa:	6063      	str	r3, [r4, #4]
}
 80060fc:	b003      	add	sp, #12
 80060fe:	e8bd 8ff0 	ldmia.w	sp!, {r4, r5, r6, r7, r8, r9, sl, fp, pc}
            SubgRf.ModulationParams.PacketType = PACKET_TYPE_GFSK;
 8006102:	4c52      	ldr	r4, [pc, #328]	; (800624c <RadioSetTxConfig+0x19c>)
 8006104:	f04f 0b00 	mov.w	fp, #0
 8006108:	f884 b038 	strb.w	fp, [r4, #56]	; 0x38
            SubgRf.ModulationParams.Params.Gfsk.BitRate = datarate;
 800610c:	9b0c      	ldr	r3, [sp, #48]	; 0x30
 800610e:	63e3      	str	r3, [r4, #60]	; 0x3c
            SubgRf.ModulationParams.Params.Gfsk.ModulationShaping = MOD_SHAPING_G_BT_1;
 8006110:	230b      	movs	r3, #11
 8006112:	f884 3044 	strb.w	r3, [r4, #68]	; 0x44
            SubgRf.ModulationParams.Params.Gfsk.Bandwidth = SUBGRF_GetFskBandwidthRegValue( bandwidth );
 8006116:	4638      	mov	r0, r7
 8006118:	f001 f8c6 	bl	80072a8 <SUBGRF_GetFskBandwidthRegValue>
 800611c:	f884 0045 	strb.w	r0, [r4, #69]	; 0x45
            SubgRf.ModulationParams.Params.Gfsk.Fdev = fdev;
 8006120:	f8c4 9040 	str.w	r9, [r4, #64]	; 0x40
            SubgRf.PacketParams.PacketType = PACKET_TYPE_GFSK;
 8006124:	f884 b00e 	strb.w	fp, [r4, #14]
            SubgRf.PacketParams.Params.Gfsk.PreambleLength = ( preambleLen << 3 ); // convert byte into bit
 8006128:	00f6      	lsls	r6, r6, #3
 800612a:	8226      	strh	r6, [r4, #16]
            SubgRf.PacketParams.Params.Gfsk.PreambleMinDetect = RADIO_PREAMBLE_DETECTOR_08_BITS;
 800612c:	2304      	movs	r3, #4
 800612e:	74a3      	strb	r3, [r4, #18]
            SubgRf.PacketParams.Params.Gfsk.SyncWordLength = 3 << 3 ; // convert byte into bit
 8006130:	2318      	movs	r3, #24
 8006132:	74e3      	strb	r3, [r4, #19]
            SubgRf.PacketParams.Params.Gfsk.AddrComp = RADIO_ADDRESSCOMP_FILT_OFF;
 8006134:	f884 b014 	strb.w	fp, [r4, #20]
            SubgRf.PacketParams.Params.Gfsk.HeaderType = ( fixLen == true ) ? RADIO_PACKET_FIXED_LENGTH : RADIO_PACKET_VARIABLE_LENGTH;
 8006138:	f088 0801 	eor.w	r8, r8, #1
 800613c:	f884 8015 	strb.w	r8, [r4, #21]
            if( crcOn == true )
 8006140:	f1ba 0f00 	cmp.w	sl, #0
 8006144:	d01f      	beq.n	8006186 <RadioSetTxConfig+0xd6>
                SubgRf.PacketParams.Params.Gfsk.CrcLength = RADIO_CRC_2_BYTES_CCIT;
 8006146:	22f2      	movs	r2, #242	; 0xf2
 8006148:	75e2      	strb	r2, [r4, #23]
            SubgRf.PacketParams.Params.Gfsk.DcFree = RADIO_DC_FREEWHITENING;
 800614a:	4c40      	ldr	r4, [pc, #256]	; (800624c <RadioSetTxConfig+0x19c>)
 800614c:	2301      	movs	r3, #1
 800614e:	7623      	strb	r3, [r4, #24]
            RadioStandby( );
 8006150:	f7ff f95a 	bl	8005408 <RadioStandby>
            RadioSetModem(  MODEM_FSK  );
 8006154:	2000      	movs	r0, #0
 8006156:	f7ff fc85 	bl	8005a64 <RadioSetModem>
            SUBGRF_SetModulationParams( &SubgRf.ModulationParams );
 800615a:	f104 0038 	add.w	r0, r4, #56	; 0x38
 800615e:	f000 fe79 	bl	8006e54 <SUBGRF_SetModulationParams>
            SUBGRF_SetPacketParams( &SubgRf.PacketParams );
 8006162:	f104 000e 	add.w	r0, r4, #14
 8006166:	f000 fefd 	bl	8006f64 <SUBGRF_SetPacketParams>
            SUBGRF_SetSyncWord( ( uint8_t[] ){ 0xC1, 0x94, 0xC1, 0x00, 0x00, 0x00, 0x00, 0x00 } );
 800616a:	4a39      	ldr	r2, [pc, #228]	; (8006250 <RadioSetTxConfig+0x1a0>)
 800616c:	466b      	mov	r3, sp
 800616e:	e892 0003 	ldmia.w	r2, {r0, r1}
 8006172:	e883 0003 	stmia.w	r3, {r0, r1}
 8006176:	4618      	mov	r0, r3
 8006178:	f000 fade 	bl	8006738 <SUBGRF_SetSyncWord>
            SUBGRF_SetWhiteningSeed( 0x01FF );
 800617c:	f240 10ff 	movw	r0, #511	; 0x1ff
 8006180:	f000 fab1 	bl	80066e6 <SUBGRF_SetWhiteningSeed>
            break;
 8006184:	e7a9      	b.n	80060da <RadioSetTxConfig+0x2a>
                SubgRf.PacketParams.Params.Gfsk.CrcLength = RADIO_CRC_OFF;
 8006186:	4b31      	ldr	r3, [pc, #196]	; (800624c <RadioSetTxConfig+0x19c>)
 8006188:	2201      	movs	r2, #1
 800618a:	75da      	strb	r2, [r3, #23]
 800618c:	e7dd      	b.n	800614a <RadioSetTxConfig+0x9a>
            SubgRf.ModulationParams.PacketType = PACKET_TYPE_LORA;
 800618e:	4a2f      	ldr	r2, [pc, #188]	; (800624c <RadioSetTxConfig+0x19c>)
 8006190:	2301      	movs	r3, #1
 8006192:	f882 3038 	strb.w	r3, [r2, #56]	; 0x38
            SubgRf.ModulationParams.Params.LoRa.SpreadingFactor = ( RadioLoRaSpreadingFactors_t ) datarate;
 8006196:	9b0c      	ldr	r3, [sp, #48]	; 0x30
 8006198:	b2db      	uxtb	r3, r3
 800619a:	f882 3050 	strb.w	r3, [r2, #80]	; 0x50
            SubgRf.ModulationParams.Params.LoRa.Bandwidth =  Bandwidths[bandwidth];
 800619e:	492d      	ldr	r1, [pc, #180]	; (8006254 <RadioSetTxConfig+0x1a4>)
 80061a0:	5dc9      	ldrb	r1, [r1, r7]
 80061a2:	f882 1051 	strb.w	r1, [r2, #81]	; 0x51
            SubgRf.ModulationParams.Params.LoRa.CodingRate= ( RadioLoRaCodingRates_t )coderate;
 80061a6:	f89d 1034 	ldrb.w	r1, [sp, #52]	; 0x34
 80061aa:	f882 1052 	strb.w	r1, [r2, #82]	; 0x52
            if( ( ( bandwidth == 0 ) && ( ( datarate == 11 ) || ( datarate == 12 ) ) ) ||
 80061ae:	b91f      	cbnz	r7, 80061b8 <RadioSetTxConfig+0x108>
 80061b0:	9a0c      	ldr	r2, [sp, #48]	; 0x30
 80061b2:	3a0b      	subs	r2, #11
 80061b4:	2a01      	cmp	r2, #1
 80061b6:	d92b      	bls.n	8006210 <RadioSetTxConfig+0x160>
 80061b8:	2f01      	cmp	r7, #1
 80061ba:	d026      	beq.n	800620a <RadioSetTxConfig+0x15a>
                SubgRf.ModulationParams.Params.LoRa.LowDatarateOptimize = 0x00;
 80061bc:	4a23      	ldr	r2, [pc, #140]	; (800624c <RadioSetTxConfig+0x19c>)
 80061be:	2100      	movs	r1, #0
 80061c0:	f882 1053 	strb.w	r1, [r2, #83]	; 0x53
            SubgRf.PacketParams.PacketType = PACKET_TYPE_LORA;
 80061c4:	4a21      	ldr	r2, [pc, #132]	; (800624c <RadioSetTxConfig+0x19c>)
 80061c6:	2101      	movs	r1, #1
 80061c8:	7391      	strb	r1, [r2, #14]
            if( ( SubgRf.ModulationParams.Params.LoRa.SpreadingFactor == LORA_SF5 ) ||
 80061ca:	3b05      	subs	r3, #5
 80061cc:	b2db      	uxtb	r3, r3
 80061ce:	428b      	cmp	r3, r1
 80061d0:	d923      	bls.n	800621a <RadioSetTxConfig+0x16a>
                SubgRf.PacketParams.Params.LoRa.PreambleLength = preambleLen;
 80061d2:	4b1e      	ldr	r3, [pc, #120]	; (800624c <RadioSetTxConfig+0x19c>)
 80061d4:	839e      	strh	r6, [r3, #28]
            SubgRf.PacketParams.Params.LoRa.HeaderType = ( RadioLoRaPacketLengthsMode_t )fixLen;
 80061d6:	4c1d      	ldr	r4, [pc, #116]	; (800624c <RadioSetTxConfig+0x19c>)
 80061d8:	f884 801e 	strb.w	r8, [r4, #30]
            SubgRf.PacketParams.Params.LoRa.PayloadLength = MaxPayloadLength;
 80061dc:	4b1e      	ldr	r3, [pc, #120]	; (8006258 <RadioSetTxConfig+0x1a8>)
 80061de:	781b      	ldrb	r3, [r3, #0]
 80061e0:	77e3      	strb	r3, [r4, #31]
            SubgRf.PacketParams.Params.LoRa.CrcMode = ( RadioLoRaCrcModes_t )crcOn;
 80061e2:	f884 a020 	strb.w	sl, [r4, #32]
            SubgRf.PacketParams.Params.LoRa.InvertIQ = ( RadioLoRaIQModes_t )iqInverted;
 80061e6:	f89d 304c 	ldrb.w	r3, [sp, #76]	; 0x4c
 80061ea:	f884 3021 	strb.w	r3, [r4, #33]	; 0x21
            RadioStandby( );
 80061ee:	f7ff f90b 	bl	8005408 <RadioStandby>
            RadioSetModem( MODEM_LORA );
 80061f2:	2001      	movs	r0, #1
 80061f4:	f7ff fc36 	bl	8005a64 <RadioSetModem>
            SUBGRF_SetModulationParams( &SubgRf.ModulationParams );
 80061f8:	f104 0038 	add.w	r0, r4, #56	; 0x38
 80061fc:	f000 fe2a 	bl	8006e54 <SUBGRF_SetModulationParams>
            SUBGRF_SetPacketParams( &SubgRf.PacketParams );
 8006200:	f104 000e 	add.w	r0, r4, #14
 8006204:	f000 feae 	bl	8006f64 <SUBGRF_SetPacketParams>
            break;
 8006208:	e767      	b.n	80060da <RadioSetTxConfig+0x2a>
                ( ( bandwidth == 1 ) && ( datarate == 12 ) ) )
 800620a:	9a0c      	ldr	r2, [sp, #48]	; 0x30
 800620c:	2a0c      	cmp	r2, #12
 800620e:	d1d5      	bne.n	80061bc <RadioSetTxConfig+0x10c>
                SubgRf.ModulationParams.Params.LoRa.LowDatarateOptimize = 0x01;
 8006210:	4a0e      	ldr	r2, [pc, #56]	; (800624c <RadioSetTxConfig+0x19c>)
 8006212:	2101      	movs	r1, #1
 8006214:	f882 1053 	strb.w	r1, [r2, #83]	; 0x53
 8006218:	e7d4      	b.n	80061c4 <RadioSetTxConfig+0x114>
                if( preambleLen < 12 )
 800621a:	2e0b      	cmp	r6, #11
 800621c:	d803      	bhi.n	8006226 <RadioSetTxConfig+0x176>
                    SubgRf.PacketParams.Params.LoRa.PreambleLength = 12;
 800621e:	4613      	mov	r3, r2
 8006220:	220c      	movs	r2, #12
 8006222:	839a      	strh	r2, [r3, #28]
 8006224:	e7d7      	b.n	80061d6 <RadioSetTxConfig+0x126>
                    SubgRf.PacketParams.Params.LoRa.PreambleLength = preambleLen;
 8006226:	4b09      	ldr	r3, [pc, #36]	; (800624c <RadioSetTxConfig+0x19c>)
 8006228:	839e      	strh	r6, [r3, #28]
 800622a:	e7d4      	b.n	80061d6 <RadioSetTxConfig+0x126>
            RadioSetModem(MODEM_SIGFOX_TX);
 800622c:	2004      	movs	r0, #4
 800622e:	f7ff fc19 	bl	8005a64 <RadioSetModem>
            SubgRf.ModulationParams.PacketType = PACKET_TYPE_BPSK;
 8006232:	4806      	ldr	r0, [pc, #24]	; (800624c <RadioSetTxConfig+0x19c>)
 8006234:	2302      	movs	r3, #2
 8006236:	f880 3038 	strb.w	r3, [r0, #56]	; 0x38
            SubgRf.ModulationParams.Params.Bpsk.BitRate           = datarate;
 800623a:	9b0c      	ldr	r3, [sp, #48]	; 0x30
 800623c:	6483      	str	r3, [r0, #72]	; 0x48
            SubgRf.ModulationParams.Params.Bpsk.ModulationShaping = MOD_SHAPING_DBPSK;
 800623e:	2316      	movs	r3, #22
 8006240:	f880 304c 	strb.w	r3, [r0, #76]	; 0x4c
            SUBGRF_SetModulationParams( &SubgRf.ModulationParams );
 8006244:	3038      	adds	r0, #56	; 0x38
 8006246:	f000 fe05 	bl	8006e54 <SUBGRF_SetModulationParams>
            break;
 800624a:	e746      	b.n	80060da <RadioSetTxConfig+0x2a>
 800624c:	200005f0 	.word	0x200005f0
 8006250:	08009344 	.word	0x08009344
 8006254:	080096f8 	.word	0x080096f8
 8006258:	2000002c 	.word	0x2000002c

0800625c <RadioSetRxConfig>:
{
 800625c:	e92d 4ff0 	stmdb	sp!, {r4, r5, r6, r7, r8, r9, sl, fp, lr}
 8006260:	b087      	sub	sp, #28
 8006262:	4604      	mov	r4, r0
 8006264:	460e      	mov	r6, r1
 8006266:	4615      	mov	r5, r2
 8006268:	9301      	str	r3, [sp, #4]
 800626a:	f8bd 9044 	ldrh.w	r9, [sp, #68]	; 0x44
 800626e:	f8bd a048 	ldrh.w	sl, [sp, #72]	; 0x48
 8006272:	f89d 704c 	ldrb.w	r7, [sp, #76]	; 0x4c
 8006276:	f89d b054 	ldrb.w	fp, [sp, #84]	; 0x54
 800627a:	f89d 8064 	ldrb.w	r8, [sp, #100]	; 0x64
    SubgRf.RxContinuous = rxContinuous;
 800627e:	4bb0      	ldr	r3, [pc, #704]	; (8006540 <RadioSetRxConfig+0x2e4>)
 8006280:	f883 8001 	strb.w	r8, [r3, #1]
    RFW_DeInit();
 8006284:	f001 f875 	bl	8007372 <RFW_DeInit>
    if( rxContinuous == true )
 8006288:	f1b8 0f00 	cmp.w	r8, #0
 800628c:	d001      	beq.n	8006292 <RadioSetRxConfig+0x36>
        symbTimeout = 0;
 800628e:	f04f 0a00 	mov.w	sl, #0
    if( fixLen == true )
 8006292:	b16f      	cbz	r7, 80062b0 <RadioSetRxConfig+0x54>
        MaxPayloadLength = payloadLen;
 8006294:	f89d 2050 	ldrb.w	r2, [sp, #80]	; 0x50
 8006298:	4baa      	ldr	r3, [pc, #680]	; (8006544 <RadioSetRxConfig+0x2e8>)
 800629a:	701a      	strb	r2, [r3, #0]
    switch( modem )
 800629c:	2c01      	cmp	r4, #1
 800629e:	f000 80d2 	beq.w	8006446 <RadioSetRxConfig+0x1ea>
 80062a2:	2c05      	cmp	r4, #5
 80062a4:	d008      	beq.n	80062b8 <RadioSetRxConfig+0x5c>
 80062a6:	2c00      	cmp	r4, #0
 80062a8:	d07c      	beq.n	80063a4 <RadioSetRxConfig+0x148>
}
 80062aa:	b007      	add	sp, #28
 80062ac:	e8bd 8ff0 	ldmia.w	sp!, {r4, r5, r6, r7, r8, r9, sl, fp, pc}
        MaxPayloadLength = 0xFF;
 80062b0:	4ba4      	ldr	r3, [pc, #656]	; (8006544 <RadioSetRxConfig+0x2e8>)
 80062b2:	22ff      	movs	r2, #255	; 0xff
 80062b4:	701a      	strb	r2, [r3, #0]
 80062b6:	e7f1      	b.n	800629c <RadioSetRxConfig+0x40>
            SUBGRF_SetStopRxTimerOnPreambleDetect( true );
 80062b8:	2001      	movs	r0, #1
 80062ba:	f000 fbbf 	bl	8006a3c <SUBGRF_SetStopRxTimerOnPreambleDetect>
            SubgRf.ModulationParams.PacketType = PACKET_TYPE_GFSK;
 80062be:	4ca0      	ldr	r4, [pc, #640]	; (8006540 <RadioSetRxConfig+0x2e4>)
 80062c0:	2700      	movs	r7, #0
 80062c2:	f884 7038 	strb.w	r7, [r4, #56]	; 0x38
            SubgRf.ModulationParams.Params.Gfsk.BitRate = datarate;
 80062c6:	63e5      	str	r5, [r4, #60]	; 0x3c
            SubgRf.ModulationParams.Params.Gfsk.ModulationShaping = MOD_SHAPING_G_BT_05;
 80062c8:	2309      	movs	r3, #9
 80062ca:	f884 3044 	strb.w	r3, [r4, #68]	; 0x44
            SubgRf.ModulationParams.Params.Gfsk.Fdev = 800;
 80062ce:	f44f 7348 	mov.w	r3, #800	; 0x320
 80062d2:	6423      	str	r3, [r4, #64]	; 0x40
            SubgRf.ModulationParams.Params.Gfsk.Bandwidth = SUBGRF_GetFskBandwidthRegValue( bandwidth );
 80062d4:	4630      	mov	r0, r6
 80062d6:	f000 ffe7 	bl	80072a8 <SUBGRF_GetFskBandwidthRegValue>
 80062da:	f884 0045 	strb.w	r0, [r4, #69]	; 0x45
            SubgRf.PacketParams.PacketType = PACKET_TYPE_GFSK;
 80062de:	73a7      	strb	r7, [r4, #14]
            SubgRf.PacketParams.Params.Gfsk.PreambleLength = ( preambleLen << 3 ); // convert byte into bit
 80062e0:	ea4f 09c9 	mov.w	r9, r9, lsl #3
 80062e4:	f8a4 9010 	strh.w	r9, [r4, #16]
            SubgRf.PacketParams.Params.Gfsk.PreambleMinDetect = RADIO_PREAMBLE_DETECTOR_OFF;
 80062e8:	74a7      	strb	r7, [r4, #18]
            SubgRf.PacketParams.Params.Gfsk.SyncWordLength = 2 << 3; // convert byte into bit
 80062ea:	2310      	movs	r3, #16
 80062ec:	74e3      	strb	r3, [r4, #19]
            SubgRf.PacketParams.Params.Gfsk.AddrComp = RADIO_ADDRESSCOMP_FILT_OFF;
 80062ee:	7527      	strb	r7, [r4, #20]
            SubgRf.PacketParams.Params.Gfsk.HeaderType = RADIO_PACKET_FIXED_LENGTH;
 80062f0:	7567      	strb	r7, [r4, #21]
            SubgRf.PacketParams.Params.Gfsk.PayloadLength = MaxPayloadLength;
 80062f2:	4b94      	ldr	r3, [pc, #592]	; (8006544 <RadioSetRxConfig+0x2e8>)
 80062f4:	781b      	ldrb	r3, [r3, #0]
 80062f6:	75a3      	strb	r3, [r4, #22]
            SubgRf.PacketParams.Params.Gfsk.CrcLength = RADIO_CRC_OFF;
 80062f8:	2301      	movs	r3, #1
 80062fa:	75e3      	strb	r3, [r4, #23]
            SubgRf.PacketParams.Params.Gfsk.DcFree = RADIO_DC_FREE_OFF;
 80062fc:	7627      	strb	r7, [r4, #24]
            RadioSetModem( MODEM_SIGFOX_RX );
 80062fe:	2005      	movs	r0, #5
 8006300:	f7ff fbb0 	bl	8005a64 <RadioSetModem>
            SUBGRF_SetModulationParams( &SubgRf.ModulationParams );
 8006304:	f104 0038 	add.w	r0, r4, #56	; 0x38
 8006308:	f000 fda4 	bl	8006e54 <SUBGRF_SetModulationParams>
            SUBGRF_SetPacketParams( &SubgRf.PacketParams );
 800630c:	f104 000e 	add.w	r0, r4, #14
 8006310:	f000 fe28 	bl	8006f64 <SUBGRF_SetPacketParams>
            SUBGRF_SetSyncWord( ( uint8_t[] ){0xB2, 0x27, 0x00, 0x00, 0x00, 0x00, 0x00, 0x00 } );
 8006314:	ab02      	add	r3, sp, #8
 8006316:	4a8c      	ldr	r2, [pc, #560]	; (8006548 <RadioSetRxConfig+0x2ec>)
 8006318:	e892 0003 	ldmia.w	r2, {r0, r1}
 800631c:	e883 0003 	stmia.w	r3, {r0, r1}
 8006320:	4618      	mov	r0, r3
 8006322:	f000 fa09 	bl	8006738 <SUBGRF_SetSyncWord>
            SUBGRF_SetWhiteningSeed( 0x01FF );
 8006326:	f240 10ff 	movw	r0, #511	; 0x1ff
 800632a:	f000 f9dc 	bl	80066e6 <SUBGRF_SetWhiteningSeed>
            modReg= RadioRead(SUBGHZ_AGCGFORSTCFGR);
 800632e:	f640 00b8 	movw	r0, #2232	; 0x8b8
 8006332:	f7fe ffe9 	bl	8005308 <RadioRead>
            RadioWrite(SUBGHZ_AGCGFORSTCFGR, modReg);
 8006336:	f000 01ef 	and.w	r1, r0, #239	; 0xef
 800633a:	f640 00b8 	movw	r0, #2232	; 0x8b8
 800633e:	f7fe ffe7 	bl	8005310 <RadioWrite>
            RadioWrite(SUBGHZ_AGCGFORSTPOWTHR, 0x4 );
 8006342:	2104      	movs	r1, #4
 8006344:	f640 00b9 	movw	r0, #2233	; 0x8b9
 8006348:	f7fe ffe2 	bl	8005310 <RadioWrite>
            modReg= RadioRead(SUBGHZ_AGCRSSICTL0R);
 800634c:	f640 009b 	movw	r0, #2203	; 0x89b
 8006350:	f7fe ffda 	bl	8005308 <RadioRead>
            modReg&=( RADIO_BIT_MASK(2) & RADIO_BIT_MASK(3) & RADIO_BIT_MASK(4) );
 8006354:	f000 01e3 	and.w	r1, r0, #227	; 0xe3
            RadioWrite(SUBGHZ_AGCRSSICTL0R, (modReg| (0x1<<3) ) );
 8006358:	f041 0108 	orr.w	r1, r1, #8
 800635c:	f640 009b 	movw	r0, #2203	; 0x89b
 8006360:	f7fe ffd6 	bl	8005310 <RadioWrite>
            modReg= RadioRead(SUBGHZ_GAFCR);
 8006364:	f240 60d1 	movw	r0, #1745	; 0x6d1
 8006368:	f7fe ffce 	bl	8005308 <RadioRead>
            modReg&=( RADIO_BIT_MASK(3) & RADIO_BIT_MASK(4) );
 800636c:	f000 01e7 	and.w	r1, r0, #231	; 0xe7
            RadioWrite(SUBGHZ_GAFCR, (modReg| (0x3<<3) ));
 8006370:	f041 0118 	orr.w	r1, r1, #24
 8006374:	f240 60d1 	movw	r0, #1745	; 0x6d1
 8006378:	f7fe ffca 	bl	8005310 <RadioWrite>
            modReg= RadioRead(SUBGHZ_GBSYNCR);
 800637c:	f240 60ac 	movw	r0, #1708	; 0x6ac
 8006380:	f7fe ffc2 	bl	8005308 <RadioRead>
            modReg&=( RADIO_BIT_MASK(4) & RADIO_BIT_MASK(5) & RADIO_BIT_MASK(6) );
 8006384:	f000 018f 	and.w	r1, r0, #143	; 0x8f
            RadioWrite(SUBGHZ_GBSYNCR, (modReg| (0x5<<4) ));
 8006388:	f041 0150 	orr.w	r1, r1, #80	; 0x50
 800638c:	f240 60ac 	movw	r0, #1708	; 0x6ac
 8006390:	f7fe ffbe 	bl	8005310 <RadioWrite>
            SubgRf.RxTimeout = ( uint32_t )(( symbTimeout * 8 * 1000 ) /datarate);
 8006394:	f44f 53fa 	mov.w	r3, #8000	; 0x1f40
 8006398:	fb03 f30a 	mul.w	r3, r3, sl
 800639c:	fbb3 f3f5 	udiv	r3, r3, r5
 80063a0:	60a3      	str	r3, [r4, #8]
            break;
 80063a2:	e782      	b.n	80062aa <RadioSetRxConfig+0x4e>
            SUBGRF_SetStopRxTimerOnPreambleDetect( false );
 80063a4:	2000      	movs	r0, #0
 80063a6:	f000 fb49 	bl	8006a3c <SUBGRF_SetStopRxTimerOnPreambleDetect>
            SubgRf.ModulationParams.PacketType = PACKET_TYPE_GFSK;
 80063aa:	4c65      	ldr	r4, [pc, #404]	; (8006540 <RadioSetRxConfig+0x2e4>)
 80063ac:	f04f 0800 	mov.w	r8, #0
 80063b0:	f884 8038 	strb.w	r8, [r4, #56]	; 0x38
            SubgRf.ModulationParams.Params.Gfsk.BitRate = datarate;
 80063b4:	63e5      	str	r5, [r4, #60]	; 0x3c
            SubgRf.ModulationParams.Params.Gfsk.ModulationShaping = MOD_SHAPING_G_BT_1;
 80063b6:	230b      	movs	r3, #11
 80063b8:	f884 3044 	strb.w	r3, [r4, #68]	; 0x44
            SubgRf.ModulationParams.Params.Gfsk.Bandwidth = SUBGRF_GetFskBandwidthRegValue( bandwidth );
 80063bc:	4630      	mov	r0, r6
 80063be:	f000 ff73 	bl	80072a8 <SUBGRF_GetFskBandwidthRegValue>
 80063c2:	f884 0045 	strb.w	r0, [r4, #69]	; 0x45
            SubgRf.PacketParams.PacketType = PACKET_TYPE_GFSK;
 80063c6:	f884 800e 	strb.w	r8, [r4, #14]
            SubgRf.PacketParams.Params.Gfsk.PreambleLength = ( preambleLen << 3 ); // convert byte into bit
 80063ca:	ea4f 09c9 	mov.w	r9, r9, lsl #3
 80063ce:	f8a4 9010 	strh.w	r9, [r4, #16]
            SubgRf.PacketParams.Params.Gfsk.PreambleMinDetect = RADIO_PREAMBLE_DETECTOR_08_BITS;
 80063d2:	2304      	movs	r3, #4
 80063d4:	74a3      	strb	r3, [r4, #18]
            SubgRf.PacketParams.Params.Gfsk.SyncWordLength = 3 << 3; // convert byte into bit
 80063d6:	2318      	movs	r3, #24
 80063d8:	74e3      	strb	r3, [r4, #19]
            SubgRf.PacketParams.Params.Gfsk.AddrComp = RADIO_ADDRESSCOMP_FILT_OFF;
 80063da:	f884 8014 	strb.w	r8, [r4, #20]
            SubgRf.PacketParams.Params.Gfsk.HeaderType = ( fixLen == true ) ? RADIO_PACKET_FIXED_LENGTH : RADIO_PACKET_VARIABLE_LENGTH;
 80063de:	f087 0701 	eor.w	r7, r7, #1
 80063e2:	7567      	strb	r7, [r4, #21]
            SubgRf.PacketParams.Params.Gfsk.PayloadLength = MaxPayloadLength;
 80063e4:	4b57      	ldr	r3, [pc, #348]	; (8006544 <RadioSetRxConfig+0x2e8>)
 80063e6:	781b      	ldrb	r3, [r3, #0]
 80063e8:	75a3      	strb	r3, [r4, #22]
            if( crcOn == true )
 80063ea:	f1bb 0f00 	cmp.w	fp, #0
 80063ee:	d026      	beq.n	800643e <RadioSetRxConfig+0x1e2>
                SubgRf.PacketParams.Params.Gfsk.CrcLength = RADIO_CRC_2_BYTES_CCIT;
 80063f0:	22f2      	movs	r2, #242	; 0xf2
 80063f2:	75e2      	strb	r2, [r4, #23]
            SubgRf.PacketParams.Params.Gfsk.DcFree = RADIO_DC_FREEWHITENING;
 80063f4:	4c52      	ldr	r4, [pc, #328]	; (8006540 <RadioSetRxConfig+0x2e4>)
 80063f6:	2301      	movs	r3, #1
 80063f8:	7623      	strb	r3, [r4, #24]
            RadioStandby( );
 80063fa:	f7ff f805 	bl	8005408 <RadioStandby>
            RadioSetModem( MODEM_FSK );
 80063fe:	2000      	movs	r0, #0
 8006400:	f7ff fb30 	bl	8005a64 <RadioSetModem>
            SUBGRF_SetModulationParams( &SubgRf.ModulationParams );
 8006404:	f104 0038 	add.w	r0, r4, #56	; 0x38
 8006408:	f000 fd24 	bl	8006e54 <SUBGRF_SetModulationParams>
            SUBGRF_SetPacketParams( &SubgRf.PacketParams );
 800640c:	f104 000e 	add.w	r0, r4, #14
 8006410:	f000 fda8 	bl	8006f64 <SUBGRF_SetPacketParams>
            SUBGRF_SetSyncWord( ( uint8_t[] ){ 0xC1, 0x94, 0xC1, 0x00, 0x00, 0x00, 0x00, 0x00 } );
 8006414:	4a4d      	ldr	r2, [pc, #308]	; (800654c <RadioSetRxConfig+0x2f0>)
 8006416:	ab04      	add	r3, sp, #16
 8006418:	e892 0003 	ldmia.w	r2, {r0, r1}
 800641c:	e883 0003 	stmia.w	r3, {r0, r1}
 8006420:	4618      	mov	r0, r3
 8006422:	f000 f989 	bl	8006738 <SUBGRF_SetSyncWord>
            SUBGRF_SetWhiteningSeed( 0x01FF );
 8006426:	f240 10ff 	movw	r0, #511	; 0x1ff
 800642a:	f000 f95c 	bl	80066e6 <SUBGRF_SetWhiteningSeed>
            SubgRf.RxTimeout = ( uint32_t )(( symbTimeout * 8 * 1000 ) /datarate);
 800642e:	f44f 53fa 	mov.w	r3, #8000	; 0x1f40
 8006432:	fb03 f30a 	mul.w	r3, r3, sl
 8006436:	fbb3 f3f5 	udiv	r3, r3, r5
 800643a:	60a3      	str	r3, [r4, #8]
            break;
 800643c:	e735      	b.n	80062aa <RadioSetRxConfig+0x4e>
                SubgRf.PacketParams.Params.Gfsk.CrcLength = RADIO_CRC_OFF;
 800643e:	4b40      	ldr	r3, [pc, #256]	; (8006540 <RadioSetRxConfig+0x2e4>)
 8006440:	2201      	movs	r2, #1
 8006442:	75da      	strb	r2, [r3, #23]
 8006444:	e7d6      	b.n	80063f4 <RadioSetRxConfig+0x198>
            SUBGRF_SetStopRxTimerOnPreambleDetect( false );
 8006446:	2000      	movs	r0, #0
 8006448:	f000 faf8 	bl	8006a3c <SUBGRF_SetStopRxTimerOnPreambleDetect>
            SubgRf.ModulationParams.PacketType = PACKET_TYPE_LORA;
 800644c:	4a3c      	ldr	r2, [pc, #240]	; (8006540 <RadioSetRxConfig+0x2e4>)
 800644e:	2301      	movs	r3, #1
 8006450:	f882 3038 	strb.w	r3, [r2, #56]	; 0x38
            SubgRf.ModulationParams.Params.LoRa.SpreadingFactor = ( RadioLoRaSpreadingFactors_t )datarate;
 8006454:	b2eb      	uxtb	r3, r5
 8006456:	f882 3050 	strb.w	r3, [r2, #80]	; 0x50
            SubgRf.ModulationParams.Params.LoRa.Bandwidth = Bandwidths[bandwidth];
 800645a:	493d      	ldr	r1, [pc, #244]	; (8006550 <RadioSetRxConfig+0x2f4>)
 800645c:	5d89      	ldrb	r1, [r1, r6]
 800645e:	f882 1051 	strb.w	r1, [r2, #81]	; 0x51
            SubgRf.ModulationParams.Params.LoRa.CodingRate = ( RadioLoRaCodingRates_t )coderate;
 8006462:	9901      	ldr	r1, [sp, #4]
 8006464:	f882 1052 	strb.w	r1, [r2, #82]	; 0x52
            if( ( ( bandwidth == 0 ) && ( ( datarate == 11 ) || ( datarate == 12 ) ) ) ||
 8006468:	b91e      	cbnz	r6, 8006472 <RadioSetRxConfig+0x216>
 800646a:	f1a5 020b 	sub.w	r2, r5, #11
 800646e:	2a01      	cmp	r2, #1
 8006470:	d94b      	bls.n	800650a <RadioSetRxConfig+0x2ae>
 8006472:	2e01      	cmp	r6, #1
 8006474:	d047      	beq.n	8006506 <RadioSetRxConfig+0x2aa>
                SubgRf.ModulationParams.Params.LoRa.LowDatarateOptimize = 0x00;
 8006476:	4a32      	ldr	r2, [pc, #200]	; (8006540 <RadioSetRxConfig+0x2e4>)
 8006478:	2100      	movs	r1, #0
 800647a:	f882 1053 	strb.w	r1, [r2, #83]	; 0x53
            SubgRf.PacketParams.PacketType = PACKET_TYPE_LORA;
 800647e:	4a30      	ldr	r2, [pc, #192]	; (8006540 <RadioSetRxConfig+0x2e4>)
 8006480:	2101      	movs	r1, #1
 8006482:	7391      	strb	r1, [r2, #14]
            if( ( SubgRf.ModulationParams.Params.LoRa.SpreadingFactor == LORA_SF5 ) ||
 8006484:	3b05      	subs	r3, #5
 8006486:	b2db      	uxtb	r3, r3
 8006488:	428b      	cmp	r3, r1
 800648a:	d943      	bls.n	8006514 <RadioSetRxConfig+0x2b8>
                SubgRf.PacketParams.Params.LoRa.PreambleLength = preambleLen;
 800648c:	4b2c      	ldr	r3, [pc, #176]	; (8006540 <RadioSetRxConfig+0x2e4>)
 800648e:	f8a3 901c 	strh.w	r9, [r3, #28]
            SubgRf.PacketParams.Params.LoRa.HeaderType = ( RadioLoRaPacketLengthsMode_t )fixLen;
 8006492:	4c2b      	ldr	r4, [pc, #172]	; (8006540 <RadioSetRxConfig+0x2e4>)
 8006494:	77a7      	strb	r7, [r4, #30]
            SubgRf.PacketParams.Params.LoRa.PayloadLength = MaxPayloadLength;
 8006496:	4b2b      	ldr	r3, [pc, #172]	; (8006544 <RadioSetRxConfig+0x2e8>)
 8006498:	781b      	ldrb	r3, [r3, #0]
 800649a:	77e3      	strb	r3, [r4, #31]
            SubgRf.PacketParams.Params.LoRa.CrcMode = ( RadioLoRaCrcModes_t )crcOn;
 800649c:	f884 b020 	strb.w	fp, [r4, #32]
            SubgRf.PacketParams.Params.LoRa.InvertIQ = ( RadioLoRaIQModes_t )iqInverted;
 80064a0:	f89d 3060 	ldrb.w	r3, [sp, #96]	; 0x60
 80064a4:	f884 3021 	strb.w	r3, [r4, #33]	; 0x21
            RadioStandby( );
 80064a8:	f7fe ffae 	bl	8005408 <RadioStandby>
            RadioSetModem( MODEM_LORA );
 80064ac:	2001      	movs	r0, #1
 80064ae:	f7ff fad9 	bl	8005a64 <RadioSetModem>
            SUBGRF_SetModulationParams( &SubgRf.ModulationParams );
 80064b2:	f104 0038 	add.w	r0, r4, #56	; 0x38
 80064b6:	f000 fccd 	bl	8006e54 <SUBGRF_SetModulationParams>
            SUBGRF_SetPacketParams( &SubgRf.PacketParams );
 80064ba:	f104 000e 	add.w	r0, r4, #14
 80064be:	f000 fd51 	bl	8006f64 <SUBGRF_SetPacketParams>
            SUBGRF_SetLoRaSymbNumTimeout( symbTimeout );
 80064c2:	fa5f f08a 	uxtb.w	r0, sl
 80064c6:	f000 fac6 	bl	8006a56 <SUBGRF_SetLoRaSymbNumTimeout>
            SUBGRF_WriteRegister(SUBGHZ_AGCCFG,SUBGRF_ReadRegister(SUBGHZ_AGCCFG)&0x1);
 80064ca:	f640 00a3 	movw	r0, #2211	; 0x8a3
 80064ce:	f000 f8e7 	bl	80066a0 <SUBGRF_ReadRegister>
 80064d2:	f000 0101 	and.w	r1, r0, #1
 80064d6:	f640 00a3 	movw	r0, #2211	; 0x8a3
 80064da:	f000 f8d1 	bl	8006680 <SUBGRF_WriteRegister>
            if( SubgRf.PacketParams.Params.LoRa.InvertIQ == LORA_IQ_INVERTED )
 80064de:	f894 3021 	ldrb.w	r3, [r4, #33]	; 0x21
 80064e2:	2b01      	cmp	r3, #1
 80064e4:	d021      	beq.n	800652a <RadioSetRxConfig+0x2ce>
                SUBGRF_WriteRegister( SUBGHZ_LIQPOLR, SUBGRF_ReadRegister( SUBGHZ_LIQPOLR ) | ( 1 << 2 ) );
 80064e6:	f240 7036 	movw	r0, #1846	; 0x736
 80064ea:	f000 f8d9 	bl	80066a0 <SUBGRF_ReadRegister>
 80064ee:	f040 0104 	orr.w	r1, r0, #4
 80064f2:	b2c9      	uxtb	r1, r1
 80064f4:	f240 7036 	movw	r0, #1846	; 0x736
 80064f8:	f000 f8c2 	bl	8006680 <SUBGRF_WriteRegister>
            SubgRf.RxTimeout = 0xFFFF;
 80064fc:	4b10      	ldr	r3, [pc, #64]	; (8006540 <RadioSetRxConfig+0x2e4>)
 80064fe:	f64f 72ff 	movw	r2, #65535	; 0xffff
 8006502:	609a      	str	r2, [r3, #8]
}
 8006504:	e6d1      	b.n	80062aa <RadioSetRxConfig+0x4e>
                ( ( bandwidth == 1 ) && ( datarate == 12 ) ) )
 8006506:	2d0c      	cmp	r5, #12
 8006508:	d1b5      	bne.n	8006476 <RadioSetRxConfig+0x21a>
                SubgRf.ModulationParams.Params.LoRa.LowDatarateOptimize = 0x01;
 800650a:	4a0d      	ldr	r2, [pc, #52]	; (8006540 <RadioSetRxConfig+0x2e4>)
 800650c:	2101      	movs	r1, #1
 800650e:	f882 1053 	strb.w	r1, [r2, #83]	; 0x53
 8006512:	e7b4      	b.n	800647e <RadioSetRxConfig+0x222>
                if( preambleLen < 12 )
 8006514:	f1b9 0f0b 	cmp.w	r9, #11
 8006518:	d803      	bhi.n	8006522 <RadioSetRxConfig+0x2c6>
                    SubgRf.PacketParams.Params.LoRa.PreambleLength = 12;
 800651a:	4613      	mov	r3, r2
 800651c:	220c      	movs	r2, #12
 800651e:	839a      	strh	r2, [r3, #28]
 8006520:	e7b7      	b.n	8006492 <RadioSetRxConfig+0x236>
                    SubgRf.PacketParams.Params.LoRa.PreambleLength = preambleLen;
 8006522:	4b07      	ldr	r3, [pc, #28]	; (8006540 <RadioSetRxConfig+0x2e4>)
 8006524:	f8a3 901c 	strh.w	r9, [r3, #28]
 8006528:	e7b3      	b.n	8006492 <RadioSetRxConfig+0x236>
                SUBGRF_WriteRegister( SUBGHZ_LIQPOLR, SUBGRF_ReadRegister( SUBGHZ_LIQPOLR ) & ~( 1 << 2 ) );
 800652a:	f240 7036 	movw	r0, #1846	; 0x736
 800652e:	f000 f8b7 	bl	80066a0 <SUBGRF_ReadRegister>
 8006532:	f000 01fb 	and.w	r1, r0, #251	; 0xfb
 8006536:	f240 7036 	movw	r0, #1846	; 0x736
 800653a:	f000 f8a1 	bl	8006680 <SUBGRF_WriteRegister>
 800653e:	e7dd      	b.n	80064fc <RadioSetRxConfig+0x2a0>
 8006540:	200005f0 	.word	0x200005f0
 8006544:	2000002c 	.word	0x2000002c
 8006548:	0800934c 	.word	0x0800934c
 800654c:	08009344 	.word	0x08009344
 8006550:	080096f8 	.word	0x080096f8

08006554 <RadioIsChannelFree>:
{
 8006554:	b5f0      	push	{r4, r5, r6, r7, lr}
 8006556:	b08b      	sub	sp, #44	; 0x2c
 8006558:	4604      	mov	r4, r0
 800655a:	460f      	mov	r7, r1
 800655c:	4616      	mov	r6, r2
 800655e:	461d      	mov	r5, r3
    RadioStandby( );
 8006560:	f7fe ff52 	bl	8005408 <RadioStandby>
    RadioSetModem( MODEM_FSK );
 8006564:	2000      	movs	r0, #0
 8006566:	f7ff fa7d 	bl	8005a64 <RadioSetModem>
    RadioSetChannel( freq );
 800656a:	4620      	mov	r0, r4
 800656c:	f7ff f944 	bl	80057f8 <RadioSetChannel>
    RadioSetRxConfig( MODEM_FSK, rxBandwidth, 600, 0, rxBandwidth, 3, 0, false,
 8006570:	2301      	movs	r3, #1
 8006572:	9309      	str	r3, [sp, #36]	; 0x24
 8006574:	2400      	movs	r4, #0
 8006576:	9408      	str	r4, [sp, #32]
 8006578:	9407      	str	r4, [sp, #28]
 800657a:	9406      	str	r4, [sp, #24]
 800657c:	9405      	str	r4, [sp, #20]
 800657e:	9404      	str	r4, [sp, #16]
 8006580:	9403      	str	r4, [sp, #12]
 8006582:	9402      	str	r4, [sp, #8]
 8006584:	2303      	movs	r3, #3
 8006586:	9301      	str	r3, [sp, #4]
 8006588:	9700      	str	r7, [sp, #0]
 800658a:	4623      	mov	r3, r4
 800658c:	f44f 7216 	mov.w	r2, #600	; 0x258
 8006590:	4639      	mov	r1, r7
 8006592:	4620      	mov	r0, r4
 8006594:	f7ff fe62 	bl	800625c <RadioSetRxConfig>
    RadioRx( 0 );
 8006598:	4620      	mov	r0, r4
 800659a:	f7ff f945 	bl	8005828 <RadioRx>
    RADIO_DELAY_MS( RadioGetWakeupTime( ) );
 800659e:	f7ff f8f7 	bl	8005790 <RadioGetWakeupTime>
 80065a2:	f7fa fa07 	bl	80009b4 <HAL_Delay>
    carrierSenseTime = TimerGetCurrentTime( );
 80065a6:	f001 fa3b 	bl	8007a20 <UTIL_TIMER_GetCurrentTime>
 80065aa:	4604      	mov	r4, r0
    while( TimerGetElapsedTime( carrierSenseTime ) < maxCarrierSenseTime )
 80065ac:	4620      	mov	r0, r4
 80065ae:	f001 fa41 	bl	8007a34 <UTIL_TIMER_GetElapsedTime>
 80065b2:	42a8      	cmp	r0, r5
 80065b4:	d206      	bcs.n	80065c4 <RadioIsChannelFree+0x70>
        rssi = RadioRssi( MODEM_FSK );
 80065b6:	2000      	movs	r0, #0
 80065b8:	f7ff f8f7 	bl	80057aa <RadioRssi>
        if( rssi > rssiThresh )
 80065bc:	42b0      	cmp	r0, r6
 80065be:	ddf5      	ble.n	80065ac <RadioIsChannelFree+0x58>
            status = false;
 80065c0:	2400      	movs	r4, #0
 80065c2:	e000      	b.n	80065c6 <RadioIsChannelFree+0x72>
    bool status = true;
 80065c4:	2401      	movs	r4, #1
    RadioStandby( );
 80065c6:	f7fe ff1f 	bl	8005408 <RadioStandby>
}
 80065ca:	4620      	mov	r0, r4
 80065cc:	b00b      	add	sp, #44	; 0x2c
 80065ce:	bdf0      	pop	{r4, r5, r6, r7, pc}

080065d0 <RadioInit>:
{
 80065d0:	b570      	push	{r4, r5, r6, lr}
 80065d2:	b082      	sub	sp, #8
    RadioEvents = events;
 80065d4:	4b1d      	ldr	r3, [pc, #116]	; (800664c <RadioInit+0x7c>)
 80065d6:	6018      	str	r0, [r3, #0]
    SubgRf.RxContinuous = false;
 80065d8:	4d1d      	ldr	r5, [pc, #116]	; (8006650 <RadioInit+0x80>)
 80065da:	2400      	movs	r4, #0
 80065dc:	706c      	strb	r4, [r5, #1]
    SubgRf.TxTimeout = 0;
 80065de:	606c      	str	r4, [r5, #4]
    SubgRf.RxTimeout = 0;
 80065e0:	60ac      	str	r4, [r5, #8]
    SubgRf.RxDcPreambleDetectTimeout = 0;
 80065e2:	65ac      	str	r4, [r5, #88]	; 0x58
    SUBGRF_Init( RadioOnDioIrq );
 80065e4:	481b      	ldr	r0, [pc, #108]	; (8006654 <RadioInit+0x84>)
 80065e6:	f000 fb27 	bl	8006c38 <SUBGRF_Init>
    SubgRf.PublicNetwork.Current = false;
 80065ea:	736c      	strb	r4, [r5, #13]
    SubgRf.PublicNetwork.Previous = false;
 80065ec:	732c      	strb	r4, [r5, #12]
    SUBGRF_SetRegulatorMode( );
 80065ee:	f000 fa53 	bl	8006a98 <SUBGRF_SetRegulatorMode>
    SUBGRF_SetBufferBaseAddress( 0x00, 0x00 );
 80065f2:	4621      	mov	r1, r4
 80065f4:	4620      	mov	r0, r4
 80065f6:	f000 fd27 	bl	8007048 <SUBGRF_SetBufferBaseAddress>
    SUBGRF_SetTxParams( RFO_LP, 0, RADIO_RAMP_200_US );
 80065fa:	2204      	movs	r2, #4
 80065fc:	4621      	mov	r1, r4
 80065fe:	2001      	movs	r0, #1
 8006600:	f000 fb9a 	bl	8006d38 <SUBGRF_SetTxParams>
    SUBGRF_SetDioIrqParams( IRQ_RADIO_ALL, IRQ_RADIO_ALL, IRQ_RADIO_NONE, IRQ_RADIO_NONE );
 8006604:	4623      	mov	r3, r4
 8006606:	4622      	mov	r2, r4
 8006608:	f64f 71ff 	movw	r1, #65535	; 0xffff
 800660c:	4608      	mov	r0, r1
 800660e:	f000 fada 	bl	8006bc6 <SUBGRF_SetDioIrqParams>
    RadioSleep();
 8006612:	f7ff f941 	bl	8005898 <RadioSleep>
    TimerInit( &TxTimeoutTimer, RadioOnTxTimeoutIrq );
 8006616:	4e10      	ldr	r6, [pc, #64]	; (8006658 <RadioInit+0x88>)
 8006618:	9400      	str	r4, [sp, #0]
 800661a:	4b10      	ldr	r3, [pc, #64]	; (800665c <RadioInit+0x8c>)
 800661c:	4622      	mov	r2, r4
 800661e:	f04f 31ff 	mov.w	r1, #4294967295
 8006622:	4630      	mov	r0, r6
 8006624:	f001 f9de 	bl	80079e4 <UTIL_TIMER_Create>
    TimerInit( &RxTimeoutTimer, RadioOnRxTimeoutIrq );
 8006628:	4d0d      	ldr	r5, [pc, #52]	; (8006660 <RadioInit+0x90>)
 800662a:	9400      	str	r4, [sp, #0]
 800662c:	4b0d      	ldr	r3, [pc, #52]	; (8006664 <RadioInit+0x94>)
 800662e:	4622      	mov	r2, r4
 8006630:	f04f 31ff 	mov.w	r1, #4294967295
 8006634:	4628      	mov	r0, r5
 8006636:	f001 f9d5 	bl	80079e4 <UTIL_TIMER_Create>
    TimerStop( &TxTimeoutTimer );
 800663a:	4630      	mov	r0, r6
 800663c:	f001 fa30 	bl	8007aa0 <UTIL_TIMER_Stop>
    TimerStop( &RxTimeoutTimer );
 8006640:	4628      	mov	r0, r5
 8006642:	f001 fa2d 	bl	8007aa0 <UTIL_TIMER_Stop>
}
 8006646:	b002      	add	sp, #8
 8006648:	bd70      	pop	{r4, r5, r6, pc}
 800664a:	bf00      	nop
 800664c:	200005d4 	.word	0x200005d4
 8006650:	200005f0 	.word	0x200005f0
 8006654:	0800577d 	.word	0x0800577d
 8006658:	2000064c 	.word	0x2000064c
 800665c:	080051ed 	.word	0x080051ed
 8006660:	200005d8 	.word	0x200005d8
 8006664:	08005215 	.word	0x08005215

08006668 <SUBGRF_GetOperatingMode>:
}

RadioOperatingModes_t SUBGRF_GetOperatingMode( void )
{
    return OperatingMode;
}
 8006668:	4b01      	ldr	r3, [pc, #4]	; (8006670 <SUBGRF_GetOperatingMode+0x8>)
 800666a:	7818      	ldrb	r0, [r3, #0]
 800666c:	4770      	bx	lr
 800666e:	bf00      	nop
 8006670:	2000066a 	.word	0x2000066a

08006674 <SUBGRF_GetPacketType>:
}

RadioPacketTypes_t SUBGRF_GetPacketType( void )
{
    return PacketType;
}
 8006674:	4b01      	ldr	r3, [pc, #4]	; (800667c <SUBGRF_GetPacketType+0x8>)
 8006676:	7818      	ldrb	r0, [r3, #0]
 8006678:	4770      	bx	lr
 800667a:	bf00      	nop
 800667c:	2000066b 	.word	0x2000066b

08006680 <SUBGRF_WriteRegister>:
    buf[1] = ( uint8_t )( ( uint16_t )irq & 0x00FF );
    SUBGRF_WriteCommand( RADIO_CLR_IRQSTATUS, buf, 2 );
}

void SUBGRF_WriteRegister( uint16_t addr, uint8_t data )
{
 8006680:	b500      	push	{lr}
 8006682:	b083      	sub	sp, #12
 8006684:	f88d 1007 	strb.w	r1, [sp, #7]
    HAL_SUBGHZ_WriteRegisters( &hsubghz, addr, (uint8_t*)&data, 1 );
 8006688:	2301      	movs	r3, #1
 800668a:	f10d 0207 	add.w	r2, sp, #7
 800668e:	4601      	mov	r1, r0
 8006690:	4802      	ldr	r0, [pc, #8]	; (800669c <SUBGRF_WriteRegister+0x1c>)
 8006692:	f7fd f8c3 	bl	800381c <HAL_SUBGHZ_WriteRegisters>
}
 8006696:	b003      	add	sp, #12
 8006698:	f85d fb04 	ldr.w	pc, [sp], #4
 800669c:	200000ec 	.word	0x200000ec

080066a0 <SUBGRF_ReadRegister>:

uint8_t SUBGRF_ReadRegister( uint16_t addr )
{
 80066a0:	b500      	push	{lr}
 80066a2:	b083      	sub	sp, #12
 80066a4:	4601      	mov	r1, r0
    uint8_t data;
    HAL_SUBGHZ_ReadRegisters( &hsubghz, addr, &data, 1 );
 80066a6:	2301      	movs	r3, #1
 80066a8:	f10d 0207 	add.w	r2, sp, #7
 80066ac:	4803      	ldr	r0, [pc, #12]	; (80066bc <SUBGRF_ReadRegister+0x1c>)
 80066ae:	f7fd f905 	bl	80038bc <HAL_SUBGHZ_ReadRegisters>
    return data;
}
 80066b2:	f89d 0007 	ldrb.w	r0, [sp, #7]
 80066b6:	b003      	add	sp, #12
 80066b8:	f85d fb04 	ldr.w	pc, [sp], #4
 80066bc:	200000ec 	.word	0x200000ec

080066c0 <Radio_SMPS_Set>:
{
    RadioOnDioIrqCb( IRQ_LR_FHSS_HOP );
}

static void Radio_SMPS_Set(uint8_t level)
{
 80066c0:	b510      	push	{r4, lr}
 80066c2:	4604      	mov	r4, r0
  if ( 1U == RBI_IsDCDC() )
 80066c4:	f7fb f850 	bl	8001768 <RBI_IsDCDC>
 80066c8:	2801      	cmp	r0, #1
 80066ca:	d000      	beq.n	80066ce <Radio_SMPS_Set+0xe>
    uint8_t modReg;
    modReg= SUBGRF_ReadRegister(SUBGHZ_SMPSC2R);
    modReg&= (~SMPS_DRV_MASK);
    SUBGRF_WriteRegister(SUBGHZ_SMPSC2R, modReg | level);
  }
}
 80066cc:	bd10      	pop	{r4, pc}
    modReg= SUBGRF_ReadRegister(SUBGHZ_SMPSC2R);
 80066ce:	f640 1023 	movw	r0, #2339	; 0x923
 80066d2:	f7ff ffe5 	bl	80066a0 <SUBGRF_ReadRegister>
    modReg&= (~SMPS_DRV_MASK);
 80066d6:	f000 01f9 	and.w	r1, r0, #249	; 0xf9
    SUBGRF_WriteRegister(SUBGHZ_SMPSC2R, modReg | level);
 80066da:	4321      	orrs	r1, r4
 80066dc:	f640 1023 	movw	r0, #2339	; 0x923
 80066e0:	f7ff ffce 	bl	8006680 <SUBGRF_WriteRegister>
}
 80066e4:	e7f2      	b.n	80066cc <Radio_SMPS_Set+0xc>

080066e6 <SUBGRF_SetWhiteningSeed>:
{
 80066e6:	b510      	push	{r4, lr}
 80066e8:	4604      	mov	r4, r0
    switch( SUBGRF_GetPacketType( ) )
 80066ea:	f7ff ffc3 	bl	8006674 <SUBGRF_GetPacketType>
 80066ee:	b100      	cbz	r0, 80066f2 <SUBGRF_SetWhiteningSeed+0xc>
}
 80066f0:	bd10      	pop	{r4, pc}
            regValue = SUBGRF_ReadRegister( REG_LR_WHITSEEDBASEADDR_MSB ) & 0xFE;
 80066f2:	f44f 60d7 	mov.w	r0, #1720	; 0x6b8
 80066f6:	f7ff ffd3 	bl	80066a0 <SUBGRF_ReadRegister>
 80066fa:	f000 00fe 	and.w	r0, r0, #254	; 0xfe
            regValue = ( ( seed >> 8 ) & 0x01 ) | regValue;
 80066fe:	f3c4 2100 	ubfx	r1, r4, #8, #1
            SUBGRF_WriteRegister( REG_LR_WHITSEEDBASEADDR_MSB, regValue ); // only 1 bit.
 8006702:	4301      	orrs	r1, r0
 8006704:	f44f 60d7 	mov.w	r0, #1720	; 0x6b8
 8006708:	f7ff ffba 	bl	8006680 <SUBGRF_WriteRegister>
            SUBGRF_WriteRegister( REG_LR_WHITSEEDBASEADDR_LSB, (uint8_t)seed );
 800670c:	b2e1      	uxtb	r1, r4
 800670e:	f240 60b9 	movw	r0, #1721	; 0x6b9
 8006712:	f7ff ffb5 	bl	8006680 <SUBGRF_WriteRegister>
}
 8006716:	e7eb      	b.n	80066f0 <SUBGRF_SetWhiteningSeed+0xa>

08006718 <SUBGRF_WriteRegisters>:
{
 8006718:	b510      	push	{r4, lr}
 800671a:	4613      	mov	r3, r2
  __ASM volatile ("MRS %0, primask" : "=r" (result) :: "memory");
 800671c:	f3ef 8410 	mrs	r4, PRIMASK
  __ASM volatile ("cpsid i" : : : "memory");
 8006720:	b672      	cpsid	i
    HAL_SUBGHZ_WriteRegisters( &hsubghz, address, buffer, size );
 8006722:	460a      	mov	r2, r1
 8006724:	4601      	mov	r1, r0
 8006726:	4803      	ldr	r0, [pc, #12]	; (8006734 <SUBGRF_WriteRegisters+0x1c>)
 8006728:	f7fd f878 	bl	800381c <HAL_SUBGHZ_WriteRegisters>
  __ASM volatile ("MSR primask, %0" : : "r" (priMask) : "memory");
 800672c:	f384 8810 	msr	PRIMASK, r4
}
 8006730:	bd10      	pop	{r4, pc}
 8006732:	bf00      	nop
 8006734:	200000ec 	.word	0x200000ec

08006738 <SUBGRF_SetSyncWord>:
{
 8006738:	b508      	push	{r3, lr}
 800673a:	4601      	mov	r1, r0
    SUBGRF_WriteRegisters( REG_LR_SYNCWORDBASEADDRESS, syncWord, 8 );
 800673c:	2208      	movs	r2, #8
 800673e:	f44f 60d8 	mov.w	r0, #1728	; 0x6c0
 8006742:	f7ff ffe9 	bl	8006718 <SUBGRF_WriteRegisters>
}
 8006746:	2000      	movs	r0, #0
 8006748:	bd08      	pop	{r3, pc}

0800674a <SUBGRF_SetCrcSeed>:
{
 800674a:	b500      	push	{lr}
 800674c:	b083      	sub	sp, #12
    buf[0] = ( uint8_t )( ( seed >> 8 ) & 0xFF );
 800674e:	0a03      	lsrs	r3, r0, #8
 8006750:	f88d 3004 	strb.w	r3, [sp, #4]
    buf[1] = ( uint8_t )( seed & 0xFF );
 8006754:	f88d 0005 	strb.w	r0, [sp, #5]
    switch( SUBGRF_GetPacketType( ) )
 8006758:	f7ff ff8c 	bl	8006674 <SUBGRF_GetPacketType>
 800675c:	b110      	cbz	r0, 8006764 <SUBGRF_SetCrcSeed+0x1a>
}
 800675e:	b003      	add	sp, #12
 8006760:	f85d fb04 	ldr.w	pc, [sp], #4
            SUBGRF_WriteRegisters( REG_LR_CRCSEEDBASEADDR, buf, 2 );
 8006764:	2202      	movs	r2, #2
 8006766:	a901      	add	r1, sp, #4
 8006768:	f240 60bc 	movw	r0, #1724	; 0x6bc
 800676c:	f7ff ffd4 	bl	8006718 <SUBGRF_WriteRegisters>
}
 8006770:	e7f5      	b.n	800675e <SUBGRF_SetCrcSeed+0x14>

08006772 <SUBGRF_SetCrcPolynomial>:
{
 8006772:	b500      	push	{lr}
 8006774:	b083      	sub	sp, #12
    buf[0] = ( uint8_t )( ( polynomial >> 8 ) & 0xFF );
 8006776:	0a03      	lsrs	r3, r0, #8
 8006778:	f88d 3004 	strb.w	r3, [sp, #4]
    buf[1] = ( uint8_t )( polynomial & 0xFF );
 800677c:	f88d 0005 	strb.w	r0, [sp, #5]
    switch( SUBGRF_GetPacketType( ) )
 8006780:	f7ff ff78 	bl	8006674 <SUBGRF_GetPacketType>
 8006784:	b110      	cbz	r0, 800678c <SUBGRF_SetCrcPolynomial+0x1a>
}
 8006786:	b003      	add	sp, #12
 8006788:	f85d fb04 	ldr.w	pc, [sp], #4
            SUBGRF_WriteRegisters( REG_LR_CRCPOLYBASEADDR, buf, 2 );
 800678c:	2202      	movs	r2, #2
 800678e:	a901      	add	r1, sp, #4
 8006790:	f240 60be 	movw	r0, #1726	; 0x6be
 8006794:	f7ff ffc0 	bl	8006718 <SUBGRF_WriteRegisters>
}
 8006798:	e7f5      	b.n	8006786 <SUBGRF_SetCrcPolynomial+0x14>
	...

0800679c <SUBGRF_ReadRegisters>:
{
 800679c:	b510      	push	{r4, lr}
 800679e:	4613      	mov	r3, r2
  __ASM volatile ("MRS %0, primask" : "=r" (result) :: "memory");
 80067a0:	f3ef 8410 	mrs	r4, PRIMASK
  __ASM volatile ("cpsid i" : : : "memory");
 80067a4:	b672      	cpsid	i
    HAL_SUBGHZ_ReadRegisters( &hsubghz, address, buffer, size );
 80067a6:	460a      	mov	r2, r1
 80067a8:	4601      	mov	r1, r0
 80067aa:	4803      	ldr	r0, [pc, #12]	; (80067b8 <SUBGRF_ReadRegisters+0x1c>)
 80067ac:	f7fd f886 	bl	80038bc <HAL_SUBGHZ_ReadRegisters>
  __ASM volatile ("MSR primask, %0" : : "r" (priMask) : "memory");
 80067b0:	f384 8810 	msr	PRIMASK, r4
}
 80067b4:	bd10      	pop	{r4, pc}
 80067b6:	bf00      	nop
 80067b8:	200000ec 	.word	0x200000ec

080067bc <SUBGRF_WriteBuffer>:
{
 80067bc:	b510      	push	{r4, lr}
 80067be:	4613      	mov	r3, r2
  __ASM volatile ("MRS %0, primask" : "=r" (result) :: "memory");
 80067c0:	f3ef 8410 	mrs	r4, PRIMASK
  __ASM volatile ("cpsid i" : : : "memory");
 80067c4:	b672      	cpsid	i
    HAL_SUBGHZ_WriteBuffer( &hsubghz, offset, buffer, size );
 80067c6:	460a      	mov	r2, r1
 80067c8:	4601      	mov	r1, r0
 80067ca:	4803      	ldr	r0, [pc, #12]	; (80067d8 <SUBGRF_WriteBuffer+0x1c>)
 80067cc:	f7fd f9d4 	bl	8003b78 <HAL_SUBGHZ_WriteBuffer>
  __ASM volatile ("MSR primask, %0" : : "r" (priMask) : "memory");
 80067d0:	f384 8810 	msr	PRIMASK, r4
}
 80067d4:	bd10      	pop	{r4, pc}
 80067d6:	bf00      	nop
 80067d8:	200000ec 	.word	0x200000ec

080067dc <SUBGRF_SetPayload>:
{
 80067dc:	b508      	push	{r3, lr}
 80067de:	460a      	mov	r2, r1
    SUBGRF_WriteBuffer( 0x00, payload, size );
 80067e0:	4601      	mov	r1, r0
 80067e2:	2000      	movs	r0, #0
 80067e4:	f7ff ffea 	bl	80067bc <SUBGRF_WriteBuffer>
}
 80067e8:	bd08      	pop	{r3, pc}
	...

080067ec <SUBGRF_ReadBuffer>:
{
 80067ec:	b510      	push	{r4, lr}
 80067ee:	4613      	mov	r3, r2
  __ASM volatile ("MRS %0, primask" : "=r" (result) :: "memory");
 80067f0:	f3ef 8410 	mrs	r4, PRIMASK
  __ASM volatile ("cpsid i" : : : "memory");
 80067f4:	b672      	cpsid	i
    HAL_SUBGHZ_ReadBuffer( &hsubghz, offset, buffer, size );
 80067f6:	460a      	mov	r2, r1
 80067f8:	4601      	mov	r1, r0
 80067fa:	4803      	ldr	r0, [pc, #12]	; (8006808 <SUBGRF_ReadBuffer+0x1c>)
 80067fc:	f7fd fa06 	bl	8003c0c <HAL_SUBGHZ_ReadBuffer>
  __ASM volatile ("MSR primask, %0" : : "r" (priMask) : "memory");
 8006800:	f384 8810 	msr	PRIMASK, r4
}
 8006804:	bd10      	pop	{r4, pc}
 8006806:	bf00      	nop
 8006808:	200000ec 	.word	0x200000ec

0800680c <SUBGRF_WriteCommand>:
{
 800680c:	b510      	push	{r4, lr}
 800680e:	4613      	mov	r3, r2
  __ASM volatile ("MRS %0, primask" : "=r" (result) :: "memory");
 8006810:	f3ef 8410 	mrs	r4, PRIMASK
  __ASM volatile ("cpsid i" : : : "memory");
 8006814:	b672      	cpsid	i
    HAL_SUBGHZ_ExecSetCmd( &hsubghz, Command, pBuffer, Size );
 8006816:	460a      	mov	r2, r1
 8006818:	4601      	mov	r1, r0
 800681a:	4803      	ldr	r0, [pc, #12]	; (8006828 <SUBGRF_WriteCommand+0x1c>)
 800681c:	f7fd f8a2 	bl	8003964 <HAL_SUBGHZ_ExecSetCmd>
  __ASM volatile ("MSR primask, %0" : : "r" (priMask) : "memory");
 8006820:	f384 8810 	msr	PRIMASK, r4
}
 8006824:	bd10      	pop	{r4, pc}
 8006826:	bf00      	nop
 8006828:	200000ec 	.word	0x200000ec

0800682c <SUBGRF_SetSleep>:
{
 800682c:	b510      	push	{r4, lr}
 800682e:	b082      	sub	sp, #8
 8006830:	4604      	mov	r4, r0
    RBI_ConfigRFSwitch(RBI_SWITCH_OFF);
 8006832:	2000      	movs	r0, #0
 8006834:	f7fa ff8c 	bl	8001750 <RBI_ConfigRFSwitch>
    Radio_SMPS_Set(SMPS_DRIVE_SETTING_DEFAULT);
 8006838:	2002      	movs	r0, #2
 800683a:	f7ff ff41 	bl	80066c0 <Radio_SMPS_Set>
    uint8_t value = ( ( ( uint8_t )sleepConfig.Fields.WarmStart << 2 ) |
 800683e:	f004 0304 	and.w	r3, r4, #4
                      ( ( uint8_t )sleepConfig.Fields.Reset << 1 ) |
 8006842:	f004 0202 	and.w	r2, r4, #2
    uint8_t value = ( ( ( uint8_t )sleepConfig.Fields.WarmStart << 2 ) |
 8006846:	4313      	orrs	r3, r2
                      ( ( uint8_t )sleepConfig.Fields.WakeUpRTC ) );
 8006848:	f004 0401 	and.w	r4, r4, #1
                      ( ( uint8_t )sleepConfig.Fields.Reset << 1 ) |
 800684c:	4323      	orrs	r3, r4
    uint8_t value = ( ( ( uint8_t )sleepConfig.Fields.WarmStart << 2 ) |
 800684e:	f88d 3007 	strb.w	r3, [sp, #7]
    SUBGRF_WriteCommand( RADIO_SET_SLEEP, &value, 1 );
 8006852:	2201      	movs	r2, #1
 8006854:	f10d 0107 	add.w	r1, sp, #7
 8006858:	2084      	movs	r0, #132	; 0x84
 800685a:	f7ff ffd7 	bl	800680c <SUBGRF_WriteCommand>
    OperatingMode = MODE_SLEEP;
 800685e:	4b02      	ldr	r3, [pc, #8]	; (8006868 <SUBGRF_SetSleep+0x3c>)
 8006860:	2200      	movs	r2, #0
 8006862:	701a      	strb	r2, [r3, #0]
}
 8006864:	b002      	add	sp, #8
 8006866:	bd10      	pop	{r4, pc}
 8006868:	2000066a 	.word	0x2000066a

0800686c <SUBGRF_SetStandby>:
{
 800686c:	b500      	push	{lr}
 800686e:	b083      	sub	sp, #12
 8006870:	f88d 0007 	strb.w	r0, [sp, #7]
    SUBGRF_WriteCommand( RADIO_SET_STANDBY, ( uint8_t* )&standbyConfig, 1 );
 8006874:	2201      	movs	r2, #1
 8006876:	f10d 0107 	add.w	r1, sp, #7
 800687a:	2080      	movs	r0, #128	; 0x80
 800687c:	f7ff ffc6 	bl	800680c <SUBGRF_WriteCommand>
    if( standbyConfig == STDBY_RC )
 8006880:	f89d 3007 	ldrb.w	r3, [sp, #7]
 8006884:	b92b      	cbnz	r3, 8006892 <SUBGRF_SetStandby+0x26>
        OperatingMode = MODE_STDBY_RC;
 8006886:	4b05      	ldr	r3, [pc, #20]	; (800689c <SUBGRF_SetStandby+0x30>)
 8006888:	2201      	movs	r2, #1
 800688a:	701a      	strb	r2, [r3, #0]
}
 800688c:	b003      	add	sp, #12
 800688e:	f85d fb04 	ldr.w	pc, [sp], #4
        OperatingMode = MODE_STDBY_XOSC;
 8006892:	4b02      	ldr	r3, [pc, #8]	; (800689c <SUBGRF_SetStandby+0x30>)
 8006894:	2202      	movs	r2, #2
 8006896:	701a      	strb	r2, [r3, #0]
}
 8006898:	e7f8      	b.n	800688c <SUBGRF_SetStandby+0x20>
 800689a:	bf00      	nop
 800689c:	2000066a 	.word	0x2000066a

080068a0 <SUBGRF_SetTx>:
{
 80068a0:	b500      	push	{lr}
 80068a2:	b083      	sub	sp, #12
    OperatingMode = MODE_TX;
 80068a4:	4b0a      	ldr	r3, [pc, #40]	; (80068d0 <SUBGRF_SetTx+0x30>)
 80068a6:	2204      	movs	r2, #4
 80068a8:	701a      	strb	r2, [r3, #0]
    buf[0] = ( uint8_t )( ( timeout >> 16 ) & 0xFF );
 80068aa:	f3c0 4307 	ubfx	r3, r0, #16, #8
 80068ae:	f88d 3004 	strb.w	r3, [sp, #4]
    buf[1] = ( uint8_t )( ( timeout >> 8 ) & 0xFF );
 80068b2:	f3c0 2307 	ubfx	r3, r0, #8, #8
 80068b6:	f88d 3005 	strb.w	r3, [sp, #5]
    buf[2] = ( uint8_t )( timeout & 0xFF );
 80068ba:	f88d 0006 	strb.w	r0, [sp, #6]
    SUBGRF_WriteCommand( RADIO_SET_TX, buf, 3 );
 80068be:	2203      	movs	r2, #3
 80068c0:	a901      	add	r1, sp, #4
 80068c2:	2083      	movs	r0, #131	; 0x83
 80068c4:	f7ff ffa2 	bl	800680c <SUBGRF_WriteCommand>
}
 80068c8:	b003      	add	sp, #12
 80068ca:	f85d fb04 	ldr.w	pc, [sp], #4
 80068ce:	bf00      	nop
 80068d0:	2000066a 	.word	0x2000066a

080068d4 <SUBGRF_SendPayload>:
{
 80068d4:	b510      	push	{r4, lr}
 80068d6:	4614      	mov	r4, r2
    SUBGRF_SetPayload( payload, size );
 80068d8:	f7ff ff80 	bl	80067dc <SUBGRF_SetPayload>
    SUBGRF_SetTx( timeout );
 80068dc:	4620      	mov	r0, r4
 80068de:	f7ff ffdf 	bl	80068a0 <SUBGRF_SetTx>
}
 80068e2:	bd10      	pop	{r4, pc}

080068e4 <SUBGRF_SetRx>:
{
 80068e4:	b500      	push	{lr}
 80068e6:	b083      	sub	sp, #12
    OperatingMode = MODE_RX;
 80068e8:	4b0a      	ldr	r3, [pc, #40]	; (8006914 <SUBGRF_SetRx+0x30>)
 80068ea:	2205      	movs	r2, #5
 80068ec:	701a      	strb	r2, [r3, #0]
    buf[0] = ( uint8_t )( ( timeout >> 16 ) & 0xFF );
 80068ee:	f3c0 4307 	ubfx	r3, r0, #16, #8
 80068f2:	f88d 3004 	strb.w	r3, [sp, #4]
    buf[1] = ( uint8_t )( ( timeout >> 8 ) & 0xFF );
 80068f6:	f3c0 2307 	ubfx	r3, r0, #8, #8
 80068fa:	f88d 3005 	strb.w	r3, [sp, #5]
    buf[2] = ( uint8_t )( timeout & 0xFF );
 80068fe:	f88d 0006 	strb.w	r0, [sp, #6]
    SUBGRF_WriteCommand( RADIO_SET_RX, buf, 3 );
 8006902:	2203      	movs	r2, #3
 8006904:	a901      	add	r1, sp, #4
 8006906:	2082      	movs	r0, #130	; 0x82
 8006908:	f7ff ff80 	bl	800680c <SUBGRF_WriteCommand>
}
 800690c:	b003      	add	sp, #12
 800690e:	f85d fb04 	ldr.w	pc, [sp], #4
 8006912:	bf00      	nop
 8006914:	2000066a 	.word	0x2000066a

08006918 <SUBGRF_GetRandom>:
{
 8006918:	b570      	push	{r4, r5, r6, lr}
 800691a:	b082      	sub	sp, #8
    uint32_t number = 0;
 800691c:	2600      	movs	r6, #0
 800691e:	9601      	str	r6, [sp, #4]
    regAnaLna = SUBGRF_ReadRegister( REG_ANA_LNA );
 8006920:	f640 00e2 	movw	r0, #2274	; 0x8e2
 8006924:	f7ff febc 	bl	80066a0 <SUBGRF_ReadRegister>
 8006928:	4605      	mov	r5, r0
    SUBGRF_WriteRegister( REG_ANA_LNA, regAnaLna & ~( 1 << 0 ) );
 800692a:	f000 01fe 	and.w	r1, r0, #254	; 0xfe
 800692e:	f640 00e2 	movw	r0, #2274	; 0x8e2
 8006932:	f7ff fea5 	bl	8006680 <SUBGRF_WriteRegister>
    regAnaMixer = SUBGRF_ReadRegister( REG_ANA_MIXER );
 8006936:	f640 00e5 	movw	r0, #2277	; 0x8e5
 800693a:	f7ff feb1 	bl	80066a0 <SUBGRF_ReadRegister>
 800693e:	4604      	mov	r4, r0
    SUBGRF_WriteRegister( REG_ANA_MIXER, regAnaMixer & ~( 1 << 7 ) );
 8006940:	f000 017f 	and.w	r1, r0, #127	; 0x7f
 8006944:	f640 00e5 	movw	r0, #2277	; 0x8e5
 8006948:	f7ff fe9a 	bl	8006680 <SUBGRF_WriteRegister>
    SUBGRF_SetRx( 0xFFFFFF ); // Rx Continuous
 800694c:	f06f 407f 	mvn.w	r0, #4278190080	; 0xff000000
 8006950:	f7ff ffc8 	bl	80068e4 <SUBGRF_SetRx>
    SUBGRF_ReadRegisters( RANDOM_NUMBER_GENERATORBASEADDR, ( uint8_t* )&number, 4 );
 8006954:	2204      	movs	r2, #4
 8006956:	eb0d 0102 	add.w	r1, sp, r2
 800695a:	f640 0019 	movw	r0, #2073	; 0x819
 800695e:	f7ff ff1d 	bl	800679c <SUBGRF_ReadRegisters>
    SUBGRF_SetStandby( STDBY_RC );
 8006962:	4630      	mov	r0, r6
 8006964:	f7ff ff82 	bl	800686c <SUBGRF_SetStandby>
    SUBGRF_WriteRegister( REG_ANA_LNA, regAnaLna );
 8006968:	4629      	mov	r1, r5
 800696a:	f640 00e2 	movw	r0, #2274	; 0x8e2
 800696e:	f7ff fe87 	bl	8006680 <SUBGRF_WriteRegister>
    SUBGRF_WriteRegister( REG_ANA_MIXER, regAnaMixer );
 8006972:	4621      	mov	r1, r4
 8006974:	f640 00e5 	movw	r0, #2277	; 0x8e5
 8006978:	f7ff fe82 	bl	8006680 <SUBGRF_WriteRegister>
}
 800697c:	9801      	ldr	r0, [sp, #4]
 800697e:	b002      	add	sp, #8
 8006980:	bd70      	pop	{r4, r5, r6, pc}
	...

08006984 <SUBGRF_SetRxBoosted>:
{
 8006984:	b510      	push	{r4, lr}
 8006986:	b082      	sub	sp, #8
 8006988:	4604      	mov	r4, r0
    OperatingMode = MODE_RX;
 800698a:	4b0c      	ldr	r3, [pc, #48]	; (80069bc <SUBGRF_SetRxBoosted+0x38>)
 800698c:	2205      	movs	r2, #5
 800698e:	701a      	strb	r2, [r3, #0]
    SUBGRF_WriteRegister( REG_RX_GAIN, 0x97 ); // max LNA gain, increase current by ~2mA for around ~3dB in sensitivity
 8006990:	2197      	movs	r1, #151	; 0x97
 8006992:	f640 00ac 	movw	r0, #2220	; 0x8ac
 8006996:	f7ff fe73 	bl	8006680 <SUBGRF_WriteRegister>
    buf[0] = ( uint8_t )( ( timeout >> 16 ) & 0xFF );
 800699a:	f3c4 4307 	ubfx	r3, r4, #16, #8
 800699e:	f88d 3004 	strb.w	r3, [sp, #4]
    buf[1] = ( uint8_t )( ( timeout >> 8 ) & 0xFF );
 80069a2:	f3c4 2307 	ubfx	r3, r4, #8, #8
 80069a6:	f88d 3005 	strb.w	r3, [sp, #5]
    buf[2] = ( uint8_t )( timeout & 0xFF );
 80069aa:	f88d 4006 	strb.w	r4, [sp, #6]
    SUBGRF_WriteCommand( RADIO_SET_RX, buf, 3 );
 80069ae:	2203      	movs	r2, #3
 80069b0:	a901      	add	r1, sp, #4
 80069b2:	2082      	movs	r0, #130	; 0x82
 80069b4:	f7ff ff2a 	bl	800680c <SUBGRF_WriteCommand>
}
 80069b8:	b002      	add	sp, #8
 80069ba:	bd10      	pop	{r4, pc}
 80069bc:	2000066a 	.word	0x2000066a

080069c0 <SUBGRF_SetRxDutyCycle>:
{
 80069c0:	b500      	push	{lr}
 80069c2:	b083      	sub	sp, #12
    buf[0] = ( uint8_t )( ( rxTime >> 16 ) & 0xFF );
 80069c4:	f3c0 4307 	ubfx	r3, r0, #16, #8
 80069c8:	f88d 3000 	strb.w	r3, [sp]
    buf[1] = ( uint8_t )( ( rxTime >> 8 ) & 0xFF );
 80069cc:	f3c0 2307 	ubfx	r3, r0, #8, #8
 80069d0:	f88d 3001 	strb.w	r3, [sp, #1]
    buf[2] = ( uint8_t )( rxTime & 0xFF );
 80069d4:	f88d 0002 	strb.w	r0, [sp, #2]
    buf[3] = ( uint8_t )( ( sleepTime >> 16 ) & 0xFF );
 80069d8:	f3c1 4307 	ubfx	r3, r1, #16, #8
 80069dc:	f88d 3003 	strb.w	r3, [sp, #3]
    buf[4] = ( uint8_t )( ( sleepTime >> 8 ) & 0xFF );
 80069e0:	f3c1 2307 	ubfx	r3, r1, #8, #8
 80069e4:	f88d 3004 	strb.w	r3, [sp, #4]
    buf[5] = ( uint8_t )( sleepTime & 0xFF );
 80069e8:	f88d 1005 	strb.w	r1, [sp, #5]
    SUBGRF_WriteCommand( RADIO_SET_RXDUTYCYCLE, buf, 6 );
 80069ec:	2206      	movs	r2, #6
 80069ee:	4669      	mov	r1, sp
 80069f0:	2094      	movs	r0, #148	; 0x94
 80069f2:	f7ff ff0b 	bl	800680c <SUBGRF_WriteCommand>
    OperatingMode = MODE_RX_DC;
 80069f6:	4b03      	ldr	r3, [pc, #12]	; (8006a04 <SUBGRF_SetRxDutyCycle+0x44>)
 80069f8:	2206      	movs	r2, #6
 80069fa:	701a      	strb	r2, [r3, #0]
}
 80069fc:	b003      	add	sp, #12
 80069fe:	f85d fb04 	ldr.w	pc, [sp], #4
 8006a02:	bf00      	nop
 8006a04:	2000066a 	.word	0x2000066a

08006a08 <SUBGRF_SetCad>:
{
 8006a08:	b508      	push	{r3, lr}
    SUBGRF_WriteCommand( RADIO_SET_CAD, 0, 0 );
 8006a0a:	2200      	movs	r2, #0
 8006a0c:	4611      	mov	r1, r2
 8006a0e:	20c5      	movs	r0, #197	; 0xc5
 8006a10:	f7ff fefc 	bl	800680c <SUBGRF_WriteCommand>
    OperatingMode = MODE_CAD;
 8006a14:	4b01      	ldr	r3, [pc, #4]	; (8006a1c <SUBGRF_SetCad+0x14>)
 8006a16:	2207      	movs	r2, #7
 8006a18:	701a      	strb	r2, [r3, #0]
}
 8006a1a:	bd08      	pop	{r3, pc}
 8006a1c:	2000066a 	.word	0x2000066a

08006a20 <SUBGRF_SetTxContinuousWave>:
{
 8006a20:	b508      	push	{r3, lr}
    SUBGRF_WriteCommand( RADIO_SET_TXCONTINUOUSWAVE, 0, 0 );
 8006a22:	2200      	movs	r2, #0
 8006a24:	4611      	mov	r1, r2
 8006a26:	20d1      	movs	r0, #209	; 0xd1
 8006a28:	f7ff fef0 	bl	800680c <SUBGRF_WriteCommand>
}
 8006a2c:	bd08      	pop	{r3, pc}

08006a2e <SUBGRF_SetTxInfinitePreamble>:
{
 8006a2e:	b508      	push	{r3, lr}
    SUBGRF_WriteCommand( RADIO_SET_TXCONTINUOUSPREAMBLE, 0, 0 );
 8006a30:	2200      	movs	r2, #0
 8006a32:	4611      	mov	r1, r2
 8006a34:	20d2      	movs	r0, #210	; 0xd2
 8006a36:	f7ff fee9 	bl	800680c <SUBGRF_WriteCommand>
}
 8006a3a:	bd08      	pop	{r3, pc}

08006a3c <SUBGRF_SetStopRxTimerOnPreambleDetect>:
{
 8006a3c:	b500      	push	{lr}
 8006a3e:	b083      	sub	sp, #12
 8006a40:	f88d 0007 	strb.w	r0, [sp, #7]
    SUBGRF_WriteCommand( RADIO_SET_STOPRXTIMERONPREAMBLE, ( uint8_t* )&enable, 1 );
 8006a44:	2201      	movs	r2, #1
 8006a46:	f10d 0107 	add.w	r1, sp, #7
 8006a4a:	209f      	movs	r0, #159	; 0x9f
 8006a4c:	f7ff fede 	bl	800680c <SUBGRF_WriteCommand>
}
 8006a50:	b003      	add	sp, #12
 8006a52:	f85d fb04 	ldr.w	pc, [sp], #4

08006a56 <SUBGRF_SetLoRaSymbNumTimeout>:
{
 8006a56:	b500      	push	{lr}
 8006a58:	b083      	sub	sp, #12
 8006a5a:	f88d 0007 	strb.w	r0, [sp, #7]
    SUBGRF_WriteCommand( RADIO_SET_LORASYMBTIMEOUT, &symbNum, 1 );
 8006a5e:	2201      	movs	r2, #1
 8006a60:	f10d 0107 	add.w	r1, sp, #7
 8006a64:	20a0      	movs	r0, #160	; 0xa0
 8006a66:	f7ff fed1 	bl	800680c <SUBGRF_WriteCommand>
    if( symbNum >= 64 )
 8006a6a:	f89d 3007 	ldrb.w	r3, [sp, #7]
 8006a6e:	2b3f      	cmp	r3, #63	; 0x3f
 8006a70:	d90f      	bls.n	8006a92 <SUBGRF_SetLoRaSymbNumTimeout+0x3c>
        uint8_t mant = symbNum >> 1;
 8006a72:	085b      	lsrs	r3, r3, #1
        uint8_t exp  = 0;
 8006a74:	2200      	movs	r2, #0
        while( mant > 31 )
 8006a76:	e002      	b.n	8006a7e <SUBGRF_SetLoRaSymbNumTimeout+0x28>
            mant >>= 2;
 8006a78:	089b      	lsrs	r3, r3, #2
            exp++;
 8006a7a:	3201      	adds	r2, #1
 8006a7c:	b2d2      	uxtb	r2, r2
        while( mant > 31 )
 8006a7e:	2b1f      	cmp	r3, #31
 8006a80:	d8fa      	bhi.n	8006a78 <SUBGRF_SetLoRaSymbNumTimeout+0x22>
        reg = exp + ( mant << 3 );
 8006a82:	00d9      	lsls	r1, r3, #3
 8006a84:	b2c9      	uxtb	r1, r1
 8006a86:	4411      	add	r1, r2
        SUBGRF_WriteRegister( REG_LR_SYNCH_TIMEOUT, reg );
 8006a88:	b2c9      	uxtb	r1, r1
 8006a8a:	f240 7006 	movw	r0, #1798	; 0x706
 8006a8e:	f7ff fdf7 	bl	8006680 <SUBGRF_WriteRegister>
}
 8006a92:	b003      	add	sp, #12
 8006a94:	f85d fb04 	ldr.w	pc, [sp], #4

08006a98 <SUBGRF_SetRegulatorMode>:
{
 8006a98:	b500      	push	{lr}
 8006a9a:	b083      	sub	sp, #12
    if ( ( 1UL == RBI_IsDCDC() ) && ( 1UL == DCDC_ENABLE ) )
 8006a9c:	f7fa fe64 	bl	8001768 <RBI_IsDCDC>
 8006aa0:	2801      	cmp	r0, #1
 8006aa2:	d00b      	beq.n	8006abc <SUBGRF_SetRegulatorMode+0x24>
        mode = USE_LDO ;
 8006aa4:	2300      	movs	r3, #0
 8006aa6:	f88d 3007 	strb.w	r3, [sp, #7]
    SUBGRF_WriteCommand( RADIO_SET_REGULATORMODE, ( uint8_t* )&mode, 1 );
 8006aaa:	2201      	movs	r2, #1
 8006aac:	f10d 0107 	add.w	r1, sp, #7
 8006ab0:	2096      	movs	r0, #150	; 0x96
 8006ab2:	f7ff feab 	bl	800680c <SUBGRF_WriteCommand>
}
 8006ab6:	b003      	add	sp, #12
 8006ab8:	f85d fb04 	ldr.w	pc, [sp], #4
        mode = USE_DCDC ;
 8006abc:	2301      	movs	r3, #1
 8006abe:	f88d 3007 	strb.w	r3, [sp, #7]
 8006ac2:	e7f2      	b.n	8006aaa <SUBGRF_SetRegulatorMode+0x12>

08006ac4 <SUBGRF_Calibrate>:
{
 8006ac4:	b500      	push	{lr}
 8006ac6:	b083      	sub	sp, #12
    uint8_t value = ( ( ( uint8_t )calibParam.Fields.ImgEnable << 6 ) |
 8006ac8:	f000 0340 	and.w	r3, r0, #64	; 0x40
                      ( ( uint8_t )calibParam.Fields.ADCBulkPEnable << 5 ) |
 8006acc:	f000 0220 	and.w	r2, r0, #32
    uint8_t value = ( ( ( uint8_t )calibParam.Fields.ImgEnable << 6 ) |
 8006ad0:	4313      	orrs	r3, r2
                      ( ( uint8_t )calibParam.Fields.ADCBulkNEnable << 4 ) |
 8006ad2:	f000 0210 	and.w	r2, r0, #16
                      ( ( uint8_t )calibParam.Fields.ADCBulkPEnable << 5 ) |
 8006ad6:	4313      	orrs	r3, r2
                      ( ( uint8_t )calibParam.Fields.ADCPulseEnable << 3 ) |
 8006ad8:	f000 0208 	and.w	r2, r0, #8
                      ( ( uint8_t )calibParam.Fields.ADCBulkNEnable << 4 ) |
 8006adc:	4313      	orrs	r3, r2
                      ( ( uint8_t )calibParam.Fields.PLLEnable << 2 ) |
 8006ade:	f000 0204 	and.w	r2, r0, #4
                      ( ( uint8_t )calibParam.Fields.ADCPulseEnable << 3 ) |
 8006ae2:	4313      	orrs	r3, r2
                      ( ( uint8_t )calibParam.Fields.RC13MEnable << 1 ) |
 8006ae4:	f000 0202 	and.w	r2, r0, #2
                      ( ( uint8_t )calibParam.Fields.PLLEnable << 2 ) |
 8006ae8:	4313      	orrs	r3, r2
                      ( ( uint8_t )calibParam.Fields.RC64KEnable ) );
 8006aea:	f000 0001 	and.w	r0, r0, #1
                      ( ( uint8_t )calibParam.Fields.RC13MEnable << 1 ) |
 8006aee:	4303      	orrs	r3, r0
    uint8_t value = ( ( ( uint8_t )calibParam.Fields.ImgEnable << 6 ) |
 8006af0:	f88d 3007 	strb.w	r3, [sp, #7]
    SUBGRF_WriteCommand( RADIO_CALIBRATE, &value, 1 );
 8006af4:	2201      	movs	r2, #1
 8006af6:	f10d 0107 	add.w	r1, sp, #7
 8006afa:	2089      	movs	r0, #137	; 0x89
 8006afc:	f7ff fe86 	bl	800680c <SUBGRF_WriteCommand>
}
 8006b00:	b003      	add	sp, #12
 8006b02:	f85d fb04 	ldr.w	pc, [sp], #4
	...

08006b08 <SUBGRF_CalibrateImage>:
{
 8006b08:	b500      	push	{lr}
 8006b0a:	b083      	sub	sp, #12
    if( freq > 900000000 )
 8006b0c:	4b1f      	ldr	r3, [pc, #124]	; (8006b8c <SUBGRF_CalibrateImage+0x84>)
 8006b0e:	4298      	cmp	r0, r3
 8006b10:	d90d      	bls.n	8006b2e <SUBGRF_CalibrateImage+0x26>
        calFreq[0] = 0xE1;
 8006b12:	23e1      	movs	r3, #225	; 0xe1
 8006b14:	f88d 3004 	strb.w	r3, [sp, #4]
        calFreq[1] = 0xE9;
 8006b18:	23e9      	movs	r3, #233	; 0xe9
 8006b1a:	f88d 3005 	strb.w	r3, [sp, #5]
    SUBGRF_WriteCommand( RADIO_CALIBRATEIMAGE, calFreq, 2 );
 8006b1e:	2202      	movs	r2, #2
 8006b20:	a901      	add	r1, sp, #4
 8006b22:	2098      	movs	r0, #152	; 0x98
 8006b24:	f7ff fe72 	bl	800680c <SUBGRF_WriteCommand>
}
 8006b28:	b003      	add	sp, #12
 8006b2a:	f85d fb04 	ldr.w	pc, [sp], #4
    else if( freq > 850000000 )
 8006b2e:	4b18      	ldr	r3, [pc, #96]	; (8006b90 <SUBGRF_CalibrateImage+0x88>)
 8006b30:	4298      	cmp	r0, r3
 8006b32:	d906      	bls.n	8006b42 <SUBGRF_CalibrateImage+0x3a>
        calFreq[0] = 0xD7;
 8006b34:	23d7      	movs	r3, #215	; 0xd7
 8006b36:	f88d 3004 	strb.w	r3, [sp, #4]
        calFreq[1] = 0xDB;
 8006b3a:	23db      	movs	r3, #219	; 0xdb
 8006b3c:	f88d 3005 	strb.w	r3, [sp, #5]
 8006b40:	e7ed      	b.n	8006b1e <SUBGRF_CalibrateImage+0x16>
    else if( freq > 770000000 )
 8006b42:	4b14      	ldr	r3, [pc, #80]	; (8006b94 <SUBGRF_CalibrateImage+0x8c>)
 8006b44:	4298      	cmp	r0, r3
 8006b46:	d906      	bls.n	8006b56 <SUBGRF_CalibrateImage+0x4e>
        calFreq[0] = 0xC1;
 8006b48:	23c1      	movs	r3, #193	; 0xc1
 8006b4a:	f88d 3004 	strb.w	r3, [sp, #4]
        calFreq[1] = 0xC5;
 8006b4e:	23c5      	movs	r3, #197	; 0xc5
 8006b50:	f88d 3005 	strb.w	r3, [sp, #5]
 8006b54:	e7e3      	b.n	8006b1e <SUBGRF_CalibrateImage+0x16>
    else if( freq > 460000000 )
 8006b56:	4b10      	ldr	r3, [pc, #64]	; (8006b98 <SUBGRF_CalibrateImage+0x90>)
 8006b58:	4298      	cmp	r0, r3
 8006b5a:	d906      	bls.n	8006b6a <SUBGRF_CalibrateImage+0x62>
        calFreq[0] = 0x75;
 8006b5c:	2375      	movs	r3, #117	; 0x75
 8006b5e:	f88d 3004 	strb.w	r3, [sp, #4]
        calFreq[1] = 0x81;
 8006b62:	2381      	movs	r3, #129	; 0x81
 8006b64:	f88d 3005 	strb.w	r3, [sp, #5]
 8006b68:	e7d9      	b.n	8006b1e <SUBGRF_CalibrateImage+0x16>
    else if( freq > 425000000 )
 8006b6a:	4b0c      	ldr	r3, [pc, #48]	; (8006b9c <SUBGRF_CalibrateImage+0x94>)
 8006b6c:	4298      	cmp	r0, r3
 8006b6e:	d906      	bls.n	8006b7e <SUBGRF_CalibrateImage+0x76>
        calFreq[0] = 0x6B;
 8006b70:	236b      	movs	r3, #107	; 0x6b
 8006b72:	f88d 3004 	strb.w	r3, [sp, #4]
        calFreq[1] = 0x6F;
 8006b76:	236f      	movs	r3, #111	; 0x6f
 8006b78:	f88d 3005 	strb.w	r3, [sp, #5]
 8006b7c:	e7cf      	b.n	8006b1e <SUBGRF_CalibrateImage+0x16>
        calFreq[0] = 0x29;
 8006b7e:	2329      	movs	r3, #41	; 0x29
 8006b80:	f88d 3004 	strb.w	r3, [sp, #4]
        calFreq[1] = 0x2B ;
 8006b84:	232b      	movs	r3, #43	; 0x2b
 8006b86:	f88d 3005 	strb.w	r3, [sp, #5]
 8006b8a:	e7c8      	b.n	8006b1e <SUBGRF_CalibrateImage+0x16>
 8006b8c:	35a4e900 	.word	0x35a4e900
 8006b90:	32a9f880 	.word	0x32a9f880
 8006b94:	2de54480 	.word	0x2de54480
 8006b98:	1b6b0b00 	.word	0x1b6b0b00
 8006b9c:	1954fc40 	.word	0x1954fc40

08006ba0 <SUBGRF_SetPaConfig>:
{
 8006ba0:	b500      	push	{lr}
 8006ba2:	b083      	sub	sp, #12
    buf[0] = paDutyCycle;
 8006ba4:	f88d 0004 	strb.w	r0, [sp, #4]
    buf[1] = hpMax;
 8006ba8:	f88d 1005 	strb.w	r1, [sp, #5]
    buf[2] = deviceSel;
 8006bac:	f88d 2006 	strb.w	r2, [sp, #6]
    buf[3] = paLut;
 8006bb0:	f88d 3007 	strb.w	r3, [sp, #7]
    SUBGRF_WriteCommand( RADIO_SET_PACONFIG, buf, 4 );
 8006bb4:	2204      	movs	r2, #4
 8006bb6:	eb0d 0102 	add.w	r1, sp, r2
 8006bba:	2095      	movs	r0, #149	; 0x95
 8006bbc:	f7ff fe26 	bl	800680c <SUBGRF_WriteCommand>
}
 8006bc0:	b003      	add	sp, #12
 8006bc2:	f85d fb04 	ldr.w	pc, [sp], #4

08006bc6 <SUBGRF_SetDioIrqParams>:
{
 8006bc6:	b500      	push	{lr}
 8006bc8:	b083      	sub	sp, #12
    buf[0] = ( uint8_t )( ( irqMask >> 8 ) & 0x00FF );
 8006bca:	ea4f 2c10 	mov.w	ip, r0, lsr #8
 8006bce:	f88d c000 	strb.w	ip, [sp]
    buf[1] = ( uint8_t )( irqMask & 0x00FF );
 8006bd2:	f88d 0001 	strb.w	r0, [sp, #1]
    buf[2] = ( uint8_t )( ( dio1Mask >> 8 ) & 0x00FF );
 8006bd6:	0a08      	lsrs	r0, r1, #8
 8006bd8:	f88d 0002 	strb.w	r0, [sp, #2]
    buf[3] = ( uint8_t )( dio1Mask & 0x00FF );
 8006bdc:	f88d 1003 	strb.w	r1, [sp, #3]
    buf[4] = ( uint8_t )( ( dio2Mask >> 8 ) & 0x00FF );
 8006be0:	0a11      	lsrs	r1, r2, #8
 8006be2:	f88d 1004 	strb.w	r1, [sp, #4]
    buf[5] = ( uint8_t )( dio2Mask & 0x00FF );
 8006be6:	f88d 2005 	strb.w	r2, [sp, #5]
    buf[6] = ( uint8_t )( ( dio3Mask >> 8 ) & 0x00FF );
 8006bea:	0a1a      	lsrs	r2, r3, #8
 8006bec:	f88d 2006 	strb.w	r2, [sp, #6]
    buf[7] = ( uint8_t )( dio3Mask & 0x00FF );
 8006bf0:	f88d 3007 	strb.w	r3, [sp, #7]
    SUBGRF_WriteCommand( RADIO_CFG_DIOIRQ, buf, 8 );
 8006bf4:	2208      	movs	r2, #8
 8006bf6:	4669      	mov	r1, sp
 8006bf8:	4610      	mov	r0, r2
 8006bfa:	f7ff fe07 	bl	800680c <SUBGRF_WriteCommand>
}
 8006bfe:	b003      	add	sp, #12
 8006c00:	f85d fb04 	ldr.w	pc, [sp], #4

08006c04 <SUBGRF_SetTcxoMode>:
{
 8006c04:	b500      	push	{lr}
 8006c06:	b083      	sub	sp, #12
    buf[0] = tcxoVoltage & 0x07;
 8006c08:	f000 0007 	and.w	r0, r0, #7
 8006c0c:	f88d 0004 	strb.w	r0, [sp, #4]
    buf[1] = ( uint8_t )( ( timeout >> 16 ) & 0xFF );
 8006c10:	f3c1 4307 	ubfx	r3, r1, #16, #8
 8006c14:	f88d 3005 	strb.w	r3, [sp, #5]
    buf[2] = ( uint8_t )( ( timeout >> 8 ) & 0xFF );
 8006c18:	f3c1 2307 	ubfx	r3, r1, #8, #8
 8006c1c:	f88d 3006 	strb.w	r3, [sp, #6]
    buf[3] = ( uint8_t )( timeout & 0xFF );
 8006c20:	f88d 1007 	strb.w	r1, [sp, #7]
    SUBGRF_WriteCommand( RADIO_SET_TCXOMODE, buf, 4 );
 8006c24:	2204      	movs	r2, #4
 8006c26:	eb0d 0102 	add.w	r1, sp, r2
 8006c2a:	2097      	movs	r0, #151	; 0x97
 8006c2c:	f7ff fdee 	bl	800680c <SUBGRF_WriteCommand>
}
 8006c30:	b003      	add	sp, #12
 8006c32:	f85d fb04 	ldr.w	pc, [sp], #4
	...

08006c38 <SUBGRF_Init>:
{
 8006c38:	b508      	push	{r3, lr}
    if ( dioIrq != NULL)
 8006c3a:	b108      	cbz	r0, 8006c40 <SUBGRF_Init+0x8>
        RadioOnDioIrqCb = dioIrq;
 8006c3c:	4a18      	ldr	r2, [pc, #96]	; (8006ca0 <SUBGRF_Init+0x68>)
 8006c3e:	6010      	str	r0, [r2, #0]
    RADIO_INIT();
 8006c40:	f7f9 fe2c 	bl	800089c <MX_SUBGHZ_Init>
    Radio_SMPS_Set(SMPS_DRIVE_SETTING_DEFAULT);
 8006c44:	2002      	movs	r0, #2
 8006c46:	f7ff fd3b 	bl	80066c0 <Radio_SMPS_Set>
    ImageCalibrated = false;
 8006c4a:	2000      	movs	r0, #0
 8006c4c:	4b15      	ldr	r3, [pc, #84]	; (8006ca4 <SUBGRF_Init+0x6c>)
 8006c4e:	7018      	strb	r0, [r3, #0]
    SUBGRF_SetStandby( STDBY_RC );
 8006c50:	f7ff fe0c 	bl	800686c <SUBGRF_SetStandby>
    if (1U == RBI_IsTCXO() )
 8006c54:	f7fa fd84 	bl	8001760 <RBI_IsTCXO>
 8006c58:	2801      	cmp	r0, #1
 8006c5a:	d014      	beq.n	8006c86 <SUBGRF_Init+0x4e>
        SUBGRF_WriteRegister( REG_XTA_TRIM, XTAL_DEFAULT_CAP_VALUE );
 8006c5c:	2120      	movs	r1, #32
 8006c5e:	f640 1011 	movw	r0, #2321	; 0x911
 8006c62:	f7ff fd0d 	bl	8006680 <SUBGRF_WriteRegister>
        SUBGRF_WriteRegister( REG_XTB_TRIM, XTAL_DEFAULT_CAP_VALUE );
 8006c66:	2120      	movs	r1, #32
 8006c68:	f640 1012 	movw	r0, #2322	; 0x912
 8006c6c:	f7ff fd08 	bl	8006680 <SUBGRF_WriteRegister>
    SUBGRF_WriteRegister(REG_DRV_CTRL, 0x7 << 1);
 8006c70:	210e      	movs	r1, #14
 8006c72:	f640 101f 	movw	r0, #2335	; 0x91f
 8006c76:	f7ff fd03 	bl	8006680 <SUBGRF_WriteRegister>
    RBI_Init();
 8006c7a:	f7fa fd65 	bl	8001748 <RBI_Init>
    OperatingMode = MODE_STDBY_RC;
 8006c7e:	4b0a      	ldr	r3, [pc, #40]	; (8006ca8 <SUBGRF_Init+0x70>)
 8006c80:	2201      	movs	r2, #1
 8006c82:	701a      	strb	r2, [r3, #0]
}
 8006c84:	bd08      	pop	{r3, pc}
        SUBGRF_SetTcxoMode( TCXO_CTRL_VOLTAGE, RF_WAKEUP_TIME << 6 );// 100 ms
 8006c86:	2140      	movs	r1, #64	; 0x40
 8006c88:	f7ff ffbc 	bl	8006c04 <SUBGRF_SetTcxoMode>
        SUBGRF_WriteRegister( REG_XTA_TRIM, 0x00 );
 8006c8c:	2100      	movs	r1, #0
 8006c8e:	f640 1011 	movw	r0, #2321	; 0x911
 8006c92:	f7ff fcf5 	bl	8006680 <SUBGRF_WriteRegister>
        SUBGRF_Calibrate( calibParam );
 8006c96:	f04f 007f 	mov.w	r0, #127	; 0x7f
 8006c9a:	f7ff ff13 	bl	8006ac4 <SUBGRF_Calibrate>
 8006c9e:	e7e7      	b.n	8006c70 <SUBGRF_Init+0x38>
 8006ca0:	2000066c 	.word	0x2000066c
 8006ca4:	20000668 	.word	0x20000668
 8006ca8:	2000066a 	.word	0x2000066a

08006cac <SUBGRF_SetRfFrequency>:
{
 8006cac:	b510      	push	{r4, lr}
 8006cae:	b082      	sub	sp, #8
 8006cb0:	4604      	mov	r4, r0
    if( ImageCalibrated == false )
 8006cb2:	4b12      	ldr	r3, [pc, #72]	; (8006cfc <SUBGRF_SetRfFrequency+0x50>)
 8006cb4:	781b      	ldrb	r3, [r3, #0]
 8006cb6:	b1d3      	cbz	r3, 8006cee <SUBGRF_SetRfFrequency+0x42>
    SX_FREQ_TO_CHANNEL(chan, frequency);
 8006cb8:	4a11      	ldr	r2, [pc, #68]	; (8006d00 <SUBGRF_SetRfFrequency+0x54>)
 8006cba:	2300      	movs	r3, #0
 8006cbc:	0660      	lsls	r0, r4, #25
 8006cbe:	09e1      	lsrs	r1, r4, #7
 8006cc0:	f7f9 fab6 	bl	8000230 <__aeabi_uldivmod>
    buf[0] = ( uint8_t )( ( chan >> 24 ) & 0xFF );
 8006cc4:	0e03      	lsrs	r3, r0, #24
 8006cc6:	f88d 3004 	strb.w	r3, [sp, #4]
    buf[1] = ( uint8_t )( ( chan >> 16 ) & 0xFF );
 8006cca:	f3c0 4307 	ubfx	r3, r0, #16, #8
 8006cce:	f88d 3005 	strb.w	r3, [sp, #5]
    buf[2] = ( uint8_t )( ( chan >> 8 ) & 0xFF );
 8006cd2:	f3c0 2307 	ubfx	r3, r0, #8, #8
 8006cd6:	f88d 3006 	strb.w	r3, [sp, #6]
    buf[3] = ( uint8_t )( chan & 0xFF );
 8006cda:	f88d 0007 	strb.w	r0, [sp, #7]
    SUBGRF_WriteCommand( RADIO_SET_RFFREQUENCY, buf, 4 );
 8006cde:	2204      	movs	r2, #4
 8006ce0:	eb0d 0102 	add.w	r1, sp, r2
 8006ce4:	2086      	movs	r0, #134	; 0x86
 8006ce6:	f7ff fd91 	bl	800680c <SUBGRF_WriteCommand>
}
 8006cea:	b002      	add	sp, #8
 8006cec:	bd10      	pop	{r4, pc}
        SUBGRF_CalibrateImage( frequency );
 8006cee:	f7ff ff0b 	bl	8006b08 <SUBGRF_CalibrateImage>
        ImageCalibrated = true;
 8006cf2:	4b02      	ldr	r3, [pc, #8]	; (8006cfc <SUBGRF_SetRfFrequency+0x50>)
 8006cf4:	2201      	movs	r2, #1
 8006cf6:	701a      	strb	r2, [r3, #0]
 8006cf8:	e7de      	b.n	8006cb8 <SUBGRF_SetRfFrequency+0xc>
 8006cfa:	bf00      	nop
 8006cfc:	20000668 	.word	0x20000668
 8006d00:	01e84800 	.word	0x01e84800

08006d04 <SUBGRF_SetPacketType>:
{
 8006d04:	b500      	push	{lr}
 8006d06:	b083      	sub	sp, #12
 8006d08:	f88d 0007 	strb.w	r0, [sp, #7]
    PacketType = packetType;
 8006d0c:	b2c3      	uxtb	r3, r0
 8006d0e:	4a09      	ldr	r2, [pc, #36]	; (8006d34 <SUBGRF_SetPacketType+0x30>)
 8006d10:	7013      	strb	r3, [r2, #0]
    if( packetType == PACKET_TYPE_GFSK )
 8006d12:	b143      	cbz	r3, 8006d26 <SUBGRF_SetPacketType+0x22>
    SUBGRF_WriteCommand( RADIO_SET_PACKETTYPE, ( uint8_t* )&packetType, 1 );
 8006d14:	2201      	movs	r2, #1
 8006d16:	f10d 0107 	add.w	r1, sp, #7
 8006d1a:	208a      	movs	r0, #138	; 0x8a
 8006d1c:	f7ff fd76 	bl	800680c <SUBGRF_WriteCommand>
}
 8006d20:	b003      	add	sp, #12
 8006d22:	f85d fb04 	ldr.w	pc, [sp], #4
        SUBGRF_WriteRegister( REG_BIT_SYNC, 0x00 );
 8006d26:	2100      	movs	r1, #0
 8006d28:	f240 60ac 	movw	r0, #1708	; 0x6ac
 8006d2c:	f7ff fca8 	bl	8006680 <SUBGRF_WriteRegister>
 8006d30:	e7f0      	b.n	8006d14 <SUBGRF_SetPacketType+0x10>
 8006d32:	bf00      	nop
 8006d34:	2000066b 	.word	0x2000066b

08006d38 <SUBGRF_SetTxParams>:
{
 8006d38:	b570      	push	{r4, r5, r6, lr}
 8006d3a:	b082      	sub	sp, #8
 8006d3c:	460c      	mov	r4, r1
 8006d3e:	4616      	mov	r6, r2
    if (paSelect == RFO_LP)
 8006d40:	2801      	cmp	r0, #1
 8006d42:	d035      	beq.n	8006db0 <SUBGRF_SetTxParams+0x78>
        SUBGRF_WriteRegister(REG_TX_CLAMP, SUBGRF_ReadRegister(REG_TX_CLAMP) | (0x0F << 1));
 8006d44:	f640 00d8 	movw	r0, #2264	; 0x8d8
 8006d48:	f7ff fcaa 	bl	80066a0 <SUBGRF_ReadRegister>
 8006d4c:	f040 011e 	orr.w	r1, r0, #30
 8006d50:	b2c9      	uxtb	r1, r1
 8006d52:	f640 00d8 	movw	r0, #2264	; 0x8d8
 8006d56:	f7ff fc93 	bl	8006680 <SUBGRF_WriteRegister>
        max_power = RBI_GetRFOMaxPowerConfig(RBI_RFO_HP_MAXPOWER);
 8006d5a:	2001      	movs	r0, #1
 8006d5c:	f7fa fd08 	bl	8001770 <RBI_GetRFOMaxPowerConfig>
 8006d60:	4605      	mov	r5, r0
        if (power > max_power)
 8006d62:	4284      	cmp	r4, r0
 8006d64:	dd00      	ble.n	8006d68 <SUBGRF_SetTxParams+0x30>
            power = max_power;
 8006d66:	b244      	sxtb	r4, r0
        if (max_power == 20)
 8006d68:	2d14      	cmp	r5, #20
 8006d6a:	d054      	beq.n	8006e16 <SUBGRF_SetTxParams+0xde>
        else if (max_power == 17)
 8006d6c:	2d11      	cmp	r5, #17
 8006d6e:	d05c      	beq.n	8006e2a <SUBGRF_SetTxParams+0xf2>
        else if (max_power == 14)
 8006d70:	2d0e      	cmp	r5, #14
 8006d72:	d064      	beq.n	8006e3e <SUBGRF_SetTxParams+0x106>
            SUBGRF_SetPaConfig(0x04, 0x07, 0x00, 0x01);
 8006d74:	2301      	movs	r3, #1
 8006d76:	2200      	movs	r2, #0
 8006d78:	2107      	movs	r1, #7
 8006d7a:	2004      	movs	r0, #4
 8006d7c:	f7ff ff10 	bl	8006ba0 <SUBGRF_SetPaConfig>
            power = 0x16 - (max_power - power);
 8006d80:	1b64      	subs	r4, r4, r5
 8006d82:	3416      	adds	r4, #22
 8006d84:	b265      	sxtb	r5, r4
        if (power < -9)
 8006d86:	f115 0f09 	cmn.w	r5, #9
 8006d8a:	da01      	bge.n	8006d90 <SUBGRF_SetTxParams+0x58>
            power = -9;
 8006d8c:	f06f 0508 	mvn.w	r5, #8
        SUBGRF_WriteRegister(REG_OCP, 0x38);   /*current max 160mA for the whole device*/
 8006d90:	2138      	movs	r1, #56	; 0x38
 8006d92:	f640 00e7 	movw	r0, #2279	; 0x8e7
 8006d96:	f7ff fc73 	bl	8006680 <SUBGRF_WriteRegister>
    buf[0] = power;
 8006d9a:	f88d 5004 	strb.w	r5, [sp, #4]
    buf[1] = (uint8_t)rampTime;
 8006d9e:	f88d 6005 	strb.w	r6, [sp, #5]
    SUBGRF_WriteCommand(RADIO_SET_TXPARAMS, buf, 2);
 8006da2:	2202      	movs	r2, #2
 8006da4:	a901      	add	r1, sp, #4
 8006da6:	208e      	movs	r0, #142	; 0x8e
 8006da8:	f7ff fd30 	bl	800680c <SUBGRF_WriteCommand>
}
 8006dac:	b002      	add	sp, #8
 8006dae:	bd70      	pop	{r4, r5, r6, pc}
        max_power = RBI_GetRFOMaxPowerConfig(RBI_RFO_LP_MAXPOWER);
 8006db0:	2000      	movs	r0, #0
 8006db2:	f7fa fcdd 	bl	8001770 <RBI_GetRFOMaxPowerConfig>
 8006db6:	4605      	mov	r5, r0
        if (power >  max_power)
 8006db8:	4284      	cmp	r4, r0
 8006dba:	dd00      	ble.n	8006dbe <SUBGRF_SetTxParams+0x86>
          power = max_power;
 8006dbc:	b244      	sxtb	r4, r0
        if (max_power == 14)
 8006dbe:	2d0e      	cmp	r5, #14
 8006dc0:	d015      	beq.n	8006dee <SUBGRF_SetTxParams+0xb6>
        else if (max_power == 10)
 8006dc2:	2d0a      	cmp	r5, #10
 8006dc4:	d01d      	beq.n	8006e02 <SUBGRF_SetTxParams+0xca>
            SUBGRF_SetPaConfig(0x07, 0x00, 0x01, 0x01);
 8006dc6:	2301      	movs	r3, #1
 8006dc8:	461a      	mov	r2, r3
 8006dca:	2100      	movs	r1, #0
 8006dcc:	2007      	movs	r0, #7
 8006dce:	f7ff fee7 	bl	8006ba0 <SUBGRF_SetPaConfig>
            power = 0x0E - (max_power - power);
 8006dd2:	1b65      	subs	r5, r4, r5
 8006dd4:	350e      	adds	r5, #14
 8006dd6:	b26d      	sxtb	r5, r5
        if (power < -17)
 8006dd8:	f115 0f11 	cmn.w	r5, #17
 8006ddc:	da01      	bge.n	8006de2 <SUBGRF_SetTxParams+0xaa>
            power = -17;
 8006dde:	f06f 0510 	mvn.w	r5, #16
        SUBGRF_WriteRegister(REG_OCP, 0x18);   /* current max is 80 mA for the whole device*/
 8006de2:	2118      	movs	r1, #24
 8006de4:	f640 00e7 	movw	r0, #2279	; 0x8e7
 8006de8:	f7ff fc4a 	bl	8006680 <SUBGRF_WriteRegister>
 8006dec:	e7d5      	b.n	8006d9a <SUBGRF_SetTxParams+0x62>
            SUBGRF_SetPaConfig(0x04, 0x00, 0x01, 0x01);
 8006dee:	2301      	movs	r3, #1
 8006df0:	461a      	mov	r2, r3
 8006df2:	2100      	movs	r1, #0
 8006df4:	2004      	movs	r0, #4
 8006df6:	f7ff fed3 	bl	8006ba0 <SUBGRF_SetPaConfig>
            power = 0x0E - (max_power - power);
 8006dfa:	1b65      	subs	r5, r4, r5
 8006dfc:	350e      	adds	r5, #14
 8006dfe:	b26d      	sxtb	r5, r5
 8006e00:	e7ea      	b.n	8006dd8 <SUBGRF_SetTxParams+0xa0>
            SUBGRF_SetPaConfig(0x01, 0x00, 0x01, 0x01);
 8006e02:	2301      	movs	r3, #1
 8006e04:	461a      	mov	r2, r3
 8006e06:	2100      	movs	r1, #0
 8006e08:	4618      	mov	r0, r3
 8006e0a:	f7ff fec9 	bl	8006ba0 <SUBGRF_SetPaConfig>
            power = 0x0D - (max_power - power);
 8006e0e:	1b65      	subs	r5, r4, r5
 8006e10:	350d      	adds	r5, #13
 8006e12:	b26d      	sxtb	r5, r5
 8006e14:	e7e0      	b.n	8006dd8 <SUBGRF_SetTxParams+0xa0>
            SUBGRF_SetPaConfig(0x03, 0x05, 0x00, 0x01);
 8006e16:	2301      	movs	r3, #1
 8006e18:	2200      	movs	r2, #0
 8006e1a:	2105      	movs	r1, #5
 8006e1c:	2003      	movs	r0, #3
 8006e1e:	f7ff febf 	bl	8006ba0 <SUBGRF_SetPaConfig>
            power = 0x16 - (max_power - power);
 8006e22:	1b65      	subs	r5, r4, r5
 8006e24:	3516      	adds	r5, #22
 8006e26:	b26d      	sxtb	r5, r5
 8006e28:	e7ad      	b.n	8006d86 <SUBGRF_SetTxParams+0x4e>
            SUBGRF_SetPaConfig(0x02, 0x03, 0x00, 0x01);
 8006e2a:	2301      	movs	r3, #1
 8006e2c:	2200      	movs	r2, #0
 8006e2e:	2103      	movs	r1, #3
 8006e30:	2002      	movs	r0, #2
 8006e32:	f7ff feb5 	bl	8006ba0 <SUBGRF_SetPaConfig>
            power = 0x16 - (max_power - power);
 8006e36:	1b65      	subs	r5, r4, r5
 8006e38:	3516      	adds	r5, #22
 8006e3a:	b26d      	sxtb	r5, r5
 8006e3c:	e7a3      	b.n	8006d86 <SUBGRF_SetTxParams+0x4e>
            SUBGRF_SetPaConfig(0x02, 0x02, 0x00, 0x01);
 8006e3e:	2301      	movs	r3, #1
 8006e40:	2200      	movs	r2, #0
 8006e42:	2102      	movs	r1, #2
 8006e44:	4608      	mov	r0, r1
 8006e46:	f7ff feab 	bl	8006ba0 <SUBGRF_SetPaConfig>
            power = 0x0E - (max_power - power);
 8006e4a:	1b65      	subs	r5, r4, r5
 8006e4c:	350e      	adds	r5, #14
 8006e4e:	b26d      	sxtb	r5, r5
 8006e50:	e799      	b.n	8006d86 <SUBGRF_SetTxParams+0x4e>
	...

08006e54 <SUBGRF_SetModulationParams>:
{
 8006e54:	b510      	push	{r4, lr}
 8006e56:	b082      	sub	sp, #8
 8006e58:	4604      	mov	r4, r0
    uint8_t buf[8] = { 0x00, 0x00, 0x00, 0x00, 0x00, 0x00, 0x00, 0x00 };
 8006e5a:	4b3e      	ldr	r3, [pc, #248]	; (8006f54 <SUBGRF_SetModulationParams+0x100>)
 8006e5c:	e893 0003 	ldmia.w	r3, {r0, r1}
 8006e60:	ab02      	add	r3, sp, #8
 8006e62:	e903 0003 	stmdb	r3, {r0, r1}
    if( PacketType != modulationParams->PacketType )
 8006e66:	7820      	ldrb	r0, [r4, #0]
 8006e68:	4b3b      	ldr	r3, [pc, #236]	; (8006f58 <SUBGRF_SetModulationParams+0x104>)
 8006e6a:	781b      	ldrb	r3, [r3, #0]
 8006e6c:	4298      	cmp	r0, r3
 8006e6e:	d106      	bne.n	8006e7e <SUBGRF_SetModulationParams+0x2a>
    switch( modulationParams->PacketType )
 8006e70:	7823      	ldrb	r3, [r4, #0]
 8006e72:	2b03      	cmp	r3, #3
 8006e74:	d82c      	bhi.n	8006ed0 <SUBGRF_SetModulationParams+0x7c>
 8006e76:	e8df f003 	tbb	[pc, r3]
 8006e7a:	4205      	.short	0x4205
 8006e7c:	542d      	.short	0x542d
        SUBGRF_SetPacketType( modulationParams->PacketType );
 8006e7e:	f7ff ff41 	bl	8006d04 <SUBGRF_SetPacketType>
 8006e82:	e7f5      	b.n	8006e70 <SUBGRF_SetModulationParams+0x1c>
        tempVal = ( uint32_t )(( 32 * XTAL_FREQ ) / modulationParams->Params.Gfsk.BitRate );
 8006e84:	6862      	ldr	r2, [r4, #4]
 8006e86:	4b35      	ldr	r3, [pc, #212]	; (8006f5c <SUBGRF_SetModulationParams+0x108>)
 8006e88:	fbb3 f3f2 	udiv	r3, r3, r2
        buf[0] = ( tempVal >> 16 ) & 0xFF;
 8006e8c:	0c1a      	lsrs	r2, r3, #16
 8006e8e:	f88d 2000 	strb.w	r2, [sp]
        buf[1] = ( tempVal >> 8 ) & 0xFF;
 8006e92:	0a1a      	lsrs	r2, r3, #8
 8006e94:	f88d 2001 	strb.w	r2, [sp, #1]
        buf[2] = tempVal & 0xFF;
 8006e98:	f88d 3002 	strb.w	r3, [sp, #2]
        buf[3] = modulationParams->Params.Gfsk.ModulationShaping;
 8006e9c:	7b23      	ldrb	r3, [r4, #12]
 8006e9e:	f88d 3003 	strb.w	r3, [sp, #3]
        buf[4] = modulationParams->Params.Gfsk.Bandwidth;
 8006ea2:	7b63      	ldrb	r3, [r4, #13]
 8006ea4:	f88d 3004 	strb.w	r3, [sp, #4]
        SX_FREQ_TO_CHANNEL(tempVal, modulationParams->Params.Gfsk.Fdev);
 8006ea8:	68a1      	ldr	r1, [r4, #8]
 8006eaa:	4a2d      	ldr	r2, [pc, #180]	; (8006f60 <SUBGRF_SetModulationParams+0x10c>)
 8006eac:	2300      	movs	r3, #0
 8006eae:	0648      	lsls	r0, r1, #25
 8006eb0:	09c9      	lsrs	r1, r1, #7
 8006eb2:	f7f9 f9bd 	bl	8000230 <__aeabi_uldivmod>
        buf[5] = ( tempVal >> 16 ) & 0xFF;
 8006eb6:	0c03      	lsrs	r3, r0, #16
 8006eb8:	f88d 3005 	strb.w	r3, [sp, #5]
        buf[6] = ( tempVal >> 8 ) & 0xFF;
 8006ebc:	0a03      	lsrs	r3, r0, #8
 8006ebe:	f88d 3006 	strb.w	r3, [sp, #6]
        buf[7] = ( tempVal& 0xFF );
 8006ec2:	f88d 0007 	strb.w	r0, [sp, #7]
        SUBGRF_WriteCommand( RADIO_SET_MODULATIONPARAMS, buf, n );
 8006ec6:	2208      	movs	r2, #8
 8006ec8:	4669      	mov	r1, sp
 8006eca:	208b      	movs	r0, #139	; 0x8b
 8006ecc:	f7ff fc9e 	bl	800680c <SUBGRF_WriteCommand>
}
 8006ed0:	b002      	add	sp, #8
 8006ed2:	bd10      	pop	{r4, pc}
        tempVal = ( uint32_t ) (( 32 * XTAL_FREQ) / modulationParams->Params.Bpsk.BitRate );
 8006ed4:	6922      	ldr	r2, [r4, #16]
 8006ed6:	4b21      	ldr	r3, [pc, #132]	; (8006f5c <SUBGRF_SetModulationParams+0x108>)
 8006ed8:	fbb3 f3f2 	udiv	r3, r3, r2
        buf[0] = ( tempVal >> 16 ) & 0xFF;
 8006edc:	0c1a      	lsrs	r2, r3, #16
 8006ede:	f88d 2000 	strb.w	r2, [sp]
        buf[1] = ( tempVal >> 8 ) & 0xFF;
 8006ee2:	0a1a      	lsrs	r2, r3, #8
 8006ee4:	f88d 2001 	strb.w	r2, [sp, #1]
        buf[2] = tempVal & 0xFF;
 8006ee8:	f88d 3002 	strb.w	r3, [sp, #2]
        buf[3] = modulationParams->Params.Bpsk.ModulationShaping;
 8006eec:	7d23      	ldrb	r3, [r4, #20]
 8006eee:	f88d 3003 	strb.w	r3, [sp, #3]
        SUBGRF_WriteCommand( RADIO_SET_MODULATIONPARAMS, buf, n );
 8006ef2:	2204      	movs	r2, #4
 8006ef4:	4669      	mov	r1, sp
 8006ef6:	208b      	movs	r0, #139	; 0x8b
 8006ef8:	f7ff fc88 	bl	800680c <SUBGRF_WriteCommand>
        break;
 8006efc:	e7e8      	b.n	8006ed0 <SUBGRF_SetModulationParams+0x7c>
        buf[0] = modulationParams->Params.LoRa.SpreadingFactor;
 8006efe:	7e23      	ldrb	r3, [r4, #24]
 8006f00:	f88d 3000 	strb.w	r3, [sp]
        buf[1] = modulationParams->Params.LoRa.Bandwidth;
 8006f04:	7e63      	ldrb	r3, [r4, #25]
 8006f06:	f88d 3001 	strb.w	r3, [sp, #1]
        buf[2] = modulationParams->Params.LoRa.CodingRate;
 8006f0a:	7ea3      	ldrb	r3, [r4, #26]
 8006f0c:	f88d 3002 	strb.w	r3, [sp, #2]
        buf[3] = modulationParams->Params.LoRa.LowDatarateOptimize;
 8006f10:	7ee3      	ldrb	r3, [r4, #27]
 8006f12:	f88d 3003 	strb.w	r3, [sp, #3]
        SUBGRF_WriteCommand( RADIO_SET_MODULATIONPARAMS, buf, n );
 8006f16:	2204      	movs	r2, #4
 8006f18:	4669      	mov	r1, sp
 8006f1a:	208b      	movs	r0, #139	; 0x8b
 8006f1c:	f7ff fc76 	bl	800680c <SUBGRF_WriteCommand>
        break;
 8006f20:	e7d6      	b.n	8006ed0 <SUBGRF_SetModulationParams+0x7c>
        tempVal = ( uint32_t )(( 32 *XTAL_FREQ) / modulationParams->Params.Gfsk.BitRate );
 8006f22:	6862      	ldr	r2, [r4, #4]
 8006f24:	4b0d      	ldr	r3, [pc, #52]	; (8006f5c <SUBGRF_SetModulationParams+0x108>)
 8006f26:	fbb3 f3f2 	udiv	r3, r3, r2
        buf[0] = ( tempVal >> 16 ) & 0xFF;
 8006f2a:	0c1a      	lsrs	r2, r3, #16
 8006f2c:	f88d 2000 	strb.w	r2, [sp]
        buf[1] = ( tempVal >> 8 ) & 0xFF;
 8006f30:	0a1a      	lsrs	r2, r3, #8
 8006f32:	f88d 2001 	strb.w	r2, [sp, #1]
        buf[2] = tempVal & 0xFF;
 8006f36:	f88d 3002 	strb.w	r3, [sp, #2]
        buf[3] = modulationParams->Params.Gfsk.ModulationShaping;
 8006f3a:	7b23      	ldrb	r3, [r4, #12]
 8006f3c:	f88d 3003 	strb.w	r3, [sp, #3]
        buf[4] = modulationParams->Params.Gfsk.Bandwidth;
 8006f40:	7b63      	ldrb	r3, [r4, #13]
 8006f42:	f88d 3004 	strb.w	r3, [sp, #4]
        SUBGRF_WriteCommand( RADIO_SET_MODULATIONPARAMS, buf, n );
 8006f46:	2205      	movs	r2, #5
 8006f48:	4669      	mov	r1, sp
 8006f4a:	208b      	movs	r0, #139	; 0x8b
 8006f4c:	f7ff fc5e 	bl	800680c <SUBGRF_WriteCommand>
}
 8006f50:	e7be      	b.n	8006ed0 <SUBGRF_SetModulationParams+0x7c>
 8006f52:	bf00      	nop
 8006f54:	08009354 	.word	0x08009354
 8006f58:	2000066b 	.word	0x2000066b
 8006f5c:	3d090000 	.word	0x3d090000
 8006f60:	01e84800 	.word	0x01e84800

08006f64 <SUBGRF_SetPacketParams>:
{
 8006f64:	b510      	push	{r4, lr}
 8006f66:	b084      	sub	sp, #16
 8006f68:	4604      	mov	r4, r0
    uint8_t buf[9] = { 0x00, 0x00, 0x00, 0x00, 0x00, 0x00, 0x00, 0x00, 0x00 };
 8006f6a:	ab01      	add	r3, sp, #4
 8006f6c:	4a33      	ldr	r2, [pc, #204]	; (800703c <SUBGRF_SetPacketParams+0xd8>)
 8006f6e:	ca07      	ldmia	r2, {r0, r1, r2}
 8006f70:	c303      	stmia	r3!, {r0, r1}
 8006f72:	701a      	strb	r2, [r3, #0]
    if( PacketType != packetParams->PacketType )
 8006f74:	7820      	ldrb	r0, [r4, #0]
 8006f76:	4b32      	ldr	r3, [pc, #200]	; (8007040 <SUBGRF_SetPacketParams+0xdc>)
 8006f78:	781b      	ldrb	r3, [r3, #0]
 8006f7a:	4298      	cmp	r0, r3
 8006f7c:	d106      	bne.n	8006f8c <SUBGRF_SetPacketParams+0x28>
    switch( packetParams->PacketType )
 8006f7e:	7823      	ldrb	r3, [r4, #0]
 8006f80:	2b03      	cmp	r3, #3
 8006f82:	d82a      	bhi.n	8006fda <SUBGRF_SetPacketParams+0x76>
 8006f84:	e8df f003 	tbb	[pc, r3]
 8006f88:	053f4405 	.word	0x053f4405
        SUBGRF_SetPacketType( packetParams->PacketType );
 8006f8c:	f7ff feba 	bl	8006d04 <SUBGRF_SetPacketType>
 8006f90:	e7f5      	b.n	8006f7e <SUBGRF_SetPacketParams+0x1a>
        if( packetParams->Params.Gfsk.CrcLength == RADIO_CRC_2_BYTES_IBM )
 8006f92:	7a63      	ldrb	r3, [r4, #9]
 8006f94:	2bf1      	cmp	r3, #241	; 0xf1
 8006f96:	d022      	beq.n	8006fde <SUBGRF_SetPacketParams+0x7a>
        else if( packetParams->Params.Gfsk.CrcLength == RADIO_CRC_2_BYTES_CCIT )
 8006f98:	2bf2      	cmp	r3, #242	; 0xf2
 8006f9a:	d02a      	beq.n	8006ff2 <SUBGRF_SetPacketParams+0x8e>
        buf[0] = ( packetParams->Params.Gfsk.PreambleLength >> 8 ) & 0xFF;
 8006f9c:	8862      	ldrh	r2, [r4, #2]
 8006f9e:	0a11      	lsrs	r1, r2, #8
 8006fa0:	f88d 1004 	strb.w	r1, [sp, #4]
        buf[1] = packetParams->Params.Gfsk.PreambleLength;
 8006fa4:	f88d 2005 	strb.w	r2, [sp, #5]
        buf[2] = packetParams->Params.Gfsk.PreambleMinDetect;
 8006fa8:	7922      	ldrb	r2, [r4, #4]
 8006faa:	f88d 2006 	strb.w	r2, [sp, #6]
        buf[3] = ( packetParams->Params.Gfsk.SyncWordLength /*<< 3*/ ); // convert from byte to bit
 8006fae:	7962      	ldrb	r2, [r4, #5]
 8006fb0:	f88d 2007 	strb.w	r2, [sp, #7]
        buf[4] = packetParams->Params.Gfsk.AddrComp;
 8006fb4:	79a2      	ldrb	r2, [r4, #6]
 8006fb6:	f88d 2008 	strb.w	r2, [sp, #8]
        buf[5] = packetParams->Params.Gfsk.HeaderType;
 8006fba:	79e2      	ldrb	r2, [r4, #7]
 8006fbc:	f88d 2009 	strb.w	r2, [sp, #9]
        buf[6] = packetParams->Params.Gfsk.PayloadLength;
 8006fc0:	7a22      	ldrb	r2, [r4, #8]
 8006fc2:	f88d 200a 	strb.w	r2, [sp, #10]
        buf[7] = crcVal;
 8006fc6:	f88d 300b 	strb.w	r3, [sp, #11]
        buf[8] = packetParams->Params.Gfsk.DcFree;
 8006fca:	7aa3      	ldrb	r3, [r4, #10]
 8006fcc:	f88d 300c 	strb.w	r3, [sp, #12]
        n = 9;
 8006fd0:	2209      	movs	r2, #9
    SUBGRF_WriteCommand( RADIO_SET_PACKETPARAMS, buf, n );
 8006fd2:	a901      	add	r1, sp, #4
 8006fd4:	208c      	movs	r0, #140	; 0x8c
 8006fd6:	f7ff fc19 	bl	800680c <SUBGRF_WriteCommand>
}
 8006fda:	b004      	add	sp, #16
 8006fdc:	bd10      	pop	{r4, pc}
            SUBGRF_SetCrcSeed( CRC_IBM_SEED );
 8006fde:	f64f 70ff 	movw	r0, #65535	; 0xffff
 8006fe2:	f7ff fbb2 	bl	800674a <SUBGRF_SetCrcSeed>
            SUBGRF_SetCrcPolynomial( CRC_POLYNOMIAL_IBM );
 8006fe6:	f248 0005 	movw	r0, #32773	; 0x8005
 8006fea:	f7ff fbc2 	bl	8006772 <SUBGRF_SetCrcPolynomial>
            crcVal = RADIO_CRC_2_BYTES;
 8006fee:	2302      	movs	r3, #2
 8006ff0:	e7d4      	b.n	8006f9c <SUBGRF_SetPacketParams+0x38>
            SUBGRF_SetCrcSeed( CRC_CCITT_SEED );
 8006ff2:	f641 500f 	movw	r0, #7439	; 0x1d0f
 8006ff6:	f7ff fba8 	bl	800674a <SUBGRF_SetCrcSeed>
            SUBGRF_SetCrcPolynomial( CRC_POLYNOMIAL_CCITT );
 8006ffa:	f241 0021 	movw	r0, #4129	; 0x1021
 8006ffe:	f7ff fbb8 	bl	8006772 <SUBGRF_SetCrcPolynomial>
            crcVal = RADIO_CRC_2_BYTES_INV;
 8007002:	2306      	movs	r3, #6
 8007004:	e7ca      	b.n	8006f9c <SUBGRF_SetPacketParams+0x38>
        buf[0] = packetParams->Params.Bpsk.PayloadLength;
 8007006:	7b23      	ldrb	r3, [r4, #12]
 8007008:	f88d 3004 	strb.w	r3, [sp, #4]
        n = 1;
 800700c:	2201      	movs	r2, #1
        break;
 800700e:	e7e0      	b.n	8006fd2 <SUBGRF_SetPacketParams+0x6e>
        buf[0] = ( packetParams->Params.LoRa.PreambleLength >> 8 ) & 0xFF;
 8007010:	89e3      	ldrh	r3, [r4, #14]
 8007012:	0a1a      	lsrs	r2, r3, #8
 8007014:	f88d 2004 	strb.w	r2, [sp, #4]
        buf[1] = packetParams->Params.LoRa.PreambleLength;
 8007018:	f88d 3005 	strb.w	r3, [sp, #5]
        buf[2] = LoRaHeaderType = packetParams->Params.LoRa.HeaderType;
 800701c:	7c23      	ldrb	r3, [r4, #16]
 800701e:	4a09      	ldr	r2, [pc, #36]	; (8007044 <SUBGRF_SetPacketParams+0xe0>)
 8007020:	7013      	strb	r3, [r2, #0]
 8007022:	f88d 3006 	strb.w	r3, [sp, #6]
        buf[3] = packetParams->Params.LoRa.PayloadLength;
 8007026:	7c63      	ldrb	r3, [r4, #17]
 8007028:	f88d 3007 	strb.w	r3, [sp, #7]
        buf[4] = packetParams->Params.LoRa.CrcMode;
 800702c:	7ca3      	ldrb	r3, [r4, #18]
 800702e:	f88d 3008 	strb.w	r3, [sp, #8]
        buf[5] = packetParams->Params.LoRa.InvertIQ;
 8007032:	7ce3      	ldrb	r3, [r4, #19]
 8007034:	f88d 3009 	strb.w	r3, [sp, #9]
        n = 6;
 8007038:	2206      	movs	r2, #6
        break;
 800703a:	e7ca      	b.n	8006fd2 <SUBGRF_SetPacketParams+0x6e>
 800703c:	0800935c 	.word	0x0800935c
 8007040:	2000066b 	.word	0x2000066b
 8007044:	20000669 	.word	0x20000669

08007048 <SUBGRF_SetBufferBaseAddress>:
{
 8007048:	b500      	push	{lr}
 800704a:	b083      	sub	sp, #12
    buf[0] = txBaseAddress;
 800704c:	f88d 0004 	strb.w	r0, [sp, #4]
    buf[1] = rxBaseAddress;
 8007050:	f88d 1005 	strb.w	r1, [sp, #5]
    SUBGRF_WriteCommand( RADIO_SET_BUFFERBASEADDRESS, buf, 2 );
 8007054:	2202      	movs	r2, #2
 8007056:	a901      	add	r1, sp, #4
 8007058:	208f      	movs	r0, #143	; 0x8f
 800705a:	f7ff fbd7 	bl	800680c <SUBGRF_WriteCommand>
}
 800705e:	b003      	add	sp, #12
 8007060:	f85d fb04 	ldr.w	pc, [sp], #4

08007064 <SUBGRF_ReadCommand>:
{
 8007064:	b510      	push	{r4, lr}
 8007066:	4613      	mov	r3, r2
  __ASM volatile ("MRS %0, primask" : "=r" (result) :: "memory");
 8007068:	f3ef 8410 	mrs	r4, PRIMASK
  __ASM volatile ("cpsid i" : : : "memory");
 800706c:	b672      	cpsid	i
    HAL_SUBGHZ_ExecGetCmd( &hsubghz, Command, pBuffer, Size );
 800706e:	460a      	mov	r2, r1
 8007070:	4601      	mov	r1, r0
 8007072:	4803      	ldr	r0, [pc, #12]	; (8007080 <SUBGRF_ReadCommand+0x1c>)
 8007074:	f7fc fccc 	bl	8003a10 <HAL_SUBGHZ_ExecGetCmd>
  __ASM volatile ("MSR primask, %0" : : "r" (priMask) : "memory");
 8007078:	f384 8810 	msr	PRIMASK, r4
}
 800707c:	bd10      	pop	{r4, pc}
 800707e:	bf00      	nop
 8007080:	200000ec 	.word	0x200000ec

08007084 <SUBGRF_GetRssiInst>:
{
 8007084:	b500      	push	{lr}
 8007086:	b083      	sub	sp, #12
    SUBGRF_ReadCommand( RADIO_GET_RSSIINST, buf, 1 );
 8007088:	2201      	movs	r2, #1
 800708a:	a901      	add	r1, sp, #4
 800708c:	2015      	movs	r0, #21
 800708e:	f7ff ffe9 	bl	8007064 <SUBGRF_ReadCommand>
    rssi = -buf[0] >> 1;
 8007092:	f89d 0004 	ldrb.w	r0, [sp, #4]
 8007096:	4240      	negs	r0, r0
}
 8007098:	1040      	asrs	r0, r0, #1
 800709a:	b003      	add	sp, #12
 800709c:	f85d fb04 	ldr.w	pc, [sp], #4

080070a0 <SUBGRF_GetRxBufferStatus>:
{
 80070a0:	b530      	push	{r4, r5, lr}
 80070a2:	b083      	sub	sp, #12
 80070a4:	4605      	mov	r5, r0
 80070a6:	460c      	mov	r4, r1
    SUBGRF_ReadCommand( RADIO_GET_RXBUFFERSTATUS, status, 2 );
 80070a8:	2202      	movs	r2, #2
 80070aa:	a901      	add	r1, sp, #4
 80070ac:	2013      	movs	r0, #19
 80070ae:	f7ff ffd9 	bl	8007064 <SUBGRF_ReadCommand>
    if( ( SUBGRF_GetPacketType( ) == PACKET_TYPE_LORA ) && ( LoRaHeaderType == LORA_PACKET_FIXED_LENGTH ) )
 80070b2:	f7ff fadf 	bl	8006674 <SUBGRF_GetPacketType>
 80070b6:	2801      	cmp	r0, #1
 80070b8:	d007      	beq.n	80070ca <SUBGRF_GetRxBufferStatus+0x2a>
        *payloadLength = status[0];
 80070ba:	f89d 3004 	ldrb.w	r3, [sp, #4]
 80070be:	702b      	strb	r3, [r5, #0]
    *rxStartBufferPointer = status[1];
 80070c0:	f89d 3005 	ldrb.w	r3, [sp, #5]
 80070c4:	7023      	strb	r3, [r4, #0]
}
 80070c6:	b003      	add	sp, #12
 80070c8:	bd30      	pop	{r4, r5, pc}
    if( ( SUBGRF_GetPacketType( ) == PACKET_TYPE_LORA ) && ( LoRaHeaderType == LORA_PACKET_FIXED_LENGTH ) )
 80070ca:	4b05      	ldr	r3, [pc, #20]	; (80070e0 <SUBGRF_GetRxBufferStatus+0x40>)
 80070cc:	781b      	ldrb	r3, [r3, #0]
 80070ce:	b2db      	uxtb	r3, r3
 80070d0:	2b01      	cmp	r3, #1
 80070d2:	d1f2      	bne.n	80070ba <SUBGRF_GetRxBufferStatus+0x1a>
        *payloadLength = SUBGRF_ReadRegister( REG_LR_PAYLOADLENGTH );
 80070d4:	f240 7002 	movw	r0, #1794	; 0x702
 80070d8:	f7ff fae2 	bl	80066a0 <SUBGRF_ReadRegister>
 80070dc:	7028      	strb	r0, [r5, #0]
 80070de:	e7ef      	b.n	80070c0 <SUBGRF_GetRxBufferStatus+0x20>
 80070e0:	20000669 	.word	0x20000669

080070e4 <SUBGRF_GetPayload>:
{
 80070e4:	b570      	push	{r4, r5, r6, lr}
 80070e6:	b082      	sub	sp, #8
 80070e8:	4606      	mov	r6, r0
 80070ea:	460c      	mov	r4, r1
 80070ec:	4615      	mov	r5, r2
    uint8_t offset = 0;
 80070ee:	2300      	movs	r3, #0
 80070f0:	f88d 3007 	strb.w	r3, [sp, #7]
    SUBGRF_GetRxBufferStatus( size, &offset );
 80070f4:	f10d 0107 	add.w	r1, sp, #7
 80070f8:	4620      	mov	r0, r4
 80070fa:	f7ff ffd1 	bl	80070a0 <SUBGRF_GetRxBufferStatus>
    if( *size > maxSize )
 80070fe:	7822      	ldrb	r2, [r4, #0]
 8007100:	42aa      	cmp	r2, r5
 8007102:	d902      	bls.n	800710a <SUBGRF_GetPayload+0x26>
        return 1;
 8007104:	2001      	movs	r0, #1
}
 8007106:	b002      	add	sp, #8
 8007108:	bd70      	pop	{r4, r5, r6, pc}
    SUBGRF_ReadBuffer( offset, buffer, *size );
 800710a:	4631      	mov	r1, r6
 800710c:	f89d 0007 	ldrb.w	r0, [sp, #7]
 8007110:	f7ff fb6c 	bl	80067ec <SUBGRF_ReadBuffer>
    return 0;
 8007114:	2000      	movs	r0, #0
 8007116:	e7f6      	b.n	8007106 <SUBGRF_GetPayload+0x22>

08007118 <SUBGRF_GetPacketStatus>:
{
 8007118:	b510      	push	{r4, lr}
 800711a:	b082      	sub	sp, #8
 800711c:	4604      	mov	r4, r0
    SUBGRF_ReadCommand( RADIO_GET_PACKETSTATUS, status, 3 );
 800711e:	2203      	movs	r2, #3
 8007120:	a901      	add	r1, sp, #4
 8007122:	2014      	movs	r0, #20
 8007124:	f7ff ff9e 	bl	8007064 <SUBGRF_ReadCommand>
    pktStatus->packetType = SUBGRF_GetPacketType( );
 8007128:	f7ff faa4 	bl	8006674 <SUBGRF_GetPacketType>
 800712c:	7020      	strb	r0, [r4, #0]
    switch( pktStatus->packetType )
 800712e:	b148      	cbz	r0, 8007144 <SUBGRF_GetPacketStatus+0x2c>
 8007130:	2801      	cmp	r0, #1
 8007132:	d018      	beq.n	8007166 <SUBGRF_GetPacketStatus+0x4e>
            RADIO_MEMSET8( pktStatus, 0, sizeof( PacketStatus_t ) );
 8007134:	2214      	movs	r2, #20
 8007136:	2100      	movs	r1, #0
 8007138:	4620      	mov	r0, r4
 800713a:	f000 fb22 	bl	8007782 <UTIL_MEM_set_8>
            pktStatus->packetType = PACKET_TYPE_NONE;
 800713e:	230f      	movs	r3, #15
 8007140:	7023      	strb	r3, [r4, #0]
}
 8007142:	e00e      	b.n	8007162 <SUBGRF_GetPacketStatus+0x4a>
            pktStatus->Params.Gfsk.RxStatus = status[0];
 8007144:	f89d 3004 	ldrb.w	r3, [sp, #4]
 8007148:	7123      	strb	r3, [r4, #4]
            pktStatus->Params.Gfsk.RssiSync = -status[1] >> 1;
 800714a:	f89d 3005 	ldrb.w	r3, [sp, #5]
 800714e:	425b      	negs	r3, r3
 8007150:	105b      	asrs	r3, r3, #1
 8007152:	71a3      	strb	r3, [r4, #6]
            pktStatus->Params.Gfsk.RssiAvg = -status[2] >> 1;
 8007154:	f89d 3006 	ldrb.w	r3, [sp, #6]
 8007158:	425b      	negs	r3, r3
 800715a:	105b      	asrs	r3, r3, #1
 800715c:	7163      	strb	r3, [r4, #5]
            pktStatus->Params.Gfsk.FreqError = 0;
 800715e:	2300      	movs	r3, #0
 8007160:	60a3      	str	r3, [r4, #8]
}
 8007162:	b002      	add	sp, #8
 8007164:	bd10      	pop	{r4, pc}
            pktStatus->Params.LoRa.RssiPkt = -status[0] >> 1;
 8007166:	f89d 3004 	ldrb.w	r3, [sp, #4]
 800716a:	425b      	negs	r3, r3
 800716c:	105b      	asrs	r3, r3, #1
 800716e:	7323      	strb	r3, [r4, #12]
            pktStatus->Params.LoRa.SnrPkt = ( ( ( int8_t )status[1] ) + 2 ) >> 2;
 8007170:	f99d 3005 	ldrsb.w	r3, [sp, #5]
 8007174:	3302      	adds	r3, #2
 8007176:	109b      	asrs	r3, r3, #2
 8007178:	7363      	strb	r3, [r4, #13]
            pktStatus->Params.LoRa.SignalRssiPkt = -status[2] >> 1;
 800717a:	f89d 3006 	ldrb.w	r3, [sp, #6]
 800717e:	425b      	negs	r3, r3
 8007180:	105b      	asrs	r3, r3, #1
 8007182:	73a3      	strb	r3, [r4, #14]
            pktStatus->Params.LoRa.FreqError = FrequencyError;
 8007184:	4b01      	ldr	r3, [pc, #4]	; (800718c <SUBGRF_GetPacketStatus+0x74>)
 8007186:	681b      	ldr	r3, [r3, #0]
 8007188:	6123      	str	r3, [r4, #16]
            break;
 800718a:	e7ea      	b.n	8007162 <SUBGRF_GetPacketStatus+0x4a>
 800718c:	20000664 	.word	0x20000664

08007190 <SUBGRF_SetSwitch>:
{
 8007190:	b510      	push	{r4, lr}
    if (rxtx == RFSWITCH_TX)
 8007192:	2901      	cmp	r1, #1
 8007194:	d003      	beq.n	800719e <SUBGRF_SetSwitch+0xe>
    RBI_Switch_TypeDef state = RBI_SWITCH_RX;
 8007196:	2001      	movs	r0, #1
    RBI_ConfigRFSwitch(state);
 8007198:	f7fa fada 	bl	8001750 <RBI_ConfigRFSwitch>
}
 800719c:	bd10      	pop	{r4, pc}
 800719e:	4604      	mov	r4, r0
 80071a0:	4608      	mov	r0, r1
        if (paSelect == RFO_LP)
 80071a2:	2c01      	cmp	r4, #1
 80071a4:	d003      	beq.n	80071ae <SUBGRF_SetSwitch+0x1e>
        if (paSelect == RFO_HP)
 80071a6:	2c02      	cmp	r4, #2
 80071a8:	d1f6      	bne.n	8007198 <SUBGRF_SetSwitch+0x8>
            state = RBI_SWITCH_RFO_HP;
 80071aa:	2003      	movs	r0, #3
 80071ac:	e7f4      	b.n	8007198 <SUBGRF_SetSwitch+0x8>
            Radio_SMPS_Set(SMPS_DRIVE_SETTING_MAX);
 80071ae:	2004      	movs	r0, #4
 80071b0:	f7ff fa86 	bl	80066c0 <Radio_SMPS_Set>
            state = RBI_SWITCH_RFO_LP;
 80071b4:	2002      	movs	r0, #2
 80071b6:	e7f6      	b.n	80071a6 <SUBGRF_SetSwitch+0x16>

080071b8 <SUBGRF_SetRfTxPower>:
{
 80071b8:	b538      	push	{r3, r4, r5, lr}
 80071ba:	4604      	mov	r4, r0
    int32_t TxConfig = RBI_GetTxConfig();
 80071bc:	f7fa facc 	bl	8001758 <RBI_GetTxConfig>
    switch (TxConfig)
 80071c0:	b148      	cbz	r0, 80071d6 <SUBGRF_SetRfTxPower+0x1e>
 80071c2:	2802      	cmp	r0, #2
 80071c4:	d10d      	bne.n	80071e2 <SUBGRF_SetRfTxPower+0x2a>
            paSelect = RFO_HP;
 80071c6:	2502      	movs	r5, #2
    SUBGRF_SetTxParams( paSelect, power, RADIO_RAMP_40_US );
 80071c8:	2202      	movs	r2, #2
 80071ca:	4621      	mov	r1, r4
 80071cc:	4628      	mov	r0, r5
 80071ce:	f7ff fdb3 	bl	8006d38 <SUBGRF_SetTxParams>
}
 80071d2:	4628      	mov	r0, r5
 80071d4:	bd38      	pop	{r3, r4, r5, pc}
            if (power > 15)
 80071d6:	2c0f      	cmp	r4, #15
 80071d8:	dc01      	bgt.n	80071de <SUBGRF_SetRfTxPower+0x26>
                paSelect = RFO_LP;
 80071da:	2501      	movs	r5, #1
 80071dc:	e7f4      	b.n	80071c8 <SUBGRF_SetRfTxPower+0x10>
                paSelect = RFO_HP;
 80071de:	2502      	movs	r5, #2
 80071e0:	e7f2      	b.n	80071c8 <SUBGRF_SetRfTxPower+0x10>
    switch (TxConfig)
 80071e2:	2501      	movs	r5, #1
 80071e4:	e7f0      	b.n	80071c8 <SUBGRF_SetRfTxPower+0x10>

080071e6 <SUBGRF_GetRadioWakeUpTime>:
}
 80071e6:	2001      	movs	r0, #1
 80071e8:	4770      	bx	lr
	...

080071ec <HAL_SUBGHZ_TxCpltCallback>:
{
 80071ec:	b508      	push	{r3, lr}
    RadioOnDioIrqCb( IRQ_TX_DONE );
 80071ee:	4b02      	ldr	r3, [pc, #8]	; (80071f8 <HAL_SUBGHZ_TxCpltCallback+0xc>)
 80071f0:	681b      	ldr	r3, [r3, #0]
 80071f2:	2001      	movs	r0, #1
 80071f4:	4798      	blx	r3
}
 80071f6:	bd08      	pop	{r3, pc}
 80071f8:	2000066c 	.word	0x2000066c

080071fc <HAL_SUBGHZ_RxCpltCallback>:
{
 80071fc:	b508      	push	{r3, lr}
    RadioOnDioIrqCb( IRQ_RX_DONE );
 80071fe:	4b02      	ldr	r3, [pc, #8]	; (8007208 <HAL_SUBGHZ_RxCpltCallback+0xc>)
 8007200:	681b      	ldr	r3, [r3, #0]
 8007202:	2002      	movs	r0, #2
 8007204:	4798      	blx	r3
}
 8007206:	bd08      	pop	{r3, pc}
 8007208:	2000066c 	.word	0x2000066c

0800720c <HAL_SUBGHZ_CRCErrorCallback>:
{
 800720c:	b508      	push	{r3, lr}
    RadioOnDioIrqCb( IRQ_CRC_ERROR);
 800720e:	4b02      	ldr	r3, [pc, #8]	; (8007218 <HAL_SUBGHZ_CRCErrorCallback+0xc>)
 8007210:	681b      	ldr	r3, [r3, #0]
 8007212:	2040      	movs	r0, #64	; 0x40
 8007214:	4798      	blx	r3
}
 8007216:	bd08      	pop	{r3, pc}
 8007218:	2000066c 	.word	0x2000066c

0800721c <HAL_SUBGHZ_CADStatusCallback>:
{
 800721c:	b508      	push	{r3, lr}
    switch (cadstatus)
 800721e:	b111      	cbz	r1, 8007226 <HAL_SUBGHZ_CADStatusCallback+0xa>
 8007220:	2901      	cmp	r1, #1
 8007222:	d005      	beq.n	8007230 <HAL_SUBGHZ_CADStatusCallback+0x14>
}
 8007224:	bd08      	pop	{r3, pc}
            RadioOnDioIrqCb( IRQ_CAD_CLEAR);
 8007226:	4b05      	ldr	r3, [pc, #20]	; (800723c <HAL_SUBGHZ_CADStatusCallback+0x20>)
 8007228:	681b      	ldr	r3, [r3, #0]
 800722a:	2080      	movs	r0, #128	; 0x80
 800722c:	4798      	blx	r3
            break;
 800722e:	e7f9      	b.n	8007224 <HAL_SUBGHZ_CADStatusCallback+0x8>
            RadioOnDioIrqCb( IRQ_CAD_DETECTED);
 8007230:	4b02      	ldr	r3, [pc, #8]	; (800723c <HAL_SUBGHZ_CADStatusCallback+0x20>)
 8007232:	681b      	ldr	r3, [r3, #0]
 8007234:	f44f 7080 	mov.w	r0, #256	; 0x100
 8007238:	4798      	blx	r3
}
 800723a:	e7f3      	b.n	8007224 <HAL_SUBGHZ_CADStatusCallback+0x8>
 800723c:	2000066c 	.word	0x2000066c

08007240 <HAL_SUBGHZ_RxTxTimeoutCallback>:
{
 8007240:	b508      	push	{r3, lr}
    RadioOnDioIrqCb( IRQ_RX_TX_TIMEOUT );
 8007242:	4b03      	ldr	r3, [pc, #12]	; (8007250 <HAL_SUBGHZ_RxTxTimeoutCallback+0x10>)
 8007244:	681b      	ldr	r3, [r3, #0]
 8007246:	f44f 7000 	mov.w	r0, #512	; 0x200
 800724a:	4798      	blx	r3
}
 800724c:	bd08      	pop	{r3, pc}
 800724e:	bf00      	nop
 8007250:	2000066c 	.word	0x2000066c

08007254 <HAL_SUBGHZ_HeaderErrorCallback>:
{
 8007254:	b508      	push	{r3, lr}
    RadioOnDioIrqCb( IRQ_HEADER_ERROR );
 8007256:	4b02      	ldr	r3, [pc, #8]	; (8007260 <HAL_SUBGHZ_HeaderErrorCallback+0xc>)
 8007258:	681b      	ldr	r3, [r3, #0]
 800725a:	2020      	movs	r0, #32
 800725c:	4798      	blx	r3
}
 800725e:	bd08      	pop	{r3, pc}
 8007260:	2000066c 	.word	0x2000066c

08007264 <HAL_SUBGHZ_PreambleDetectedCallback>:
{
 8007264:	b508      	push	{r3, lr}
    RadioOnDioIrqCb( IRQ_PREAMBLE_DETECTED );
 8007266:	4b02      	ldr	r3, [pc, #8]	; (8007270 <HAL_SUBGHZ_PreambleDetectedCallback+0xc>)
 8007268:	681b      	ldr	r3, [r3, #0]
 800726a:	2004      	movs	r0, #4
 800726c:	4798      	blx	r3
}
 800726e:	bd08      	pop	{r3, pc}
 8007270:	2000066c 	.word	0x2000066c

08007274 <HAL_SUBGHZ_SyncWordValidCallback>:
{
 8007274:	b508      	push	{r3, lr}
    RadioOnDioIrqCb( IRQ_SYNCWORD_VALID );
 8007276:	4b02      	ldr	r3, [pc, #8]	; (8007280 <HAL_SUBGHZ_SyncWordValidCallback+0xc>)
 8007278:	681b      	ldr	r3, [r3, #0]
 800727a:	2008      	movs	r0, #8
 800727c:	4798      	blx	r3
}
 800727e:	bd08      	pop	{r3, pc}
 8007280:	2000066c 	.word	0x2000066c

08007284 <HAL_SUBGHZ_HeaderValidCallback>:
{
 8007284:	b508      	push	{r3, lr}
    RadioOnDioIrqCb( IRQ_HEADER_VALID );
 8007286:	4b02      	ldr	r3, [pc, #8]	; (8007290 <HAL_SUBGHZ_HeaderValidCallback+0xc>)
 8007288:	681b      	ldr	r3, [r3, #0]
 800728a:	2010      	movs	r0, #16
 800728c:	4798      	blx	r3
}
 800728e:	bd08      	pop	{r3, pc}
 8007290:	2000066c 	.word	0x2000066c

08007294 <HAL_SUBGHZ_LrFhssHopCallback>:
{
 8007294:	b508      	push	{r3, lr}
    RadioOnDioIrqCb( IRQ_LR_FHSS_HOP );
 8007296:	4b03      	ldr	r3, [pc, #12]	; (80072a4 <HAL_SUBGHZ_LrFhssHopCallback+0x10>)
 8007298:	681b      	ldr	r3, [r3, #0]
 800729a:	f44f 4080 	mov.w	r0, #16384	; 0x4000
 800729e:	4798      	blx	r3
}
 80072a0:	bd08      	pop	{r3, pc}
 80072a2:	bf00      	nop
 80072a4:	2000066c 	.word	0x2000066c

080072a8 <SUBGRF_GetFskBandwidthRegValue>:

uint8_t SUBGRF_GetFskBandwidthRegValue( uint32_t bandwidth )
{
    uint8_t i;

    if( bandwidth == 0 )
 80072a8:	4601      	mov	r1, r0
 80072aa:	b188      	cbz	r0, 80072d0 <SUBGRF_GetFskBandwidthRegValue+0x28>
    {
        return( 0x1F );
    }

    for( i = 0; i < ( sizeof( FskBandwidths ) / sizeof( FskBandwidth_t ) ); i++ )
 80072ac:	2300      	movs	r3, #0
 80072ae:	2b15      	cmp	r3, #21
 80072b0:	d80d      	bhi.n	80072ce <SUBGRF_GetFskBandwidthRegValue+0x26>
    {
        if ( bandwidth < FskBandwidths[i].bandwidth )
 80072b2:	4618      	mov	r0, r3
 80072b4:	4a07      	ldr	r2, [pc, #28]	; (80072d4 <SUBGRF_GetFskBandwidthRegValue+0x2c>)
 80072b6:	f852 2033 	ldr.w	r2, [r2, r3, lsl #3]
 80072ba:	428a      	cmp	r2, r1
 80072bc:	d802      	bhi.n	80072c4 <SUBGRF_GetFskBandwidthRegValue+0x1c>
    for( i = 0; i < ( sizeof( FskBandwidths ) / sizeof( FskBandwidth_t ) ); i++ )
 80072be:	3301      	adds	r3, #1
 80072c0:	b2db      	uxtb	r3, r3
 80072c2:	e7f4      	b.n	80072ae <SUBGRF_GetFskBandwidthRegValue+0x6>
        {
            return FskBandwidths[i].RegValue;
 80072c4:	4b03      	ldr	r3, [pc, #12]	; (80072d4 <SUBGRF_GetFskBandwidthRegValue+0x2c>)
 80072c6:	eb03 03c0 	add.w	r3, r3, r0, lsl #3
 80072ca:	7918      	ldrb	r0, [r3, #4]
 80072cc:	4770      	bx	lr
        }
    }
    // ERROR: Value not found
    while( 1 );
 80072ce:	e7fe      	b.n	80072ce <SUBGRF_GetFskBandwidthRegValue+0x26>
        return( 0x1F );
 80072d0:	201f      	movs	r0, #31
}
 80072d2:	4770      	bx	lr
 80072d4:	08009788 	.word	0x08009788

080072d8 <SUBGRF_GetCFO>:
void SUBGRF_GetCFO( uint32_t bitRate, int32_t *cfo)
{
 80072d8:	b570      	push	{r4, r5, r6, lr}
 80072da:	b082      	sub	sp, #8
 80072dc:	4605      	mov	r5, r0
 80072de:	460c      	mov	r4, r1
  uint8_t BwMant[] = {4, 8, 10, 12};
 80072e0:	4b1d      	ldr	r3, [pc, #116]	; (8007358 <SUBGRF_GetCFO+0x80>)
 80072e2:	9301      	str	r3, [sp, #4]
  /* read demod bandwidth: mant bit4:3, exp bits 2:0 */
  uint8_t reg = (SUBGRF_ReadRegister( SUBGHZ_BWSELR ));
 80072e4:	f640 0007 	movw	r0, #2055	; 0x807
 80072e8:	f7ff f9da 	bl	80066a0 <SUBGRF_ReadRegister>
  uint8_t bandwidth_mant = BwMant[( reg >> 3 ) & 0x3];
 80072ec:	f3c0 03c1 	ubfx	r3, r0, #3, #2
 80072f0:	3308      	adds	r3, #8
 80072f2:	446b      	add	r3, sp
 80072f4:	f813 2c04 	ldrb.w	r2, [r3, #-4]
  uint8_t bandwidth_exp = reg & 0x7;
 80072f8:	f000 0307 	and.w	r3, r0, #7
  uint32_t cf_fs = XTAL_FREQ / ( bandwidth_mant * ( 1 << ( bandwidth_exp + 1 )));
 80072fc:	3301      	adds	r3, #1
 80072fe:	fa02 f303 	lsl.w	r3, r2, r3
 8007302:	4a16      	ldr	r2, [pc, #88]	; (800735c <SUBGRF_GetCFO+0x84>)
 8007304:	fbb2 f2f3 	udiv	r2, r2, r3
  uint32_t cf_osr = cf_fs / bitRate;
 8007308:	fbb2 f0f5 	udiv	r0, r2, r5
  uint8_t interp = 1;
  /* calculate demod interpolation factor */
  if (cf_osr * interp < 8)
 800730c:	2807      	cmp	r0, #7
 800730e:	d921      	bls.n	8007354 <SUBGRF_GetCFO+0x7c>
  uint8_t interp = 1;
 8007310:	2301      	movs	r3, #1
  {
    interp = 2;
  }
  if (cf_osr * interp < 4)
 8007312:	fb03 f000 	mul.w	r0, r3, r0
 8007316:	2803      	cmp	r0, #3
 8007318:	d800      	bhi.n	800731c <SUBGRF_GetCFO+0x44>
  {
    interp = 4;
 800731a:	2304      	movs	r3, #4
  }
  /* calculate demod sampling frequency */
  uint32_t fs = cf_fs* interp;
 800731c:	fb02 f503 	mul.w	r5, r2, r3
  /* get the cfo registers */
  int32_t cfo_bin = ( SUBGRF_ReadRegister( SUBGHZ_GCFORH ) & 0xF ) << 8;
 8007320:	f44f 60d6 	mov.w	r0, #1712	; 0x6b0
 8007324:	f7ff f9bc 	bl	80066a0 <SUBGRF_ReadRegister>
 8007328:	0206      	lsls	r6, r0, #8
 800732a:	f406 6670 	and.w	r6, r6, #3840	; 0xf00
  cfo_bin |= SUBGRF_ReadRegister( SUBGHZ_GCFORL );
 800732e:	f240 60b1 	movw	r0, #1713	; 0x6b1
 8007332:	f7ff f9b5 	bl	80066a0 <SUBGRF_ReadRegister>
 8007336:	4330      	orrs	r0, r6
  /* negate if 12 bits sign bit is 1 */
  if (( cfo_bin & 0x800 ) == 0x800 )
 8007338:	f410 6f00 	tst.w	r0, #2048	; 0x800
 800733c:	d003      	beq.n	8007346 <SUBGRF_GetCFO+0x6e>
  {
    cfo_bin |= 0xFFFFF000;
 800733e:	ea6f 5000 	mvn.w	r0, r0, lsl #20
 8007342:	ea6f 5010 	mvn.w	r0, r0, lsr #20
  }
  /* calculate cfo in Hz */
  /* shift by 5 first to not saturate, cfo_bin on 12bits */
  *cfo = ((int32_t)( cfo_bin * ( fs >> 5 ))) >> ( 12 - 5 );
 8007346:	096b      	lsrs	r3, r5, #5
 8007348:	fb03 f000 	mul.w	r0, r3, r0
 800734c:	11c0      	asrs	r0, r0, #7
 800734e:	6020      	str	r0, [r4, #0]
}
 8007350:	b002      	add	sp, #8
 8007352:	bd70      	pop	{r4, r5, r6, pc}
    interp = 2;
 8007354:	2302      	movs	r3, #2
 8007356:	e7dc      	b.n	8007312 <SUBGRF_GetCFO+0x3a>
 8007358:	0c0a0804 	.word	0x0c0a0804
 800735c:	01e84800 	.word	0x01e84800

08007360 <RFW_TransmitLongPacket>:
    }
#else
    status = -1;
#endif /* RFW_LONGPACKET_ENABLE == 1 */
    return status;
}
 8007360:	f04f 30ff 	mov.w	r0, #4294967295
 8007364:	4770      	bx	lr

08007366 <RFW_ReceiveLongPacket>:
    }
#else
    status = -1;
#endif /* RFW_LONGPACKET_ENABLE == 1 */
    return status;
}
 8007366:	f04f 30ff 	mov.w	r0, #4294967295
 800736a:	4770      	bx	lr

0800736c <RFW_Init>:
    TimerInit( &RFWPacket.Timer, RFW_GetPayloadTimerEvent );
    return 0;
#else
    return -1;
#endif /* RFW_ENABLE == 1 */
}
 800736c:	f04f 30ff 	mov.w	r0, #4294967295
 8007370:	4770      	bx	lr

08007372 <RFW_DeInit>:
void RFW_DeInit( void )
{
#if (RFW_ENABLE == 1 )
    RFWPacket.Init.Enable = 0; /*Disable the RFWPacket decoding*/
#endif /* RFW_ENABLE == 1 */
}
 8007372:	4770      	bx	lr

08007374 <RFW_Is_Init>:
#if (RFW_ENABLE == 1 )
    return RFWPacket.Init.Enable;
#else
    return 0;
#endif /* RFW_ENABLE == 1 */
}
 8007374:	2000      	movs	r0, #0
 8007376:	4770      	bx	lr

08007378 <RFW_Is_LongPacketModeEnabled>:
#if (RFW_ENABLE == 1 )
    return RFWPacket.LongPacketModeEnable;
#else
    return 0;
#endif /* RFW_ENABLE == 1 */
}
 8007378:	2000      	movs	r0, #0
 800737a:	4770      	bx	lr

0800737c <RFW_SetAntSwitch>:
void RFW_SetAntSwitch( uint8_t AntSwitch )
{
#if (RFW_ENABLE == 1 )
    RFWPacket.AntSwitchPaSelect = AntSwitch;
#endif /* RFW_ENABLE == 1 */
}
 800737c:	4770      	bx	lr

0800737e <RFW_TransmitInit>:

        status = 0;
    }
#endif /* RFW_ENABLE == 1 */
    return status;
}
 800737e:	f04f 30ff 	mov.w	r0, #4294967295
 8007382:	4770      	bx	lr

08007384 <RFW_ReceiveInit>:
    RFWPacket.LongPacketModeEnable = 0;
    return 0;
#else
    return -1;
#endif /* RFW_ENABLE == 1 */
}
 8007384:	f04f 30ff 	mov.w	r0, #4294967295
 8007388:	4770      	bx	lr

0800738a <RFW_DeInit_TxLongPacket>:
    /*long packet WA*/
    uint8_t reg = SUBGRF_ReadRegister( SUBGHZ_GPKTCTL1AR );
    SUBGRF_WriteRegister( SUBGHZ_GPKTCTL1AR, reg & ~0x02 ); /* clear infinite_sequence bit */
    SUBGRF_WriteRegister( SUBGHZ_GRTXPLDLEN, 0xFF ); /* RxTxPldLen: reset to 0xFF */
#endif /* RFW_LONGPACKET_ENABLE == 1 */
}
 800738a:	4770      	bx	lr

0800738c <RFW_ReceivePayload>:
        /*timeout*/
        SUBGRF_SetStandby( STDBY_RC );
        RFWPacket.Init.RadioEvents->RxTimeout( );
    }
#endif /* RFW_ENABLE == 1 */
}
 800738c:	4770      	bx	lr

0800738e <RFW_SetRadioModem>:
void RFW_SetRadioModem( RadioModems_t Modem )
{
#if (RFW_ENABLE == 1 )
    RFWPacket.Init.Modem = Modem;
#endif /* RFW_ENABLE == 1 */
}
 800738e:	4770      	bx	lr

08007390 <TRACE_AllocateBufer>:
 * @param  Size to allocate within fifo
 * @param  Pos position within the fifo
 * @retval write position inside the buffer is -1 no space available.
 */
static int16_t TRACE_AllocateBufer(uint16_t Size, uint16_t *Pos)
{
 8007390:	b510      	push	{r4, lr}
  __ASM volatile ("MRS %0, primask" : "=r" (result) :: "memory");
 8007392:	f3ef 8c10 	mrs	ip, PRIMASK
  __ASM volatile ("cpsid i" : : : "memory");
 8007396:	b672      	cpsid	i
  uint16_t freesize;
  int16_t ret = -1;

  UTIL_ADV_TRACE_ENTER_CRITICAL_SECTION();

  if(ADV_TRACE_Ctx.TraceWrPtr == ADV_TRACE_Ctx.TraceRdPtr)
 8007398:	4b1e      	ldr	r3, [pc, #120]	; (8007414 <TRACE_AllocateBufer+0x84>)
 800739a:	f8b3 e012 	ldrh.w	lr, [r3, #18]
 800739e:	8a1a      	ldrh	r2, [r3, #16]
 80073a0:	4596      	cmp	lr, r2
 80073a2:	d011      	beq.n	80073c8 <TRACE_AllocateBufer+0x38>
#endif
  }
  else
  {
#ifdef UTIL_ADV_TRACE_UNCHUNK_MODE
    if (ADV_TRACE_Ctx.TraceWrPtr > ADV_TRACE_Ctx.TraceRdPtr)
 80073a4:	4596      	cmp	lr, r2
 80073a6:	d921      	bls.n	80073ec <TRACE_AllocateBufer+0x5c>
    {
      freesize = (uint16_t)(UTIL_ADV_TRACE_FIFO_SIZE - ADV_TRACE_Ctx.TraceWrPtr);
 80073a8:	f5ce 7300 	rsb	r3, lr, #512	; 0x200
 80073ac:	b29b      	uxth	r3, r3
      if((Size >= freesize) && (ADV_TRACE_Ctx.TraceRdPtr > Size)) 
 80073ae:	4283      	cmp	r3, r0
 80073b0:	d81f      	bhi.n	80073f2 <TRACE_AllocateBufer+0x62>
 80073b2:	4282      	cmp	r2, r0
 80073b4:	d91d      	bls.n	80073f2 <TRACE_AllocateBufer+0x62>
      {
        ADV_TRACE_Ctx.unchunk_status = TRACE_UNCHUNK_DETECTED;
 80073b6:	4b17      	ldr	r3, [pc, #92]	; (8007414 <TRACE_AllocateBufer+0x84>)
 80073b8:	2401      	movs	r4, #1
 80073ba:	709c      	strb	r4, [r3, #2]
        ADV_TRACE_Ctx.unchunk_enabled = ADV_TRACE_Ctx.TraceWrPtr;
 80073bc:	f8a3 e000 	strh.w	lr, [r3]
        freesize = ADV_TRACE_Ctx.TraceRdPtr;
        ADV_TRACE_Ctx.TraceWrPtr = 0;
 80073c0:	2400      	movs	r4, #0
 80073c2:	825c      	strh	r4, [r3, #18]
        freesize = ADV_TRACE_Ctx.TraceRdPtr;
 80073c4:	4613      	mov	r3, r2
 80073c6:	e014      	b.n	80073f2 <TRACE_AllocateBufer+0x62>
    freesize = (uint16_t)(UTIL_ADV_TRACE_FIFO_SIZE - ADV_TRACE_Ctx.TraceWrPtr);
 80073c8:	f5ce 7300 	rsb	r3, lr, #512	; 0x200
 80073cc:	b29b      	uxth	r3, r3
    if((Size >= freesize) && (ADV_TRACE_Ctx.TraceRdPtr > Size))
 80073ce:	4298      	cmp	r0, r3
 80073d0:	d30f      	bcc.n	80073f2 <TRACE_AllocateBufer+0x62>
 80073d2:	4282      	cmp	r2, r0
 80073d4:	d90d      	bls.n	80073f2 <TRACE_AllocateBufer+0x62>
      ADV_TRACE_Ctx.unchunk_status = TRACE_UNCHUNK_DETECTED;
 80073d6:	4b0f      	ldr	r3, [pc, #60]	; (8007414 <TRACE_AllocateBufer+0x84>)
 80073d8:	2401      	movs	r4, #1
 80073da:	709c      	strb	r4, [r3, #2]
      ADV_TRACE_Ctx.unchunk_enabled = ADV_TRACE_Ctx.TraceWrPtr;
 80073dc:	f8a3 e000 	strh.w	lr, [r3]
      ADV_TRACE_Ctx.TraceWrPtr = 0;
 80073e0:	f04f 0e00 	mov.w	lr, #0
 80073e4:	f8a3 e012 	strh.w	lr, [r3, #18]
      freesize = ADV_TRACE_Ctx.TraceRdPtr;
 80073e8:	4613      	mov	r3, r2
 80073ea:	e002      	b.n	80073f2 <TRACE_AllocateBufer+0x62>
      }
    }
    else
    {
      freesize = (uint16_t)(ADV_TRACE_Ctx.TraceRdPtr - ADV_TRACE_Ctx.TraceWrPtr);
 80073ec:	eba2 020e 	sub.w	r2, r2, lr
 80073f0:	b293      	uxth	r3, r2
      freesize = ADV_TRACE_Ctx.TraceRdPtr - ADV_TRACE_Ctx.TraceWrPtr;
    }
#endif
  }

  if(freesize > Size)
 80073f2:	4283      	cmp	r3, r0
 80073f4:	d90a      	bls.n	800740c <TRACE_AllocateBufer+0x7c>
  {
    *Pos = ADV_TRACE_Ctx.TraceWrPtr;
 80073f6:	4a07      	ldr	r2, [pc, #28]	; (8007414 <TRACE_AllocateBufer+0x84>)
 80073f8:	8a53      	ldrh	r3, [r2, #18]
 80073fa:	800b      	strh	r3, [r1, #0]
    ADV_TRACE_Ctx.TraceWrPtr = (ADV_TRACE_Ctx.TraceWrPtr + Size) % UTIL_ADV_TRACE_FIFO_SIZE;
 80073fc:	4403      	add	r3, r0
 80073fe:	f3c3 0308 	ubfx	r3, r3, #0, #9
 8007402:	8253      	strh	r3, [r2, #18]
    ret = 0;
 8007404:	2000      	movs	r0, #0
  __ASM volatile ("MSR primask, %0" : : "r" (priMask) : "memory");
 8007406:	f38c 8810 	msr	PRIMASK, ip
  }
#endif

  UTIL_ADV_TRACE_EXIT_CRITICAL_SECTION();
  return ret;
}
 800740a:	bd10      	pop	{r4, pc}
  int16_t ret = -1;
 800740c:	f04f 30ff 	mov.w	r0, #4294967295
 8007410:	e7f9      	b.n	8007406 <TRACE_AllocateBufer+0x76>
 8007412:	bf00      	nop
 8007414:	20000870 	.word	0x20000870

08007418 <TRACE_Lock>:
  __ASM volatile ("MRS %0, primask" : "=r" (result) :: "memory");
 8007418:	f3ef 8110 	mrs	r1, PRIMASK
  __ASM volatile ("cpsid i" : : : "memory");
 800741c:	b672      	cpsid	i
 * @retval None.
 */
static void TRACE_Lock(void)
{
  UTIL_ADV_TRACE_ENTER_CRITICAL_SECTION();
  ADV_TRACE_Ctx.TraceLock++;
 800741e:	4a03      	ldr	r2, [pc, #12]	; (800742c <TRACE_Lock+0x14>)
 8007420:	8ad3      	ldrh	r3, [r2, #22]
 8007422:	3301      	adds	r3, #1
 8007424:	82d3      	strh	r3, [r2, #22]
  __ASM volatile ("MSR primask, %0" : : "r" (priMask) : "memory");
 8007426:	f381 8810 	msr	PRIMASK, r1
  UTIL_ADV_TRACE_EXIT_CRITICAL_SECTION();
}
 800742a:	4770      	bx	lr
 800742c:	20000870 	.word	0x20000870

08007430 <TRACE_UnLock>:
  __ASM volatile ("MRS %0, primask" : "=r" (result) :: "memory");
 8007430:	f3ef 8110 	mrs	r1, PRIMASK
  __ASM volatile ("cpsid i" : : : "memory");
 8007434:	b672      	cpsid	i
 * @retval None.
 */
static void TRACE_UnLock(void)
{
  UTIL_ADV_TRACE_ENTER_CRITICAL_SECTION();
  ADV_TRACE_Ctx.TraceLock--;
 8007436:	4a03      	ldr	r2, [pc, #12]	; (8007444 <TRACE_UnLock+0x14>)
 8007438:	8ad3      	ldrh	r3, [r2, #22]
 800743a:	3b01      	subs	r3, #1
 800743c:	82d3      	strh	r3, [r2, #22]
  __ASM volatile ("MSR primask, %0" : : "r" (priMask) : "memory");
 800743e:	f381 8810 	msr	PRIMASK, r1
  UTIL_ADV_TRACE_EXIT_CRITICAL_SECTION();
}
 8007442:	4770      	bx	lr
 8007444:	20000870 	.word	0x20000870

08007448 <TRACE_IsLocked>:
 * @brief  UnLock the trace buffer.
 * @retval None.
 */
static uint32_t TRACE_IsLocked(void)
{
  return (ADV_TRACE_Ctx.TraceLock == 0u? 0u: 1u);
 8007448:	4b02      	ldr	r3, [pc, #8]	; (8007454 <TRACE_IsLocked+0xc>)
 800744a:	8ad8      	ldrh	r0, [r3, #22]
}
 800744c:	3800      	subs	r0, #0
 800744e:	bf18      	it	ne
 8007450:	2001      	movne	r0, #1
 8007452:	4770      	bx	lr
 8007454:	20000870 	.word	0x20000870

08007458 <UTIL_ADV_TRACE_Init>:
{
 8007458:	b508      	push	{r3, lr}
  (void)UTIL_ADV_TRACE_MEMSET8(&ADV_TRACE_Ctx, 0x0, sizeof(ADV_TRACE_Context));
 800745a:	2218      	movs	r2, #24
 800745c:	2100      	movs	r1, #0
 800745e:	4807      	ldr	r0, [pc, #28]	; (800747c <UTIL_ADV_TRACE_Init+0x24>)
 8007460:	f000 f98f 	bl	8007782 <UTIL_MEM_set_8>
  (void)UTIL_ADV_TRACE_MEMSET8(&ADV_TRACE_Buffer, 0x0, sizeof(ADV_TRACE_Buffer));
 8007464:	f44f 7200 	mov.w	r2, #512	; 0x200
 8007468:	2100      	movs	r1, #0
 800746a:	4805      	ldr	r0, [pc, #20]	; (8007480 <UTIL_ADV_TRACE_Init+0x28>)
 800746c:	f000 f989 	bl	8007782 <UTIL_MEM_set_8>
  return UTIL_TraceDriver.Init(TRACE_TxCpltCallback);
 8007470:	4b04      	ldr	r3, [pc, #16]	; (8007484 <UTIL_ADV_TRACE_Init+0x2c>)
 8007472:	681b      	ldr	r3, [r3, #0]
 8007474:	4804      	ldr	r0, [pc, #16]	; (8007488 <UTIL_ADV_TRACE_Init+0x30>)
 8007476:	4798      	blx	r3
}
 8007478:	bd08      	pop	{r3, pc}
 800747a:	bf00      	nop
 800747c:	20000870 	.word	0x20000870
 8007480:	20000670 	.word	0x20000670
 8007484:	080093cc 	.word	0x080093cc
 8007488:	08007609 	.word	0x08007609

0800748c <UTIL_ADV_TRACE_RegisterTimeStampFunction>:
  ADV_TRACE_Ctx.timestamp_func = *cb;
 800748c:	4b01      	ldr	r3, [pc, #4]	; (8007494 <UTIL_ADV_TRACE_RegisterTimeStampFunction+0x8>)
 800748e:	6058      	str	r0, [r3, #4]
}
 8007490:	4770      	bx	lr
 8007492:	bf00      	nop
 8007494:	20000870 	.word	0x20000870

08007498 <UTIL_ADV_TRACE_SetVerboseLevel>:
  ADV_TRACE_Ctx.CurrentVerboseLevel = Level;
 8007498:	4b01      	ldr	r3, [pc, #4]	; (80074a0 <UTIL_ADV_TRACE_SetVerboseLevel+0x8>)
 800749a:	7218      	strb	r0, [r3, #8]
}
 800749c:	4770      	bx	lr
 800749e:	bf00      	nop
 80074a0:	20000870 	.word	0x20000870

080074a4 <TRACE_Send>:
{
 80074a4:	b570      	push	{r4, r5, r6, lr}
  __ASM volatile ("MRS %0, primask" : "=r" (result) :: "memory");
 80074a6:	f3ef 8310 	mrs	r3, PRIMASK
 80074aa:	461c      	mov	r4, r3
  __ASM volatile ("cpsid i" : : : "memory");
 80074ac:	b672      	cpsid	i
  if(TRACE_IsLocked() == 0u)
 80074ae:	f7ff ffcb 	bl	8007448 <TRACE_IsLocked>
 80074b2:	b118      	cbz	r0, 80074bc <TRACE_Send+0x18>
  __ASM volatile ("MSR primask, %0" : : "r" (priMask) : "memory");
 80074b4:	f384 8810 	msr	PRIMASK, r4
  UTIL_ADV_TRACE_Status_t ret = UTIL_ADV_TRACE_OK;
 80074b8:	2000      	movs	r0, #0
}
 80074ba:	bd70      	pop	{r4, r5, r6, pc}
    TRACE_Lock();
 80074bc:	f7ff ffac 	bl	8007418 <TRACE_Lock>
    if(ADV_TRACE_Ctx.TraceRdPtr != ADV_TRACE_Ctx.TraceWrPtr)
 80074c0:	4b1c      	ldr	r3, [pc, #112]	; (8007534 <TRACE_Send+0x90>)
 80074c2:	8a1a      	ldrh	r2, [r3, #16]
 80074c4:	8a5b      	ldrh	r3, [r3, #18]
 80074c6:	429a      	cmp	r2, r3
 80074c8:	d02e      	beq.n	8007528 <TRACE_Send+0x84>
      if(TRACE_UNCHUNK_DETECTED == ADV_TRACE_Ctx.unchunk_status)
 80074ca:	491a      	ldr	r1, [pc, #104]	; (8007534 <TRACE_Send+0x90>)
 80074cc:	7889      	ldrb	r1, [r1, #2]
 80074ce:	2901      	cmp	r1, #1
 80074d0:	d017      	beq.n	8007502 <TRACE_Send+0x5e>
      if(TRACE_UNCHUNK_NONE == ADV_TRACE_Ctx.unchunk_status)
 80074d2:	4a18      	ldr	r2, [pc, #96]	; (8007534 <TRACE_Send+0x90>)
 80074d4:	7892      	ldrb	r2, [r2, #2]
 80074d6:	b932      	cbnz	r2, 80074e6 <TRACE_Send+0x42>
        if(ADV_TRACE_Ctx.TraceWrPtr > ADV_TRACE_Ctx.TraceRdPtr)
 80074d8:	4a16      	ldr	r2, [pc, #88]	; (8007534 <TRACE_Send+0x90>)
 80074da:	8a12      	ldrh	r2, [r2, #16]
 80074dc:	4293      	cmp	r3, r2
 80074de:	d91e      	bls.n	800751e <TRACE_Send+0x7a>
          ADV_TRACE_Ctx.TraceSentSize = ADV_TRACE_Ctx.TraceWrPtr - ADV_TRACE_Ctx.TraceRdPtr;
 80074e0:	1a9b      	subs	r3, r3, r2
 80074e2:	4a14      	ldr	r2, [pc, #80]	; (8007534 <TRACE_Send+0x90>)
 80074e4:	8293      	strh	r3, [r2, #20]
      ptr = &ADV_TRACE_Buffer[ADV_TRACE_Ctx.TraceRdPtr];
 80074e6:	4e13      	ldr	r6, [pc, #76]	; (8007534 <TRACE_Send+0x90>)
 80074e8:	8a33      	ldrh	r3, [r6, #16]
 80074ea:	4d13      	ldr	r5, [pc, #76]	; (8007538 <TRACE_Send+0x94>)
 80074ec:	441d      	add	r5, r3
 80074ee:	f384 8810 	msr	PRIMASK, r4
      UTIL_ADV_TRACE_PreSendHook();
 80074f2:	f7f9 fa45 	bl	8000980 <UTIL_ADV_TRACE_PreSendHook>
      ret = UTIL_TraceDriver.Send(ptr, ADV_TRACE_Ctx.TraceSentSize);
 80074f6:	4b11      	ldr	r3, [pc, #68]	; (800753c <TRACE_Send+0x98>)
 80074f8:	68db      	ldr	r3, [r3, #12]
 80074fa:	8ab1      	ldrh	r1, [r6, #20]
 80074fc:	4628      	mov	r0, r5
 80074fe:	4798      	blx	r3
 8007500:	e7db      	b.n	80074ba <TRACE_Send+0x16>
        ADV_TRACE_Ctx.TraceSentSize = (uint16_t) (ADV_TRACE_Ctx.unchunk_enabled - ADV_TRACE_Ctx.TraceRdPtr);
 8007502:	480c      	ldr	r0, [pc, #48]	; (8007534 <TRACE_Send+0x90>)
 8007504:	8801      	ldrh	r1, [r0, #0]
 8007506:	1a8a      	subs	r2, r1, r2
 8007508:	b292      	uxth	r2, r2
 800750a:	8282      	strh	r2, [r0, #20]
        ADV_TRACE_Ctx.unchunk_status = TRACE_UNCHUNK_TRANSFER;
 800750c:	2102      	movs	r1, #2
 800750e:	7081      	strb	r1, [r0, #2]
        ADV_TRACE_Ctx.unchunk_enabled = 0;
 8007510:	2100      	movs	r1, #0
 8007512:	8001      	strh	r1, [r0, #0]
        if(0u == ADV_TRACE_Ctx.TraceSentSize)
 8007514:	2a00      	cmp	r2, #0
 8007516:	d1dc      	bne.n	80074d2 <TRACE_Send+0x2e>
          ADV_TRACE_Ctx.unchunk_status = TRACE_UNCHUNK_NONE;
 8007518:	7081      	strb	r1, [r0, #2]
          ADV_TRACE_Ctx.TraceRdPtr = 0;
 800751a:	8201      	strh	r1, [r0, #16]
 800751c:	e7d9      	b.n	80074d2 <TRACE_Send+0x2e>
          ADV_TRACE_Ctx.TraceSentSize = UTIL_ADV_TRACE_FIFO_SIZE - ADV_TRACE_Ctx.TraceRdPtr;
 800751e:	f5c2 7200 	rsb	r2, r2, #512	; 0x200
 8007522:	4b04      	ldr	r3, [pc, #16]	; (8007534 <TRACE_Send+0x90>)
 8007524:	829a      	strh	r2, [r3, #20]
 8007526:	e7de      	b.n	80074e6 <TRACE_Send+0x42>
      TRACE_UnLock();
 8007528:	f7ff ff82 	bl	8007430 <TRACE_UnLock>
 800752c:	f384 8810 	msr	PRIMASK, r4
  UTIL_ADV_TRACE_Status_t ret = UTIL_ADV_TRACE_OK;
 8007530:	2000      	movs	r0, #0
}
 8007532:	e7c2      	b.n	80074ba <TRACE_Send+0x16>
 8007534:	20000870 	.word	0x20000870
 8007538:	20000670 	.word	0x20000670
 800753c:	080093cc 	.word	0x080093cc

08007540 <UTIL_ADV_TRACE_COND_FSend>:
{
 8007540:	b408      	push	{r3}
 8007542:	b530      	push	{r4, r5, lr}
 8007544:	b086      	sub	sp, #24
 8007546:	9c09      	ldr	r4, [sp, #36]	; 0x24
  uint16_t timestamp_size = 0u;
 8007548:	2300      	movs	r3, #0
 800754a:	f8ad 3002 	strh.w	r3, [sp, #2]
  if(!(ADV_TRACE_Ctx.CurrentVerboseLevel >= VerboseLevel))
 800754e:	4b2b      	ldr	r3, [pc, #172]	; (80075fc <UTIL_ADV_TRACE_COND_FSend+0xbc>)
 8007550:	7a1b      	ldrb	r3, [r3, #8]
 8007552:	4283      	cmp	r3, r0
 8007554:	d34c      	bcc.n	80075f0 <UTIL_ADV_TRACE_COND_FSend+0xb0>
  if((Region & ADV_TRACE_Ctx.RegionMask) != Region)
 8007556:	4b29      	ldr	r3, [pc, #164]	; (80075fc <UTIL_ADV_TRACE_COND_FSend+0xbc>)
 8007558:	68db      	ldr	r3, [r3, #12]
 800755a:	4399      	bics	r1, r3
 800755c:	d14b      	bne.n	80075f6 <UTIL_ADV_TRACE_COND_FSend+0xb6>
  if((ADV_TRACE_Ctx.timestamp_func != NULL) && (TimeStampState != 0u))
 800755e:	4b27      	ldr	r3, [pc, #156]	; (80075fc <UTIL_ADV_TRACE_COND_FSend+0xbc>)
 8007560:	685b      	ldr	r3, [r3, #4]
 8007562:	b123      	cbz	r3, 800756e <UTIL_ADV_TRACE_COND_FSend+0x2e>
 8007564:	b11a      	cbz	r2, 800756e <UTIL_ADV_TRACE_COND_FSend+0x2e>
    ADV_TRACE_Ctx.timestamp_func(buf,&timestamp_size);
 8007566:	f10d 0102 	add.w	r1, sp, #2
 800756a:	a801      	add	r0, sp, #4
 800756c:	4798      	blx	r3
  va_start( vaArgs, strFormat);
 800756e:	ab0a      	add	r3, sp, #40	; 0x28
 8007570:	9305      	str	r3, [sp, #20]
  buff_size =(uint16_t)UTIL_ADV_TRACE_VSNPRINTF((char *)sztmp,UTIL_ADV_TRACE_TMP_BUF_SIZE, strFormat, vaArgs);
 8007572:	4622      	mov	r2, r4
 8007574:	f44f 7180 	mov.w	r1, #256	; 0x100
 8007578:	4821      	ldr	r0, [pc, #132]	; (8007600 <UTIL_ADV_TRACE_COND_FSend+0xc0>)
 800757a:	f000 fc2f 	bl	8007ddc <tiny_vsnprintf_like>
 800757e:	b285      	uxth	r5, r0
  TRACE_Lock();
 8007580:	f7ff ff4a 	bl	8007418 <TRACE_Lock>
  if (TRACE_AllocateBufer((buff_size+timestamp_size),&writepos) != -1)
 8007584:	f8bd 3002 	ldrh.w	r3, [sp, #2]
 8007588:	18e8      	adds	r0, r5, r3
 800758a:	4669      	mov	r1, sp
 800758c:	b280      	uxth	r0, r0
 800758e:	f7ff feff 	bl	8007390 <TRACE_AllocateBufer>
 8007592:	f1b0 3fff 	cmp.w	r0, #4294967295
 8007596:	d026      	beq.n	80075e6 <UTIL_ADV_TRACE_COND_FSend+0xa6>
    for (idx = 0u; idx < timestamp_size; idx++)
 8007598:	2300      	movs	r3, #0
 800759a:	e00d      	b.n	80075b8 <UTIL_ADV_TRACE_COND_FSend+0x78>
      ADV_TRACE_Buffer[writepos] = buf[idx];
 800759c:	f8bd 2000 	ldrh.w	r2, [sp]
 80075a0:	f103 0118 	add.w	r1, r3, #24
 80075a4:	4469      	add	r1, sp
 80075a6:	f811 0c14 	ldrb.w	r0, [r1, #-20]
 80075aa:	4916      	ldr	r1, [pc, #88]	; (8007604 <UTIL_ADV_TRACE_COND_FSend+0xc4>)
 80075ac:	5488      	strb	r0, [r1, r2]
      writepos = writepos + 1u;
 80075ae:	3201      	adds	r2, #1
 80075b0:	f8ad 2000 	strh.w	r2, [sp]
    for (idx = 0u; idx < timestamp_size; idx++)
 80075b4:	3301      	adds	r3, #1
 80075b6:	b29b      	uxth	r3, r3
 80075b8:	f8bd 2002 	ldrh.w	r2, [sp, #2]
 80075bc:	429a      	cmp	r2, r3
 80075be:	d8ed      	bhi.n	800759c <UTIL_ADV_TRACE_COND_FSend+0x5c>
    (void)UTIL_ADV_TRACE_VSNPRINTF((char *)(&ADV_TRACE_Buffer[writepos]), UTIL_ADV_TRACE_TMP_BUF_SIZE, strFormat, vaArgs);
 80075c0:	f8bd 0000 	ldrh.w	r0, [sp]
 80075c4:	9b05      	ldr	r3, [sp, #20]
 80075c6:	4622      	mov	r2, r4
 80075c8:	f44f 7180 	mov.w	r1, #256	; 0x100
 80075cc:	4c0d      	ldr	r4, [pc, #52]	; (8007604 <UTIL_ADV_TRACE_COND_FSend+0xc4>)
 80075ce:	4420      	add	r0, r4
 80075d0:	f000 fc04 	bl	8007ddc <tiny_vsnprintf_like>
    TRACE_UnLock();
 80075d4:	f7ff ff2c 	bl	8007430 <TRACE_UnLock>
    return TRACE_Send();
 80075d8:	f7ff ff64 	bl	80074a4 <TRACE_Send>
}
 80075dc:	b006      	add	sp, #24
 80075de:	e8bd 4030 	ldmia.w	sp!, {r4, r5, lr}
 80075e2:	b001      	add	sp, #4
 80075e4:	4770      	bx	lr
  TRACE_UnLock();
 80075e6:	f7ff ff23 	bl	8007430 <TRACE_UnLock>
  return UTIL_ADV_TRACE_MEM_FULL;
 80075ea:	f06f 0002 	mvn.w	r0, #2
 80075ee:	e7f5      	b.n	80075dc <UTIL_ADV_TRACE_COND_FSend+0x9c>
    return UTIL_ADV_TRACE_GIVEUP;
 80075f0:	f06f 0004 	mvn.w	r0, #4
 80075f4:	e7f2      	b.n	80075dc <UTIL_ADV_TRACE_COND_FSend+0x9c>
    return UTIL_ADV_TRACE_REGIONMASKED;
 80075f6:	f06f 0005 	mvn.w	r0, #5
 80075fa:	e7ef      	b.n	80075dc <UTIL_ADV_TRACE_COND_FSend+0x9c>
 80075fc:	20000870 	.word	0x20000870
 8007600:	20000888 	.word	0x20000888
 8007604:	20000670 	.word	0x20000670

08007608 <TRACE_TxCpltCallback>:
{
 8007608:	b510      	push	{r4, lr}
  __ASM volatile ("MRS %0, primask" : "=r" (result) :: "memory");
 800760a:	f3ef 8310 	mrs	r3, PRIMASK
 800760e:	4619      	mov	r1, r3
  __ASM volatile ("cpsid i" : : : "memory");
 8007610:	b672      	cpsid	i
  if(TRACE_UNCHUNK_TRANSFER == ADV_TRACE_Ctx.unchunk_status)
 8007612:	4b26      	ldr	r3, [pc, #152]	; (80076ac <TRACE_TxCpltCallback+0xa4>)
 8007614:	789b      	ldrb	r3, [r3, #2]
 8007616:	2b02      	cmp	r3, #2
 8007618:	d016      	beq.n	8007648 <TRACE_TxCpltCallback+0x40>
    ADV_TRACE_Ctx.TraceRdPtr = (ADV_TRACE_Ctx.TraceRdPtr + ADV_TRACE_Ctx.TraceSentSize) % UTIL_ADV_TRACE_FIFO_SIZE;
 800761a:	4a24      	ldr	r2, [pc, #144]	; (80076ac <TRACE_TxCpltCallback+0xa4>)
 800761c:	8a13      	ldrh	r3, [r2, #16]
 800761e:	8a90      	ldrh	r0, [r2, #20]
 8007620:	4403      	add	r3, r0
 8007622:	f3c3 0308 	ubfx	r3, r3, #0, #9
 8007626:	8213      	strh	r3, [r2, #16]
  if((ADV_TRACE_Ctx.TraceRdPtr != ADV_TRACE_Ctx.TraceWrPtr) && (1u == ADV_TRACE_Ctx.TraceLock))
 8007628:	4b20      	ldr	r3, [pc, #128]	; (80076ac <TRACE_TxCpltCallback+0xa4>)
 800762a:	8a1a      	ldrh	r2, [r3, #16]
 800762c:	8a5b      	ldrh	r3, [r3, #18]
 800762e:	429a      	cmp	r2, r3
 8007630:	d003      	beq.n	800763a <TRACE_TxCpltCallback+0x32>
 8007632:	481e      	ldr	r0, [pc, #120]	; (80076ac <TRACE_TxCpltCallback+0xa4>)
 8007634:	8ac0      	ldrh	r0, [r0, #22]
 8007636:	2801      	cmp	r0, #1
 8007638:	d00b      	beq.n	8007652 <TRACE_TxCpltCallback+0x4a>
  __ASM volatile ("MSR primask, %0" : : "r" (priMask) : "memory");
 800763a:	f381 8810 	msr	PRIMASK, r1
    UTIL_ADV_TRACE_PostSendHook();
 800763e:	f7f9 f9a5 	bl	800098c <UTIL_ADV_TRACE_PostSendHook>
    TRACE_UnLock();
 8007642:	f7ff fef5 	bl	8007430 <TRACE_UnLock>
}
 8007646:	bd10      	pop	{r4, pc}
    ADV_TRACE_Ctx.unchunk_status = TRACE_UNCHUNK_NONE;
 8007648:	4b18      	ldr	r3, [pc, #96]	; (80076ac <TRACE_TxCpltCallback+0xa4>)
 800764a:	2200      	movs	r2, #0
 800764c:	709a      	strb	r2, [r3, #2]
    ADV_TRACE_Ctx.TraceRdPtr = 0;
 800764e:	821a      	strh	r2, [r3, #16]
    UTIL_ADV_TRACE_DEBUG("\nTRACE_TxCpltCallback::unchunk complete\n");
 8007650:	e7ea      	b.n	8007628 <TRACE_TxCpltCallback+0x20>
    if(TRACE_UNCHUNK_DETECTED == ADV_TRACE_Ctx.unchunk_status)
 8007652:	4816      	ldr	r0, [pc, #88]	; (80076ac <TRACE_TxCpltCallback+0xa4>)
 8007654:	7880      	ldrb	r0, [r0, #2]
 8007656:	2801      	cmp	r0, #1
 8007658:	d014      	beq.n	8007684 <TRACE_TxCpltCallback+0x7c>
    if(TRACE_UNCHUNK_NONE == ADV_TRACE_Ctx.unchunk_status)
 800765a:	4a14      	ldr	r2, [pc, #80]	; (80076ac <TRACE_TxCpltCallback+0xa4>)
 800765c:	7892      	ldrb	r2, [r2, #2]
 800765e:	b932      	cbnz	r2, 800766e <TRACE_TxCpltCallback+0x66>
      if(ADV_TRACE_Ctx.TraceWrPtr > ADV_TRACE_Ctx.TraceRdPtr)
 8007660:	4a12      	ldr	r2, [pc, #72]	; (80076ac <TRACE_TxCpltCallback+0xa4>)
 8007662:	8a12      	ldrh	r2, [r2, #16]
 8007664:	4293      	cmp	r3, r2
 8007666:	d91b      	bls.n	80076a0 <TRACE_TxCpltCallback+0x98>
        ADV_TRACE_Ctx.TraceSentSize = ADV_TRACE_Ctx.TraceWrPtr - ADV_TRACE_Ctx.TraceRdPtr;
 8007668:	1a9b      	subs	r3, r3, r2
 800766a:	4a10      	ldr	r2, [pc, #64]	; (80076ac <TRACE_TxCpltCallback+0xa4>)
 800766c:	8293      	strh	r3, [r2, #20]
    ptr = &ADV_TRACE_Buffer[ADV_TRACE_Ctx.TraceRdPtr];
 800766e:	4b0f      	ldr	r3, [pc, #60]	; (80076ac <TRACE_TxCpltCallback+0xa4>)
 8007670:	8a1a      	ldrh	r2, [r3, #16]
 8007672:	480f      	ldr	r0, [pc, #60]	; (80076b0 <TRACE_TxCpltCallback+0xa8>)
 8007674:	4410      	add	r0, r2
 8007676:	f381 8810 	msr	PRIMASK, r1
    UTIL_TraceDriver.Send(ptr, ADV_TRACE_Ctx.TraceSentSize);
 800767a:	4a0e      	ldr	r2, [pc, #56]	; (80076b4 <TRACE_TxCpltCallback+0xac>)
 800767c:	68d2      	ldr	r2, [r2, #12]
 800767e:	8a99      	ldrh	r1, [r3, #20]
 8007680:	4790      	blx	r2
 8007682:	e7e0      	b.n	8007646 <TRACE_TxCpltCallback+0x3e>
      ADV_TRACE_Ctx.TraceSentSize = ADV_TRACE_Ctx.unchunk_enabled - ADV_TRACE_Ctx.TraceRdPtr;
 8007684:	4c09      	ldr	r4, [pc, #36]	; (80076ac <TRACE_TxCpltCallback+0xa4>)
 8007686:	8820      	ldrh	r0, [r4, #0]
 8007688:	1a82      	subs	r2, r0, r2
 800768a:	b292      	uxth	r2, r2
 800768c:	82a2      	strh	r2, [r4, #20]
      ADV_TRACE_Ctx.unchunk_status = TRACE_UNCHUNK_TRANSFER;
 800768e:	2002      	movs	r0, #2
 8007690:	70a0      	strb	r0, [r4, #2]
      ADV_TRACE_Ctx.unchunk_enabled = 0;
 8007692:	2000      	movs	r0, #0
 8007694:	8020      	strh	r0, [r4, #0]
      if(0u == ADV_TRACE_Ctx.TraceSentSize)
 8007696:	2a00      	cmp	r2, #0
 8007698:	d1df      	bne.n	800765a <TRACE_TxCpltCallback+0x52>
        ADV_TRACE_Ctx.unchunk_status = TRACE_UNCHUNK_NONE;
 800769a:	70a0      	strb	r0, [r4, #2]
        ADV_TRACE_Ctx.TraceRdPtr = 0;
 800769c:	8220      	strh	r0, [r4, #16]
 800769e:	e7dc      	b.n	800765a <TRACE_TxCpltCallback+0x52>
        ADV_TRACE_Ctx.TraceSentSize = UTIL_ADV_TRACE_FIFO_SIZE - ADV_TRACE_Ctx.TraceRdPtr;
 80076a0:	f5c2 7200 	rsb	r2, r2, #512	; 0x200
 80076a4:	4b01      	ldr	r3, [pc, #4]	; (80076ac <TRACE_TxCpltCallback+0xa4>)
 80076a6:	829a      	strh	r2, [r3, #20]
 80076a8:	e7e1      	b.n	800766e <TRACE_TxCpltCallback+0x66>
 80076aa:	bf00      	nop
 80076ac:	20000870 	.word	0x20000870
 80076b0:	20000670 	.word	0x20000670
 80076b4:	080093cc 	.word	0x080093cc

080076b8 <UTIL_LPM_Init>:
/** @addtogroup TINY_LPM_Exported_function
  * @{
  */
void UTIL_LPM_Init( void )
{
  StopModeDisable = UTIL_LPM_NO_BIT_SET;
 80076b8:	2300      	movs	r3, #0
 80076ba:	4a02      	ldr	r2, [pc, #8]	; (80076c4 <UTIL_LPM_Init+0xc>)
 80076bc:	6013      	str	r3, [r2, #0]
  OffModeDisable = UTIL_LPM_NO_BIT_SET;
 80076be:	4a02      	ldr	r2, [pc, #8]	; (80076c8 <UTIL_LPM_Init+0x10>)
 80076c0:	6013      	str	r3, [r2, #0]
  UTIL_LPM_INIT_CRITICAL_SECTION( );
}
 80076c2:	4770      	bx	lr
 80076c4:	2000098c 	.word	0x2000098c
 80076c8:	20000988 	.word	0x20000988

080076cc <UTIL_LPM_SetStopMode>:
  __ASM volatile ("MRS %0, primask" : "=r" (result) :: "memory");
 80076cc:	f3ef 8310 	mrs	r3, PRIMASK
  __ASM volatile ("cpsid i" : : : "memory");
 80076d0:	b672      	cpsid	i

void UTIL_LPM_SetStopMode( UTIL_LPM_bm_t lpm_id_bm, UTIL_LPM_State_t state )
{
  UTIL_LPM_ENTER_CRITICAL_SECTION( );
  
  switch( state )
 80076d2:	b141      	cbz	r1, 80076e6 <UTIL_LPM_SetStopMode+0x1a>
 80076d4:	2901      	cmp	r1, #1
 80076d6:	d103      	bne.n	80076e0 <UTIL_LPM_SetStopMode+0x14>
  {
  case UTIL_LPM_DISABLE:
    {
      StopModeDisable |= lpm_id_bm;
 80076d8:	4906      	ldr	r1, [pc, #24]	; (80076f4 <UTIL_LPM_SetStopMode+0x28>)
 80076da:	680a      	ldr	r2, [r1, #0]
 80076dc:	4302      	orrs	r2, r0
 80076de:	600a      	str	r2, [r1, #0]
  __ASM volatile ("MSR primask, %0" : : "r" (priMask) : "memory");
 80076e0:	f383 8810 	msr	PRIMASK, r3
      break;
    }
  }
  
  UTIL_LPM_EXIT_CRITICAL_SECTION( );
}
 80076e4:	4770      	bx	lr
      StopModeDisable &= ( ~lpm_id_bm );
 80076e6:	4903      	ldr	r1, [pc, #12]	; (80076f4 <UTIL_LPM_SetStopMode+0x28>)
 80076e8:	680a      	ldr	r2, [r1, #0]
 80076ea:	ea22 0200 	bic.w	r2, r2, r0
 80076ee:	600a      	str	r2, [r1, #0]
      break;
 80076f0:	e7f6      	b.n	80076e0 <UTIL_LPM_SetStopMode+0x14>
 80076f2:	bf00      	nop
 80076f4:	2000098c 	.word	0x2000098c

080076f8 <UTIL_LPM_SetOffMode>:
  __ASM volatile ("MRS %0, primask" : "=r" (result) :: "memory");
 80076f8:	f3ef 8310 	mrs	r3, PRIMASK
  __ASM volatile ("cpsid i" : : : "memory");
 80076fc:	b672      	cpsid	i

void UTIL_LPM_SetOffMode( UTIL_LPM_bm_t lpm_id_bm, UTIL_LPM_State_t state )
{
  UTIL_LPM_ENTER_CRITICAL_SECTION( );
  
  switch(state)
 80076fe:	b141      	cbz	r1, 8007712 <UTIL_LPM_SetOffMode+0x1a>
 8007700:	2901      	cmp	r1, #1
 8007702:	d103      	bne.n	800770c <UTIL_LPM_SetOffMode+0x14>
  {
  case UTIL_LPM_DISABLE:
    {
      OffModeDisable |= lpm_id_bm;
 8007704:	4906      	ldr	r1, [pc, #24]	; (8007720 <UTIL_LPM_SetOffMode+0x28>)
 8007706:	680a      	ldr	r2, [r1, #0]
 8007708:	4302      	orrs	r2, r0
 800770a:	600a      	str	r2, [r1, #0]
  __ASM volatile ("MSR primask, %0" : : "r" (priMask) : "memory");
 800770c:	f383 8810 	msr	PRIMASK, r3
      break;
    }
  }
  
  UTIL_LPM_EXIT_CRITICAL_SECTION( );
}
 8007710:	4770      	bx	lr
      OffModeDisable &= ( ~lpm_id_bm );
 8007712:	4903      	ldr	r1, [pc, #12]	; (8007720 <UTIL_LPM_SetOffMode+0x28>)
 8007714:	680a      	ldr	r2, [r1, #0]
 8007716:	ea22 0200 	bic.w	r2, r2, r0
 800771a:	600a      	str	r2, [r1, #0]
      break;
 800771c:	e7f6      	b.n	800770c <UTIL_LPM_SetOffMode+0x14>
 800771e:	bf00      	nop
 8007720:	20000988 	.word	0x20000988

08007724 <UTIL_LPM_EnterLowPower>:

  return mode_selected;
}

void UTIL_LPM_EnterLowPower( void )
{
 8007724:	b538      	push	{r3, r4, r5, lr}
  __ASM volatile ("MRS %0, primask" : "=r" (result) :: "memory");
 8007726:	f3ef 8410 	mrs	r4, PRIMASK
  __ASM volatile ("cpsid i" : : : "memory");
 800772a:	b672      	cpsid	i
  UTIL_LPM_ENTER_CRITICAL_SECTION_ELP( );

  if( StopModeDisable != UTIL_LPM_NO_BIT_SET )
 800772c:	4b0c      	ldr	r3, [pc, #48]	; (8007760 <UTIL_LPM_EnterLowPower+0x3c>)
 800772e:	681b      	ldr	r3, [r3, #0]
 8007730:	b13b      	cbz	r3, 8007742 <UTIL_LPM_EnterLowPower+0x1e>
  {
    /**
     * At least one user disallows Stop Mode
     * SLEEP mode is required
     */
      UTIL_PowerDriver.EnterSleepMode( );
 8007732:	4d0c      	ldr	r5, [pc, #48]	; (8007764 <UTIL_LPM_EnterLowPower+0x40>)
 8007734:	682b      	ldr	r3, [r5, #0]
 8007736:	4798      	blx	r3
      UTIL_PowerDriver.ExitSleepMode( );
 8007738:	686b      	ldr	r3, [r5, #4]
 800773a:	4798      	blx	r3
  __ASM volatile ("MSR primask, %0" : : "r" (priMask) : "memory");
 800773c:	f384 8810 	msr	PRIMASK, r4
      UTIL_PowerDriver.ExitOffMode( );
    }
  }
  
  UTIL_LPM_EXIT_CRITICAL_SECTION_ELP( );
}
 8007740:	bd38      	pop	{r3, r4, r5, pc}
    if( OffModeDisable != UTIL_LPM_NO_BIT_SET )
 8007742:	4b09      	ldr	r3, [pc, #36]	; (8007768 <UTIL_LPM_EnterLowPower+0x44>)
 8007744:	681b      	ldr	r3, [r3, #0]
 8007746:	b12b      	cbz	r3, 8007754 <UTIL_LPM_EnterLowPower+0x30>
        UTIL_PowerDriver.EnterStopMode( );
 8007748:	4d06      	ldr	r5, [pc, #24]	; (8007764 <UTIL_LPM_EnterLowPower+0x40>)
 800774a:	68ab      	ldr	r3, [r5, #8]
 800774c:	4798      	blx	r3
        UTIL_PowerDriver.ExitStopMode( );
 800774e:	68eb      	ldr	r3, [r5, #12]
 8007750:	4798      	blx	r3
 8007752:	e7f3      	b.n	800773c <UTIL_LPM_EnterLowPower+0x18>
      UTIL_PowerDriver.EnterOffMode( );
 8007754:	4d03      	ldr	r5, [pc, #12]	; (8007764 <UTIL_LPM_EnterLowPower+0x40>)
 8007756:	692b      	ldr	r3, [r5, #16]
 8007758:	4798      	blx	r3
      UTIL_PowerDriver.ExitOffMode( );
 800775a:	696b      	ldr	r3, [r5, #20]
 800775c:	4798      	blx	r3
 800775e:	e7ed      	b.n	800773c <UTIL_LPM_EnterLowPower+0x18>
 8007760:	2000098c 	.word	0x2000098c
 8007764:	08009368 	.word	0x08009368
 8007768:	20000988 	.word	0x20000988

0800776c <UTIL_MEM_cpy_8>:
void UTIL_MEM_cpy_8( void *dst, const void *src, uint16_t size )
{
  uint8_t* dst8= (uint8_t *) dst;
  uint8_t* src8= (uint8_t *) src;

  while( size-- )
 800776c:	e004      	b.n	8007778 <UTIL_MEM_cpy_8+0xc>
    {
        *dst8++ = *src8++;
 800776e:	f811 2b01 	ldrb.w	r2, [r1], #1
 8007772:	f800 2b01 	strb.w	r2, [r0], #1
  while( size-- )
 8007776:	461a      	mov	r2, r3
 8007778:	1e53      	subs	r3, r2, #1
 800777a:	b29b      	uxth	r3, r3
 800777c:	2a00      	cmp	r2, #0
 800777e:	d1f6      	bne.n	800776e <UTIL_MEM_cpy_8+0x2>
    }
}
 8007780:	4770      	bx	lr

08007782 <UTIL_MEM_set_8>:
}

void UTIL_MEM_set_8( void *dst, uint8_t value, uint16_t size )
{
  uint8_t* dst8= (uint8_t *) dst;
  while( size-- )
 8007782:	e002      	b.n	800778a <UTIL_MEM_set_8+0x8>
  {
    *dst8++ = value;
 8007784:	f800 1b01 	strb.w	r1, [r0], #1
  while( size-- )
 8007788:	461a      	mov	r2, r3
 800778a:	1e53      	subs	r3, r2, #1
 800778c:	b29b      	uxth	r3, r3
 800778e:	2a00      	cmp	r2, #0
 8007790:	d1f8      	bne.n	8007784 <UTIL_MEM_set_8+0x2>
  }
}
 8007792:	4770      	bx	lr

08007794 <UTIL_SEQ_SetTask>:
  __ASM volatile ("MRS %0, primask" : "=r" (result) :: "memory");
 8007794:	f3ef 8c10 	mrs	ip, PRIMASK
  __ASM volatile ("cpsid i" : : : "memory");
 8007798:	b672      	cpsid	i

void UTIL_SEQ_SetTask( UTIL_SEQ_bm_t TaskId_bm , uint32_t Task_Prio )
{
  UTIL_SEQ_ENTER_CRITICAL_SECTION( );

  TaskSet |= TaskId_bm;
 800779a:	4a06      	ldr	r2, [pc, #24]	; (80077b4 <UTIL_SEQ_SetTask+0x20>)
 800779c:	6813      	ldr	r3, [r2, #0]
 800779e:	4303      	orrs	r3, r0
 80077a0:	6013      	str	r3, [r2, #0]
  TaskPrio[Task_Prio].priority |= TaskId_bm;
 80077a2:	4a05      	ldr	r2, [pc, #20]	; (80077b8 <UTIL_SEQ_SetTask+0x24>)
 80077a4:	f852 3031 	ldr.w	r3, [r2, r1, lsl #3]
 80077a8:	4303      	orrs	r3, r0
 80077aa:	f842 3031 	str.w	r3, [r2, r1, lsl #3]
  __ASM volatile ("MSR primask, %0" : : "r" (priMask) : "memory");
 80077ae:	f38c 8810 	msr	PRIMASK, ip

  UTIL_SEQ_EXIT_CRITICAL_SECTION( );

  return;
}
 80077b2:	4770      	bx	lr
 80077b4:	200009a8 	.word	0x200009a8
 80077b8:	200009a0 	.word	0x200009a0

080077bc <UTIL_SEQ_PreIdle>:
{
  /*
   * Unless specified by the application, there is nothing to be done
   */
  return;
}
 80077bc:	4770      	bx	lr

080077be <UTIL_SEQ_PostIdle>:
{
  /*
   * Unless specified by the application, there is nothing to be done
   */
  return;
}
 80077be:	4770      	bx	lr

080077c0 <SEQ_BitPosition>:
uint8_t SEQ_BitPosition(uint32_t Value)
{
uint8_t n = 0U;
uint32_t lvalue = Value;

  if ((lvalue & 0xFFFF0000U) == 0U)  { n  = 16U; lvalue <<= 16U;  }
 80077c0:	0c03      	lsrs	r3, r0, #16
 80077c2:	041b      	lsls	r3, r3, #16
 80077c4:	b9b3      	cbnz	r3, 80077f4 <SEQ_BitPosition+0x34>
 80077c6:	0400      	lsls	r0, r0, #16
 80077c8:	2310      	movs	r3, #16
  if ((lvalue & 0xFF000000U) == 0U)  { n +=  8U; lvalue <<=  8U;  }
 80077ca:	f010 4f7f 	tst.w	r0, #4278190080	; 0xff000000
 80077ce:	d102      	bne.n	80077d6 <SEQ_BitPosition+0x16>
 80077d0:	3308      	adds	r3, #8
 80077d2:	b2db      	uxtb	r3, r3
 80077d4:	0200      	lsls	r0, r0, #8
  if ((lvalue & 0xF0000000U) == 0U)  { n +=  4U; lvalue <<=  4U;  }
 80077d6:	f010 4f70 	tst.w	r0, #4026531840	; 0xf0000000
 80077da:	d102      	bne.n	80077e2 <SEQ_BitPosition+0x22>
 80077dc:	3304      	adds	r3, #4
 80077de:	b2db      	uxtb	r3, r3
 80077e0:	0100      	lsls	r0, r0, #4

  n += SEQ_clz_table_4bit[lvalue >> (32-4)];
 80077e2:	0f00      	lsrs	r0, r0, #28
 80077e4:	4a04      	ldr	r2, [pc, #16]	; (80077f8 <SEQ_BitPosition+0x38>)
 80077e6:	5c10      	ldrb	r0, [r2, r0]
 80077e8:	4418      	add	r0, r3
 80077ea:	b2c0      	uxtb	r0, r0

  return (uint8_t)(31U-n);
 80077ec:	f1c0 001f 	rsb	r0, r0, #31
}
 80077f0:	b2c0      	uxtb	r0, r0
 80077f2:	4770      	bx	lr
uint8_t n = 0U;
 80077f4:	2300      	movs	r3, #0
 80077f6:	e7e8      	b.n	80077ca <SEQ_BitPosition+0xa>
 80077f8:	08009838 	.word	0x08009838

080077fc <UTIL_SEQ_Run>:
{
 80077fc:	b570      	push	{r4, r5, r6, lr}
  super_mask_backup = SuperMask;
 80077fe:	4b42      	ldr	r3, [pc, #264]	; (8007908 <UTIL_SEQ_Run+0x10c>)
 8007800:	681c      	ldr	r4, [r3, #0]
  SuperMask &= Mask_bm;
 8007802:	4020      	ands	r0, r4
 8007804:	6018      	str	r0, [r3, #0]
  local_taskset = TaskSet;
 8007806:	4b41      	ldr	r3, [pc, #260]	; (800790c <UTIL_SEQ_Run+0x110>)
 8007808:	681a      	ldr	r2, [r3, #0]
  local_evtset = EvtSet;
 800780a:	4b41      	ldr	r3, [pc, #260]	; (8007910 <UTIL_SEQ_Run+0x114>)
 800780c:	681b      	ldr	r3, [r3, #0]
  local_taskmask = TaskMask;
 800780e:	4941      	ldr	r1, [pc, #260]	; (8007914 <UTIL_SEQ_Run+0x118>)
 8007810:	6808      	ldr	r0, [r1, #0]
  local_evtwaited =  EvtWaited;
 8007812:	4941      	ldr	r1, [pc, #260]	; (8007918 <UTIL_SEQ_Run+0x11c>)
 8007814:	6809      	ldr	r1, [r1, #0]
  while(((local_taskset & local_taskmask & SuperMask) != 0U) && ((local_evtset & local_evtwaited)==0U))
 8007816:	e02f      	b.n	8007878 <UTIL_SEQ_Run+0x7c>
      counter++;
 8007818:	3301      	adds	r3, #1
 800781a:	e034      	b.n	8007886 <UTIL_SEQ_Run+0x8a>
    CurrentTaskIdx = (SEQ_BitPosition(current_task_set & TaskPrio[counter].round_robin));
 800781c:	4d3f      	ldr	r5, [pc, #252]	; (800791c <UTIL_SEQ_Run+0x120>)
 800781e:	eb05 05c3 	add.w	r5, r5, r3, lsl #3
 8007822:	6868      	ldr	r0, [r5, #4]
 8007824:	4010      	ands	r0, r2
 8007826:	f7ff ffcb 	bl	80077c0 <SEQ_BitPosition>
 800782a:	4e3d      	ldr	r6, [pc, #244]	; (8007920 <UTIL_SEQ_Run+0x124>)
 800782c:	6030      	str	r0, [r6, #0]
    TaskPrio[counter].round_robin &= ~(1U << CurrentTaskIdx);
 800782e:	686a      	ldr	r2, [r5, #4]
 8007830:	2301      	movs	r3, #1
 8007832:	fa03 f000 	lsl.w	r0, r3, r0
 8007836:	ea22 0200 	bic.w	r2, r2, r0
 800783a:	606a      	str	r2, [r5, #4]
  __ASM volatile ("MRS %0, primask" : "=r" (result) :: "memory");
 800783c:	f3ef 8110 	mrs	r1, PRIMASK
  __ASM volatile ("cpsid i" : : : "memory");
 8007840:	b672      	cpsid	i
    TaskSet &= ~(1U << CurrentTaskIdx);
 8007842:	6832      	ldr	r2, [r6, #0]
 8007844:	fa03 f202 	lsl.w	r2, r3, r2
 8007848:	43d6      	mvns	r6, r2
 800784a:	4d30      	ldr	r5, [pc, #192]	; (800790c <UTIL_SEQ_Run+0x110>)
 800784c:	6828      	ldr	r0, [r5, #0]
 800784e:	ea20 0202 	bic.w	r2, r0, r2
 8007852:	602a      	str	r2, [r5, #0]
    for (counter = UTIL_SEQ_CONF_PRIO_NBR; counter != 0U; counter--)
 8007854:	2b00      	cmp	r3, #0
 8007856:	d12d      	bne.n	80078b4 <UTIL_SEQ_Run+0xb8>
  __ASM volatile ("MSR primask, %0" : : "r" (priMask) : "memory");
 8007858:	f381 8810 	msr	PRIMASK, r1
    TaskCb[CurrentTaskIdx]( );
 800785c:	4b30      	ldr	r3, [pc, #192]	; (8007920 <UTIL_SEQ_Run+0x124>)
 800785e:	681a      	ldr	r2, [r3, #0]
 8007860:	4b30      	ldr	r3, [pc, #192]	; (8007924 <UTIL_SEQ_Run+0x128>)
 8007862:	f853 3022 	ldr.w	r3, [r3, r2, lsl #2]
 8007866:	4798      	blx	r3
    local_taskset = TaskSet;
 8007868:	4b28      	ldr	r3, [pc, #160]	; (800790c <UTIL_SEQ_Run+0x110>)
 800786a:	681a      	ldr	r2, [r3, #0]
    local_evtset = EvtSet;
 800786c:	4b28      	ldr	r3, [pc, #160]	; (8007910 <UTIL_SEQ_Run+0x114>)
 800786e:	681b      	ldr	r3, [r3, #0]
    local_taskmask = TaskMask;
 8007870:	4928      	ldr	r1, [pc, #160]	; (8007914 <UTIL_SEQ_Run+0x118>)
 8007872:	6808      	ldr	r0, [r1, #0]
    local_evtwaited = EvtWaited;
 8007874:	4928      	ldr	r1, [pc, #160]	; (8007918 <UTIL_SEQ_Run+0x11c>)
 8007876:	6809      	ldr	r1, [r1, #0]
  while(((local_taskset & local_taskmask & SuperMask) != 0U) && ((local_evtset & local_evtwaited)==0U))
 8007878:	4002      	ands	r2, r0
 800787a:	4d23      	ldr	r5, [pc, #140]	; (8007908 <UTIL_SEQ_Run+0x10c>)
 800787c:	682d      	ldr	r5, [r5, #0]
 800787e:	422a      	tst	r2, r5
 8007880:	d020      	beq.n	80078c4 <UTIL_SEQ_Run+0xc8>
 8007882:	400b      	ands	r3, r1
 8007884:	d11e      	bne.n	80078c4 <UTIL_SEQ_Run+0xc8>
    while((TaskPrio[counter].priority & local_taskmask & SuperMask)== 0U)
 8007886:	4a25      	ldr	r2, [pc, #148]	; (800791c <UTIL_SEQ_Run+0x120>)
 8007888:	f852 2033 	ldr.w	r2, [r2, r3, lsl #3]
 800788c:	4002      	ands	r2, r0
 800788e:	422a      	tst	r2, r5
 8007890:	d0c2      	beq.n	8007818 <UTIL_SEQ_Run+0x1c>
    current_task_set = TaskPrio[counter].priority & local_taskmask & SuperMask;
 8007892:	4922      	ldr	r1, [pc, #136]	; (800791c <UTIL_SEQ_Run+0x120>)
 8007894:	f851 2033 	ldr.w	r2, [r1, r3, lsl #3]
 8007898:	4002      	ands	r2, r0
 800789a:	402a      	ands	r2, r5
    if ((TaskPrio[counter].round_robin & current_task_set) == 0U)
 800789c:	eb01 01c3 	add.w	r1, r1, r3, lsl #3
 80078a0:	6849      	ldr	r1, [r1, #4]
 80078a2:	4211      	tst	r1, r2
 80078a4:	d1ba      	bne.n	800781c <UTIL_SEQ_Run+0x20>
      TaskPrio[counter].round_robin = UTIL_SEQ_ALL_BIT_SET;
 80078a6:	491d      	ldr	r1, [pc, #116]	; (800791c <UTIL_SEQ_Run+0x120>)
 80078a8:	eb01 01c3 	add.w	r1, r1, r3, lsl #3
 80078ac:	f04f 30ff 	mov.w	r0, #4294967295
 80078b0:	6048      	str	r0, [r1, #4]
 80078b2:	e7b3      	b.n	800781c <UTIL_SEQ_Run+0x20>
      TaskPrio[counter - 1U].priority &= ~(1U << CurrentTaskIdx);
 80078b4:	3b01      	subs	r3, #1
 80078b6:	4819      	ldr	r0, [pc, #100]	; (800791c <UTIL_SEQ_Run+0x120>)
 80078b8:	f850 2033 	ldr.w	r2, [r0, r3, lsl #3]
 80078bc:	4032      	ands	r2, r6
 80078be:	f840 2033 	str.w	r2, [r0, r3, lsl #3]
    for (counter = UTIL_SEQ_CONF_PRIO_NBR; counter != 0U; counter--)
 80078c2:	e7c7      	b.n	8007854 <UTIL_SEQ_Run+0x58>
  CurrentTaskIdx = UTIL_SEQ_NOTASKRUNNING;
 80078c4:	4b16      	ldr	r3, [pc, #88]	; (8007920 <UTIL_SEQ_Run+0x124>)
 80078c6:	f04f 32ff 	mov.w	r2, #4294967295
 80078ca:	601a      	str	r2, [r3, #0]
  UTIL_SEQ_PreIdle( );
 80078cc:	f7ff ff76 	bl	80077bc <UTIL_SEQ_PreIdle>
  __ASM volatile ("MRS %0, primask" : "=r" (result) :: "memory");
 80078d0:	f3ef 8510 	mrs	r5, PRIMASK
  __ASM volatile ("cpsid i" : : : "memory");
 80078d4:	b672      	cpsid	i
  local_taskset = TaskSet;
 80078d6:	4b0d      	ldr	r3, [pc, #52]	; (800790c <UTIL_SEQ_Run+0x110>)
 80078d8:	681b      	ldr	r3, [r3, #0]
  local_evtset = EvtSet;
 80078da:	4a0d      	ldr	r2, [pc, #52]	; (8007910 <UTIL_SEQ_Run+0x114>)
 80078dc:	6811      	ldr	r1, [r2, #0]
  local_taskmask = TaskMask;
 80078de:	4a0d      	ldr	r2, [pc, #52]	; (8007914 <UTIL_SEQ_Run+0x118>)
 80078e0:	6812      	ldr	r2, [r2, #0]
  if ((local_taskset & local_taskmask & SuperMask) == 0U)
 80078e2:	4013      	ands	r3, r2
 80078e4:	4a08      	ldr	r2, [pc, #32]	; (8007908 <UTIL_SEQ_Run+0x10c>)
 80078e6:	6812      	ldr	r2, [r2, #0]
 80078e8:	4213      	tst	r3, r2
 80078ea:	d103      	bne.n	80078f4 <UTIL_SEQ_Run+0xf8>
    if ((local_evtset & EvtWaited)== 0U)
 80078ec:	4b0a      	ldr	r3, [pc, #40]	; (8007918 <UTIL_SEQ_Run+0x11c>)
 80078ee:	681b      	ldr	r3, [r3, #0]
 80078f0:	420b      	tst	r3, r1
 80078f2:	d006      	beq.n	8007902 <UTIL_SEQ_Run+0x106>
  __ASM volatile ("MSR primask, %0" : : "r" (priMask) : "memory");
 80078f4:	f385 8810 	msr	PRIMASK, r5
  UTIL_SEQ_PostIdle( );
 80078f8:	f7ff ff61 	bl	80077be <UTIL_SEQ_PostIdle>
  SuperMask = super_mask_backup;
 80078fc:	4b02      	ldr	r3, [pc, #8]	; (8007908 <UTIL_SEQ_Run+0x10c>)
 80078fe:	601c      	str	r4, [r3, #0]
}
 8007900:	bd70      	pop	{r4, r5, r6, pc}
      UTIL_SEQ_Idle( );
 8007902:	f7f9 f839 	bl	8000978 <UTIL_SEQ_Idle>
 8007906:	e7f5      	b.n	80078f4 <UTIL_SEQ_Run+0xf8>
 8007908:	20000030 	.word	0x20000030
 800790c:	200009a8 	.word	0x200009a8
 8007910:	20000994 	.word	0x20000994
 8007914:	20000034 	.word	0x20000034
 8007918:	20000998 	.word	0x20000998
 800791c:	200009a0 	.word	0x200009a0
 8007920:	20000990 	.word	0x20000990
 8007924:	2000099c 	.word	0x2000099c

08007928 <UTIL_SEQ_RegTask>:
{
 8007928:	b538      	push	{r3, r4, r5, lr}
 800792a:	4614      	mov	r4, r2
  __ASM volatile ("MRS %0, primask" : "=r" (result) :: "memory");
 800792c:	f3ef 8510 	mrs	r5, PRIMASK
  __ASM volatile ("cpsid i" : : : "memory");
 8007930:	b672      	cpsid	i
  TaskCb[SEQ_BitPosition(TaskId_bm)] = Task;
 8007932:	f7ff ff45 	bl	80077c0 <SEQ_BitPosition>
 8007936:	4b03      	ldr	r3, [pc, #12]	; (8007944 <UTIL_SEQ_RegTask+0x1c>)
 8007938:	f843 4020 	str.w	r4, [r3, r0, lsl #2]
  __ASM volatile ("MSR primask, %0" : : "r" (priMask) : "memory");
 800793c:	f385 8810 	msr	PRIMASK, r5
}
 8007940:	bd38      	pop	{r3, r4, r5, pc}
 8007942:	bf00      	nop
 8007944:	2000099c 	.word	0x2000099c

08007948 <SysTimeAdd>:
  * @addtogroup SYSTIME_exported_function
  *  @{
  */

SysTime_t SysTimeAdd( SysTime_t a, SysTime_t b )
{
 8007948:	b082      	sub	sp, #8
 800794a:	b082      	sub	sp, #8
 800794c:	f10d 0c08 	add.w	ip, sp, #8
 8007950:	e90c 0006 	stmdb	ip, {r1, r2}
 8007954:	9303      	str	r3, [sp, #12]
  SysTime_t c =  { .Seconds = 0, .SubSeconds = 0 };
 8007956:	2200      	movs	r2, #0
 8007958:	6002      	str	r2, [r0, #0]
 800795a:	8082      	strh	r2, [r0, #4]

  c.Seconds = a.Seconds + b.Seconds;
 800795c:	440b      	add	r3, r1
 800795e:	6003      	str	r3, [r0, #0]
  c.SubSeconds = a.SubSeconds + b.SubSeconds;
 8007960:	f8bd 2004 	ldrh.w	r2, [sp, #4]
 8007964:	f8bd 1010 	ldrh.w	r1, [sp, #16]
 8007968:	440a      	add	r2, r1
 800796a:	b291      	uxth	r1, r2
 800796c:	b212      	sxth	r2, r2
 800796e:	8082      	strh	r2, [r0, #4]
  if( c.SubSeconds >= 1000 )
 8007970:	f5b2 7f7a 	cmp.w	r2, #1000	; 0x3e8
 8007974:	db04      	blt.n	8007980 <SysTimeAdd+0x38>
  {
    c.Seconds++;
 8007976:	3301      	adds	r3, #1
 8007978:	6003      	str	r3, [r0, #0]
    c.SubSeconds -= 1000;
 800797a:	f5a1 717a 	sub.w	r1, r1, #1000	; 0x3e8
 800797e:	8081      	strh	r1, [r0, #4]
  }
  return c;
}
 8007980:	b002      	add	sp, #8
 8007982:	b002      	add	sp, #8
 8007984:	4770      	bx	lr
	...

08007988 <SysTimeGet>:
  UTIL_SYSTIMDriver.BKUPWrite_Seconds( DeltaTime.Seconds );
  UTIL_SYSTIMDriver.BKUPWrite_SubSeconds( ( uint32_t ) DeltaTime.SubSeconds );
}

SysTime_t SysTimeGet( void )
{
 8007988:	b530      	push	{r4, r5, lr}
 800798a:	b087      	sub	sp, #28
 800798c:	4604      	mov	r4, r0
  SysTime_t calendarTime = { .Seconds = 0, .SubSeconds = 0 };
 800798e:	2300      	movs	r3, #0
 8007990:	9304      	str	r3, [sp, #16]
 8007992:	f8ad 3014 	strh.w	r3, [sp, #20]
  SysTime_t sysTime = { .Seconds = 0, .SubSeconds = 0 };
 8007996:	6003      	str	r3, [r0, #0]
 8007998:	8083      	strh	r3, [r0, #4]
  SysTime_t DeltaTime;

  calendarTime.Seconds = UTIL_SYSTIMDriver.GetCalendarTime( ( uint16_t* )&calendarTime.SubSeconds );
 800799a:	4d0b      	ldr	r5, [pc, #44]	; (80079c8 <SysTimeGet+0x40>)
 800799c:	692b      	ldr	r3, [r5, #16]
 800799e:	a805      	add	r0, sp, #20
 80079a0:	4798      	blx	r3
 80079a2:	9004      	str	r0, [sp, #16]

  DeltaTime.SubSeconds = (int16_t)UTIL_SYSTIMDriver.BKUPRead_SubSeconds();
 80079a4:	68eb      	ldr	r3, [r5, #12]
 80079a6:	4798      	blx	r3
 80079a8:	f8ad 000c 	strh.w	r0, [sp, #12]
  DeltaTime.Seconds = UTIL_SYSTIMDriver.BKUPRead_Seconds();
 80079ac:	686b      	ldr	r3, [r5, #4]
 80079ae:	4798      	blx	r3
 80079b0:	9002      	str	r0, [sp, #8]

  sysTime = SysTimeAdd( DeltaTime, calendarTime );
 80079b2:	9b05      	ldr	r3, [sp, #20]
 80079b4:	9300      	str	r3, [sp, #0]
 80079b6:	9b04      	ldr	r3, [sp, #16]
 80079b8:	aa02      	add	r2, sp, #8
 80079ba:	ca06      	ldmia	r2, {r1, r2}
 80079bc:	4620      	mov	r0, r4
 80079be:	f7ff ffc3 	bl	8007948 <SysTimeAdd>

  return sysTime;
}
 80079c2:	4620      	mov	r0, r4
 80079c4:	b007      	add	sp, #28
 80079c6:	bd30      	pop	{r4, r5, pc}
 80079c8:	0800938c 	.word	0x0800938c

080079cc <UTIL_TIMER_Init>:
  * @addtogroup TIMER_SERVER_exported_function
  *  @{
  */

UTIL_TIMER_Status_t UTIL_TIMER_Init(void)
{
 80079cc:	b508      	push	{r3, lr}
  UTIL_TIMER_INIT_CRITICAL_SECTION();
  TimerListHead = NULL;
 80079ce:	4b03      	ldr	r3, [pc, #12]	; (80079dc <UTIL_TIMER_Init+0x10>)
 80079d0:	2200      	movs	r2, #0
 80079d2:	601a      	str	r2, [r3, #0]
  return UTIL_TimerDriver.InitTimer();
 80079d4:	4b02      	ldr	r3, [pc, #8]	; (80079e0 <UTIL_TIMER_Init+0x14>)
 80079d6:	681b      	ldr	r3, [r3, #0]
 80079d8:	4798      	blx	r3
}
 80079da:	bd08      	pop	{r3, pc}
 80079dc:	200009ac 	.word	0x200009ac
 80079e0:	080093a0 	.word	0x080093a0

080079e4 <UTIL_TIMER_Create>:
  return UTIL_TimerDriver.DeInitTimer();
}

UTIL_TIMER_Status_t UTIL_TIMER_Create( UTIL_TIMER_Object_t *TimerObject, uint32_t PeriodValue, UTIL_TIMER_Mode_t Mode, void ( *Callback )( void *), void *Argument)
{
  if((TimerObject != NULL) && (Callback != NULL))
 80079e4:	b1a8      	cbz	r0, 8007a12 <UTIL_TIMER_Create+0x2e>
{
 80079e6:	b5f8      	push	{r3, r4, r5, r6, r7, lr}
 80079e8:	4617      	mov	r7, r2
 80079ea:	461e      	mov	r6, r3
 80079ec:	4604      	mov	r4, r0
  if((TimerObject != NULL) && (Callback != NULL))
 80079ee:	b193      	cbz	r3, 8007a16 <UTIL_TIMER_Create+0x32>
  {
    TimerObject->Timestamp = 0U;
 80079f0:	2500      	movs	r5, #0
 80079f2:	6005      	str	r5, [r0, #0]
    TimerObject->ReloadValue = UTIL_TimerDriver.ms2Tick(PeriodValue);
 80079f4:	4b09      	ldr	r3, [pc, #36]	; (8007a1c <UTIL_TIMER_Create+0x38>)
 80079f6:	6a5b      	ldr	r3, [r3, #36]	; 0x24
 80079f8:	4608      	mov	r0, r1
 80079fa:	4798      	blx	r3
 80079fc:	6060      	str	r0, [r4, #4]
    TimerObject->IsPending = 0U;
 80079fe:	7225      	strb	r5, [r4, #8]
    TimerObject->IsRunning = 0U;
 8007a00:	7265      	strb	r5, [r4, #9]
    TimerObject->IsReloadStopped = 0U;
 8007a02:	72a5      	strb	r5, [r4, #10]
    TimerObject->Callback = Callback;
 8007a04:	60e6      	str	r6, [r4, #12]
    TimerObject->argument = Argument;
 8007a06:	9b06      	ldr	r3, [sp, #24]
 8007a08:	6123      	str	r3, [r4, #16]
    TimerObject->Mode = Mode;
 8007a0a:	72e7      	strb	r7, [r4, #11]
    TimerObject->Next = NULL;
 8007a0c:	6165      	str	r5, [r4, #20]
    return UTIL_TIMER_OK;
 8007a0e:	4628      	mov	r0, r5
  }
  else
  {
    return UTIL_TIMER_INVALID_PARAM;
  }
}
 8007a10:	bdf8      	pop	{r3, r4, r5, r6, r7, pc}
    return UTIL_TIMER_INVALID_PARAM;
 8007a12:	2001      	movs	r0, #1
}
 8007a14:	4770      	bx	lr
    return UTIL_TIMER_INVALID_PARAM;
 8007a16:	2001      	movs	r0, #1
 8007a18:	e7fa      	b.n	8007a10 <UTIL_TIMER_Create+0x2c>
 8007a1a:	bf00      	nop
 8007a1c:	080093a0 	.word	0x080093a0

08007a20 <UTIL_TIMER_GetCurrentTime>:
  }
  UTIL_TIMER_EXIT_CRITICAL_SECTION();
}

UTIL_TIMER_Time_t UTIL_TIMER_GetCurrentTime(void)
{
 8007a20:	b510      	push	{r4, lr}
  uint32_t now = UTIL_TimerDriver.GetTimerValue( );
 8007a22:	4c03      	ldr	r4, [pc, #12]	; (8007a30 <UTIL_TIMER_GetCurrentTime+0x10>)
 8007a24:	69e3      	ldr	r3, [r4, #28]
 8007a26:	4798      	blx	r3
  return  UTIL_TimerDriver.Tick2ms(now);
 8007a28:	6aa3      	ldr	r3, [r4, #40]	; 0x28
 8007a2a:	4798      	blx	r3
}
 8007a2c:	bd10      	pop	{r4, pc}
 8007a2e:	bf00      	nop
 8007a30:	080093a0 	.word	0x080093a0

08007a34 <UTIL_TIMER_GetElapsedTime>:

UTIL_TIMER_Time_t UTIL_TIMER_GetElapsedTime(UTIL_TIMER_Time_t past )
{
 8007a34:	b570      	push	{r4, r5, r6, lr}
 8007a36:	4606      	mov	r6, r0
  uint32_t nowInTicks = UTIL_TimerDriver.GetTimerValue( );
 8007a38:	4d05      	ldr	r5, [pc, #20]	; (8007a50 <UTIL_TIMER_GetElapsedTime+0x1c>)
 8007a3a:	69eb      	ldr	r3, [r5, #28]
 8007a3c:	4798      	blx	r3
 8007a3e:	4604      	mov	r4, r0
  uint32_t pastInTicks = UTIL_TimerDriver.ms2Tick( past );
 8007a40:	6a6b      	ldr	r3, [r5, #36]	; 0x24
 8007a42:	4630      	mov	r0, r6
 8007a44:	4798      	blx	r3
  /* intentional wrap around. Works Ok if tick duation below 1ms */
  return UTIL_TimerDriver.Tick2ms( nowInTicks- pastInTicks );
 8007a46:	6aab      	ldr	r3, [r5, #40]	; 0x28
 8007a48:	1a20      	subs	r0, r4, r0
 8007a4a:	4798      	blx	r3
}
 8007a4c:	bd70      	pop	{r4, r5, r6, pc}
 8007a4e:	bf00      	nop
 8007a50:	080093a0 	.word	0x080093a0

08007a54 <TimerExists>:
 * @param TimerObject Structure containing the timer object parameters
 * @retval 1 (the object is already in the list) or 0
 */
bool TimerExists( UTIL_TIMER_Object_t *TimerObject )
{
  UTIL_TIMER_Object_t* cur = TimerListHead;
 8007a54:	4b05      	ldr	r3, [pc, #20]	; (8007a6c <TimerExists+0x18>)
 8007a56:	681b      	ldr	r3, [r3, #0]

  while( cur != NULL )
 8007a58:	e000      	b.n	8007a5c <TimerExists+0x8>
  {
    if( cur == TimerObject )
    {
      return true;
    }
    cur = cur->Next;
 8007a5a:	695b      	ldr	r3, [r3, #20]
  while( cur != NULL )
 8007a5c:	b11b      	cbz	r3, 8007a66 <TimerExists+0x12>
    if( cur == TimerObject )
 8007a5e:	4283      	cmp	r3, r0
 8007a60:	d1fb      	bne.n	8007a5a <TimerExists+0x6>
      return true;
 8007a62:	2001      	movs	r0, #1
  }
  return false;
}
 8007a64:	4770      	bx	lr
  return false;
 8007a66:	2000      	movs	r0, #0
 8007a68:	4770      	bx	lr
 8007a6a:	bf00      	nop
 8007a6c:	200009ac 	.word	0x200009ac

08007a70 <TimerSetTimeout>:
 * @brief Sets a timeout with the duration "timestamp"
 *
 * @param TimerObject Structure containing the timer object parameters
 */
void TimerSetTimeout( UTIL_TIMER_Object_t *TimerObject )
{
 8007a70:	b5f8      	push	{r3, r4, r5, r6, r7, lr}
 8007a72:	4604      	mov	r4, r0
  uint32_t minTicks= UTIL_TimerDriver.GetMinimumTimeout( );
 8007a74:	4e09      	ldr	r6, [pc, #36]	; (8007a9c <TimerSetTimeout+0x2c>)
 8007a76:	6a33      	ldr	r3, [r6, #32]
 8007a78:	4798      	blx	r3
 8007a7a:	4605      	mov	r5, r0
  TimerObject->IsPending = 1;
 8007a7c:	2301      	movs	r3, #1
 8007a7e:	7223      	strb	r3, [r4, #8]

  /* In case deadline too soon */
  if(TimerObject->Timestamp  < (UTIL_TimerDriver.GetTimerElapsedTime(  ) + minTicks) )
 8007a80:	6827      	ldr	r7, [r4, #0]
 8007a82:	69b6      	ldr	r6, [r6, #24]
 8007a84:	47b0      	blx	r6
 8007a86:	4428      	add	r0, r5
 8007a88:	4287      	cmp	r7, r0
 8007a8a:	d202      	bcs.n	8007a92 <TimerSetTimeout+0x22>
  {
	  TimerObject->Timestamp = UTIL_TimerDriver.GetTimerElapsedTime(  ) + minTicks;
 8007a8c:	47b0      	blx	r6
 8007a8e:	4428      	add	r0, r5
 8007a90:	6020      	str	r0, [r4, #0]
  }
  UTIL_TimerDriver.StartTimerEvt( TimerObject->Timestamp );
 8007a92:	4b02      	ldr	r3, [pc, #8]	; (8007a9c <TimerSetTimeout+0x2c>)
 8007a94:	689b      	ldr	r3, [r3, #8]
 8007a96:	6820      	ldr	r0, [r4, #0]
 8007a98:	4798      	blx	r3
}
 8007a9a:	bdf8      	pop	{r3, r4, r5, r6, r7, pc}
 8007a9c:	080093a0 	.word	0x080093a0

08007aa0 <UTIL_TIMER_Stop>:
  if (NULL != TimerObject)
 8007aa0:	b368      	cbz	r0, 8007afe <UTIL_TIMER_Stop+0x5e>
{
 8007aa2:	b510      	push	{r4, lr}
 8007aa4:	4602      	mov	r2, r0
  __ASM volatile ("MRS %0, primask" : "=r" (result) :: "memory");
 8007aa6:	f3ef 8410 	mrs	r4, PRIMASK
  __ASM volatile ("cpsid i" : : : "memory");
 8007aaa:	b672      	cpsid	i
    UTIL_TIMER_Object_t* prev = TimerListHead;
 8007aac:	4b15      	ldr	r3, [pc, #84]	; (8007b04 <UTIL_TIMER_Stop+0x64>)
 8007aae:	6819      	ldr	r1, [r3, #0]
    TimerObject->IsReloadStopped = 1U;
 8007ab0:	2301      	movs	r3, #1
 8007ab2:	7283      	strb	r3, [r0, #10]
    if(NULL != TimerListHead)
 8007ab4:	b1e1      	cbz	r1, 8007af0 <UTIL_TIMER_Stop+0x50>
      TimerObject->IsRunning = 0U;
 8007ab6:	2300      	movs	r3, #0
 8007ab8:	7243      	strb	r3, [r0, #9]
      if( TimerListHead == TimerObject ) /* Stop the Head */
 8007aba:	4288      	cmp	r0, r1
 8007abc:	d006      	beq.n	8007acc <UTIL_TIMER_Stop+0x2c>
    UTIL_TIMER_Object_t* cur = TimerListHead;
 8007abe:	460b      	mov	r3, r1
        while( cur != NULL )
 8007ac0:	b1b3      	cbz	r3, 8007af0 <UTIL_TIMER_Stop+0x50>
          if( cur == TimerObject )
 8007ac2:	4293      	cmp	r3, r2
 8007ac4:	d011      	beq.n	8007aea <UTIL_TIMER_Stop+0x4a>
            prev = cur;
 8007ac6:	4619      	mov	r1, r3
            cur = cur->Next;
 8007ac8:	695b      	ldr	r3, [r3, #20]
 8007aca:	e7f9      	b.n	8007ac0 <UTIL_TIMER_Stop+0x20>
          TimerListHead->IsPending = 0;
 8007acc:	720b      	strb	r3, [r1, #8]
          if( TimerListHead->Next != NULL )
 8007ace:	6948      	ldr	r0, [r1, #20]
 8007ad0:	b120      	cbz	r0, 8007adc <UTIL_TIMER_Stop+0x3c>
            TimerListHead = TimerListHead->Next;
 8007ad2:	4b0c      	ldr	r3, [pc, #48]	; (8007b04 <UTIL_TIMER_Stop+0x64>)
 8007ad4:	6018      	str	r0, [r3, #0]
            TimerSetTimeout( TimerListHead );
 8007ad6:	f7ff ffcb 	bl	8007a70 <TimerSetTimeout>
 8007ada:	e009      	b.n	8007af0 <UTIL_TIMER_Stop+0x50>
            UTIL_TimerDriver.StopTimerEvt( );
 8007adc:	4b0a      	ldr	r3, [pc, #40]	; (8007b08 <UTIL_TIMER_Stop+0x68>)
 8007ade:	68db      	ldr	r3, [r3, #12]
 8007ae0:	4798      	blx	r3
            TimerListHead = NULL;
 8007ae2:	4b08      	ldr	r3, [pc, #32]	; (8007b04 <UTIL_TIMER_Stop+0x64>)
 8007ae4:	2200      	movs	r2, #0
 8007ae6:	601a      	str	r2, [r3, #0]
 8007ae8:	e002      	b.n	8007af0 <UTIL_TIMER_Stop+0x50>
            if( cur->Next != NULL )
 8007aea:	695b      	ldr	r3, [r3, #20]
 8007aec:	b123      	cbz	r3, 8007af8 <UTIL_TIMER_Stop+0x58>
              prev->Next = cur;
 8007aee:	614b      	str	r3, [r1, #20]
  __ASM volatile ("MSR primask, %0" : : "r" (priMask) : "memory");
 8007af0:	f384 8810 	msr	PRIMASK, r4
}
 8007af4:	2000      	movs	r0, #0
}
 8007af6:	bd10      	pop	{r4, pc}
              prev->Next = cur;
 8007af8:	2300      	movs	r3, #0
 8007afa:	614b      	str	r3, [r1, #20]
 8007afc:	e7f8      	b.n	8007af0 <UTIL_TIMER_Stop+0x50>
    ret = UTIL_TIMER_INVALID_PARAM;
 8007afe:	2001      	movs	r0, #1
}
 8007b00:	4770      	bx	lr
 8007b02:	bf00      	nop
 8007b04:	200009ac 	.word	0x200009ac
 8007b08:	080093a0 	.word	0x080093a0

08007b0c <TimerInsertTimer>:
 *
 * @param TimerObject Structure containing the timer object parameters
 */
void TimerInsertTimer( UTIL_TIMER_Object_t *TimerObject)
{
  UTIL_TIMER_Object_t* cur = TimerListHead;
 8007b0c:	4b09      	ldr	r3, [pc, #36]	; (8007b34 <TimerInsertTimer+0x28>)
 8007b0e:	681a      	ldr	r2, [r3, #0]
  UTIL_TIMER_Object_t* next = TimerListHead->Next;
 8007b10:	6953      	ldr	r3, [r2, #20]

  while (cur->Next != NULL )
 8007b12:	e001      	b.n	8007b18 <TimerInsertTimer+0xc>
  {  
    if( TimerObject->Timestamp  > next->Timestamp )
    {
        cur = next;
 8007b14:	461a      	mov	r2, r3
        next = next->Next;
 8007b16:	695b      	ldr	r3, [r3, #20]
  while (cur->Next != NULL )
 8007b18:	6951      	ldr	r1, [r2, #20]
 8007b1a:	b139      	cbz	r1, 8007b2c <TimerInsertTimer+0x20>
    if( TimerObject->Timestamp  > next->Timestamp )
 8007b1c:	6819      	ldr	r1, [r3, #0]
 8007b1e:	f8d0 c000 	ldr.w	ip, [r0]
 8007b22:	458c      	cmp	ip, r1
 8007b24:	d8f6      	bhi.n	8007b14 <TimerInsertTimer+0x8>
    }
    else
    {
        cur->Next = TimerObject;
 8007b26:	6150      	str	r0, [r2, #20]
        TimerObject->Next = next;
 8007b28:	6143      	str	r3, [r0, #20]
        return;
 8007b2a:	4770      	bx	lr

    }
  }
  cur->Next = TimerObject;
 8007b2c:	6150      	str	r0, [r2, #20]
  TimerObject->Next = NULL;
 8007b2e:	2300      	movs	r3, #0
 8007b30:	6143      	str	r3, [r0, #20]
}
 8007b32:	4770      	bx	lr
 8007b34:	200009ac 	.word	0x200009ac

08007b38 <TimerInsertNewHeadTimer>:
 *
 * @remark The list is automatically sorted. The list head always contains the
 *         next timer to expire.
 */
void TimerInsertNewHeadTimer( UTIL_TIMER_Object_t *TimerObject )
{
 8007b38:	b508      	push	{r3, lr}
  UTIL_TIMER_Object_t* cur = TimerListHead;
 8007b3a:	4b05      	ldr	r3, [pc, #20]	; (8007b50 <TimerInsertNewHeadTimer+0x18>)
 8007b3c:	681b      	ldr	r3, [r3, #0]

  if( cur != NULL )
 8007b3e:	b10b      	cbz	r3, 8007b44 <TimerInsertNewHeadTimer+0xc>
  {
    cur->IsPending = 0;
 8007b40:	2200      	movs	r2, #0
 8007b42:	721a      	strb	r2, [r3, #8]
  }

  TimerObject->Next = cur;
 8007b44:	6143      	str	r3, [r0, #20]
  TimerListHead = TimerObject;
 8007b46:	4b02      	ldr	r3, [pc, #8]	; (8007b50 <TimerInsertNewHeadTimer+0x18>)
 8007b48:	6018      	str	r0, [r3, #0]
  TimerSetTimeout( TimerListHead );
 8007b4a:	f7ff ff91 	bl	8007a70 <TimerSetTimeout>
}
 8007b4e:	bd08      	pop	{r3, pc}
 8007b50:	200009ac 	.word	0x200009ac

08007b54 <UTIL_TIMER_Start>:
{
 8007b54:	b5f8      	push	{r3, r4, r5, r6, r7, lr}
  if(( TimerObject != NULL ) && ( TimerExists( TimerObject ) == false ) && (TimerObject->IsRunning == 0U))
 8007b56:	2800      	cmp	r0, #0
 8007b58:	d036      	beq.n	8007bc8 <UTIL_TIMER_Start+0x74>
 8007b5a:	4604      	mov	r4, r0
 8007b5c:	f7ff ff7a 	bl	8007a54 <TimerExists>
 8007b60:	2800      	cmp	r0, #0
 8007b62:	d134      	bne.n	8007bce <UTIL_TIMER_Start+0x7a>
 8007b64:	7a65      	ldrb	r5, [r4, #9]
 8007b66:	2d00      	cmp	r5, #0
 8007b68:	d133      	bne.n	8007bd2 <UTIL_TIMER_Start+0x7e>
  __ASM volatile ("MRS %0, primask" : "=r" (result) :: "memory");
 8007b6a:	f3ef 8610 	mrs	r6, PRIMASK
  __ASM volatile ("cpsid i" : : : "memory");
 8007b6e:	b672      	cpsid	i
    ticks = TimerObject->ReloadValue;
 8007b70:	6867      	ldr	r7, [r4, #4]
    minValue = UTIL_TimerDriver.GetMinimumTimeout( );
 8007b72:	4b19      	ldr	r3, [pc, #100]	; (8007bd8 <UTIL_TIMER_Start+0x84>)
 8007b74:	6a1b      	ldr	r3, [r3, #32]
 8007b76:	4798      	blx	r3
    if( ticks < minValue )
 8007b78:	4287      	cmp	r7, r0
 8007b7a:	d300      	bcc.n	8007b7e <UTIL_TIMER_Start+0x2a>
    ticks = TimerObject->ReloadValue;
 8007b7c:	4638      	mov	r0, r7
    TimerObject->Timestamp = ticks;
 8007b7e:	6020      	str	r0, [r4, #0]
    TimerObject->IsPending = 0U;
 8007b80:	2300      	movs	r3, #0
 8007b82:	7223      	strb	r3, [r4, #8]
    TimerObject->IsRunning = 1U;
 8007b84:	2201      	movs	r2, #1
 8007b86:	7262      	strb	r2, [r4, #9]
    TimerObject->IsReloadStopped = 0U;
 8007b88:	72a3      	strb	r3, [r4, #10]
    if( TimerListHead == NULL )
 8007b8a:	4b14      	ldr	r3, [pc, #80]	; (8007bdc <UTIL_TIMER_Start+0x88>)
 8007b8c:	681b      	ldr	r3, [r3, #0]
 8007b8e:	b183      	cbz	r3, 8007bb2 <UTIL_TIMER_Start+0x5e>
      elapsedTime = UTIL_TimerDriver.GetTimerElapsedTime( );
 8007b90:	4b11      	ldr	r3, [pc, #68]	; (8007bd8 <UTIL_TIMER_Start+0x84>)
 8007b92:	699b      	ldr	r3, [r3, #24]
 8007b94:	4798      	blx	r3
      TimerObject->Timestamp += elapsedTime;
 8007b96:	6823      	ldr	r3, [r4, #0]
 8007b98:	4418      	add	r0, r3
 8007b9a:	6020      	str	r0, [r4, #0]
      if( TimerObject->Timestamp < TimerListHead->Timestamp )
 8007b9c:	4b0f      	ldr	r3, [pc, #60]	; (8007bdc <UTIL_TIMER_Start+0x88>)
 8007b9e:	681b      	ldr	r3, [r3, #0]
 8007ba0:	681b      	ldr	r3, [r3, #0]
 8007ba2:	4298      	cmp	r0, r3
 8007ba4:	d20c      	bcs.n	8007bc0 <UTIL_TIMER_Start+0x6c>
        TimerInsertNewHeadTimer( TimerObject);
 8007ba6:	4620      	mov	r0, r4
 8007ba8:	f7ff ffc6 	bl	8007b38 <TimerInsertNewHeadTimer>
  __ASM volatile ("MSR primask, %0" : : "r" (priMask) : "memory");
 8007bac:	f386 8810 	msr	PRIMASK, r6
}
 8007bb0:	e00b      	b.n	8007bca <UTIL_TIMER_Start+0x76>
      UTIL_TimerDriver.SetTimerContext();
 8007bb2:	4b09      	ldr	r3, [pc, #36]	; (8007bd8 <UTIL_TIMER_Start+0x84>)
 8007bb4:	691b      	ldr	r3, [r3, #16]
 8007bb6:	4798      	blx	r3
      TimerInsertNewHeadTimer( TimerObject ); /* insert a timeout at now+obj->Timestamp */
 8007bb8:	4620      	mov	r0, r4
 8007bba:	f7ff ffbd 	bl	8007b38 <TimerInsertNewHeadTimer>
 8007bbe:	e7f5      	b.n	8007bac <UTIL_TIMER_Start+0x58>
        TimerInsertTimer( TimerObject);
 8007bc0:	4620      	mov	r0, r4
 8007bc2:	f7ff ffa3 	bl	8007b0c <TimerInsertTimer>
 8007bc6:	e7f1      	b.n	8007bac <UTIL_TIMER_Start+0x58>
    ret =  UTIL_TIMER_INVALID_PARAM;
 8007bc8:	2501      	movs	r5, #1
}
 8007bca:	4628      	mov	r0, r5
 8007bcc:	bdf8      	pop	{r3, r4, r5, r6, r7, pc}
    ret =  UTIL_TIMER_INVALID_PARAM;
 8007bce:	2501      	movs	r5, #1
 8007bd0:	e7fb      	b.n	8007bca <UTIL_TIMER_Start+0x76>
 8007bd2:	2501      	movs	r5, #1
 8007bd4:	e7f9      	b.n	8007bca <UTIL_TIMER_Start+0x76>
 8007bd6:	bf00      	nop
 8007bd8:	080093a0 	.word	0x080093a0
 8007bdc:	200009ac 	.word	0x200009ac

08007be0 <UTIL_TIMER_SetPeriod>:
  if(NULL == TimerObject)
 8007be0:	b198      	cbz	r0, 8007c0a <UTIL_TIMER_SetPeriod+0x2a>
{
 8007be2:	b510      	push	{r4, lr}
 8007be4:	4604      	mov	r4, r0
    TimerObject->ReloadValue = UTIL_TimerDriver.ms2Tick(NewPeriodValue);
 8007be6:	4b0a      	ldr	r3, [pc, #40]	; (8007c10 <UTIL_TIMER_SetPeriod+0x30>)
 8007be8:	6a5b      	ldr	r3, [r3, #36]	; 0x24
 8007bea:	4608      	mov	r0, r1
 8007bec:	4798      	blx	r3
 8007bee:	6060      	str	r0, [r4, #4]
    if(TimerExists(TimerObject))
 8007bf0:	4620      	mov	r0, r4
 8007bf2:	f7ff ff2f 	bl	8007a54 <TimerExists>
 8007bf6:	b908      	cbnz	r0, 8007bfc <UTIL_TIMER_SetPeriod+0x1c>
  UTIL_TIMER_Status_t  ret = UTIL_TIMER_OK;
 8007bf8:	2000      	movs	r0, #0
}
 8007bfa:	bd10      	pop	{r4, pc}
      (void)UTIL_TIMER_Stop(TimerObject);
 8007bfc:	4620      	mov	r0, r4
 8007bfe:	f7ff ff4f 	bl	8007aa0 <UTIL_TIMER_Stop>
      ret = UTIL_TIMER_Start(TimerObject);
 8007c02:	4620      	mov	r0, r4
 8007c04:	f7ff ffa6 	bl	8007b54 <UTIL_TIMER_Start>
 8007c08:	e7f7      	b.n	8007bfa <UTIL_TIMER_SetPeriod+0x1a>
	  ret = UTIL_TIMER_INVALID_PARAM;
 8007c0a:	2001      	movs	r0, #1
}
 8007c0c:	4770      	bx	lr
 8007c0e:	bf00      	nop
 8007c10:	080093a0 	.word	0x080093a0

08007c14 <UTIL_TIMER_IRQ_Handler>:
{
 8007c14:	b570      	push	{r4, r5, r6, lr}
  __ASM volatile ("MRS %0, primask" : "=r" (result) :: "memory");
 8007c16:	f3ef 8510 	mrs	r5, PRIMASK
  __ASM volatile ("cpsid i" : : : "memory");
 8007c1a:	b672      	cpsid	i
  old  =  UTIL_TimerDriver.GetTimerContext( );
 8007c1c:	4c1e      	ldr	r4, [pc, #120]	; (8007c98 <UTIL_TIMER_IRQ_Handler+0x84>)
 8007c1e:	6963      	ldr	r3, [r4, #20]
 8007c20:	4798      	blx	r3
 8007c22:	4606      	mov	r6, r0
  now  =  UTIL_TimerDriver.SetTimerContext( );
 8007c24:	6923      	ldr	r3, [r4, #16]
 8007c26:	4798      	blx	r3
  DeltaContext = now  - old; /*intentional wrap around */
 8007c28:	1b84      	subs	r4, r0, r6
  if ( TimerListHead != NULL )
 8007c2a:	4b1c      	ldr	r3, [pc, #112]	; (8007c9c <UTIL_TIMER_IRQ_Handler+0x88>)
 8007c2c:	681b      	ldr	r3, [r3, #0]
 8007c2e:	b923      	cbnz	r3, 8007c3a <UTIL_TIMER_IRQ_Handler+0x26>
 8007c30:	e018      	b.n	8007c64 <UTIL_TIMER_IRQ_Handler+0x50>
        cur->Timestamp = 0;
 8007c32:	2200      	movs	r2, #0
 8007c34:	601a      	str	r2, [r3, #0]
      cur = cur->Next;
 8007c36:	695b      	ldr	r3, [r3, #20]
    } while(cur != NULL);
 8007c38:	b1a3      	cbz	r3, 8007c64 <UTIL_TIMER_IRQ_Handler+0x50>
      if (cur->Timestamp > DeltaContext)
 8007c3a:	681a      	ldr	r2, [r3, #0]
 8007c3c:	42a2      	cmp	r2, r4
 8007c3e:	d9f8      	bls.n	8007c32 <UTIL_TIMER_IRQ_Handler+0x1e>
        cur->Timestamp -= DeltaContext;
 8007c40:	1a31      	subs	r1, r6, r0
 8007c42:	440a      	add	r2, r1
 8007c44:	601a      	str	r2, [r3, #0]
 8007c46:	e7f6      	b.n	8007c36 <UTIL_TIMER_IRQ_Handler+0x22>
      cur = TimerListHead;
 8007c48:	4b14      	ldr	r3, [pc, #80]	; (8007c9c <UTIL_TIMER_IRQ_Handler+0x88>)
 8007c4a:	681c      	ldr	r4, [r3, #0]
      TimerListHead = TimerListHead->Next;
 8007c4c:	6962      	ldr	r2, [r4, #20]
 8007c4e:	601a      	str	r2, [r3, #0]
      cur->IsPending = 0;
 8007c50:	2300      	movs	r3, #0
 8007c52:	7223      	strb	r3, [r4, #8]
      cur->IsRunning = 0;
 8007c54:	7263      	strb	r3, [r4, #9]
      cur->Callback(cur->argument);
 8007c56:	68e3      	ldr	r3, [r4, #12]
 8007c58:	6920      	ldr	r0, [r4, #16]
 8007c5a:	4798      	blx	r3
      if(( cur->Mode == UTIL_TIMER_PERIODIC) && (cur->IsReloadStopped == 0U))
 8007c5c:	8963      	ldrh	r3, [r4, #10]
 8007c5e:	f5b3 7f80 	cmp.w	r3, #256	; 0x100
 8007c62:	d012      	beq.n	8007c8a <UTIL_TIMER_IRQ_Handler+0x76>
  while ((TimerListHead != NULL) && ((TimerListHead->Timestamp == 0U) || (TimerListHead->Timestamp < UTIL_TimerDriver.GetTimerElapsedTime(  ))))
 8007c64:	4b0d      	ldr	r3, [pc, #52]	; (8007c9c <UTIL_TIMER_IRQ_Handler+0x88>)
 8007c66:	681b      	ldr	r3, [r3, #0]
 8007c68:	b13b      	cbz	r3, 8007c7a <UTIL_TIMER_IRQ_Handler+0x66>
 8007c6a:	681c      	ldr	r4, [r3, #0]
 8007c6c:	2c00      	cmp	r4, #0
 8007c6e:	d0eb      	beq.n	8007c48 <UTIL_TIMER_IRQ_Handler+0x34>
 8007c70:	4b09      	ldr	r3, [pc, #36]	; (8007c98 <UTIL_TIMER_IRQ_Handler+0x84>)
 8007c72:	699b      	ldr	r3, [r3, #24]
 8007c74:	4798      	blx	r3
 8007c76:	4284      	cmp	r4, r0
 8007c78:	d3e6      	bcc.n	8007c48 <UTIL_TIMER_IRQ_Handler+0x34>
  if(( TimerListHead != NULL ) && (TimerListHead->IsPending == 0U))
 8007c7a:	4b08      	ldr	r3, [pc, #32]	; (8007c9c <UTIL_TIMER_IRQ_Handler+0x88>)
 8007c7c:	6818      	ldr	r0, [r3, #0]
 8007c7e:	b108      	cbz	r0, 8007c84 <UTIL_TIMER_IRQ_Handler+0x70>
 8007c80:	7a03      	ldrb	r3, [r0, #8]
 8007c82:	b133      	cbz	r3, 8007c92 <UTIL_TIMER_IRQ_Handler+0x7e>
  __ASM volatile ("MSR primask, %0" : : "r" (priMask) : "memory");
 8007c84:	f385 8810 	msr	PRIMASK, r5
}
 8007c88:	bd70      	pop	{r4, r5, r6, pc}
        (void)UTIL_TIMER_Start(cur);
 8007c8a:	4620      	mov	r0, r4
 8007c8c:	f7ff ff62 	bl	8007b54 <UTIL_TIMER_Start>
 8007c90:	e7e8      	b.n	8007c64 <UTIL_TIMER_IRQ_Handler+0x50>
    TimerSetTimeout( TimerListHead );
 8007c92:	f7ff feed 	bl	8007a70 <TimerSetTimeout>
 8007c96:	e7f5      	b.n	8007c84 <UTIL_TIMER_IRQ_Handler+0x70>
 8007c98:	080093a0 	.word	0x080093a0
 8007c9c:	200009ac 	.word	0x200009ac

08007ca0 <ee_skip_atoi>:
  return sc - s;
}
#endif

static int ee_skip_atoi(const char **s)
{
 8007ca0:	4601      	mov	r1, r0
  int i = 0;
 8007ca2:	2000      	movs	r0, #0
  while (is_digit(**s)) i = i*10 + *((*s)++) - '0';
 8007ca4:	e008      	b.n	8007cb8 <ee_skip_atoi+0x18>
 8007ca6:	eb00 0080 	add.w	r0, r0, r0, lsl #2
 8007caa:	1c53      	adds	r3, r2, #1
 8007cac:	600b      	str	r3, [r1, #0]
 8007cae:	7813      	ldrb	r3, [r2, #0]
 8007cb0:	eb03 0340 	add.w	r3, r3, r0, lsl #1
 8007cb4:	f1a3 0030 	sub.w	r0, r3, #48	; 0x30
 8007cb8:	680a      	ldr	r2, [r1, #0]
 8007cba:	7813      	ldrb	r3, [r2, #0]
 8007cbc:	3b30      	subs	r3, #48	; 0x30
 8007cbe:	b2db      	uxtb	r3, r3
 8007cc0:	2b09      	cmp	r3, #9
 8007cc2:	d9f0      	bls.n	8007ca6 <ee_skip_atoi+0x6>
  return i;
}
 8007cc4:	4770      	bx	lr
	...

08007cc8 <ee_number>:

#define ASSIGN_STR(_c)  do { *str++ = (_c); max_size--; if (max_size == 0) return str; } while (0)

static char *ee_number(char *str, int max_size, long num, int base, int size, int precision, int type)
{
 8007cc8:	e92d 45f0 	stmdb	sp!, {r4, r5, r6, r7, r8, sl, lr}
 8007ccc:	b093      	sub	sp, #76	; 0x4c
 8007cce:	9d1b      	ldr	r5, [sp, #108]	; 0x6c
 8007cd0:	9e1c      	ldr	r6, [sp, #112]	; 0x70
  char c;
  char sign, tmp[66];
  char *dig = lower_digits;
  int i;

  if (type & UPPERCASE)  dig = upper_digits;
 8007cd2:	f016 0f40 	tst.w	r6, #64	; 0x40
 8007cd6:	d110      	bne.n	8007cfa <ee_number+0x32>
  char *dig = lower_digits;
 8007cd8:	f8df a0f8 	ldr.w	sl, [pc, #248]	; 8007dd4 <ee_number+0x10c>
#ifdef TINY_PRINTF
#else
  if (type & LEFT) type &= ~ZEROPAD;
#endif
  if (base < 2 || base > 36) return 0;
 8007cdc:	1e9f      	subs	r7, r3, #2
 8007cde:	2f22      	cmp	r7, #34	; 0x22
 8007ce0:	d875      	bhi.n	8007dce <ee_number+0x106>

  c = (type & ZEROPAD) ? '0' : ' ';
 8007ce2:	f016 0401 	ands.w	r4, r6, #1
 8007ce6:	d00b      	beq.n	8007d00 <ee_number+0x38>
 8007ce8:	f04f 0e30 	mov.w	lr, #48	; 0x30
  sign = 0;
  if (type & SIGN)
 8007cec:	f016 0f02 	tst.w	r6, #2
 8007cf0:	d00f      	beq.n	8007d12 <ee_number+0x4a>
  {
    if (num < 0)
 8007cf2:	2a00      	cmp	r2, #0
 8007cf4:	db07      	blt.n	8007d06 <ee_number+0x3e>
  sign = 0;
 8007cf6:	2700      	movs	r7, #0
 8007cf8:	e00c      	b.n	8007d14 <ee_number+0x4c>
  if (type & UPPERCASE)  dig = upper_digits;
 8007cfa:	f8df a0dc 	ldr.w	sl, [pc, #220]	; 8007dd8 <ee_number+0x110>
 8007cfe:	e7ed      	b.n	8007cdc <ee_number+0x14>
  c = (type & ZEROPAD) ? '0' : ' ';
 8007d00:	f04f 0e20 	mov.w	lr, #32
 8007d04:	e7f2      	b.n	8007cec <ee_number+0x24>
    {
      sign = '-';
      num = -num;
 8007d06:	4252      	negs	r2, r2
      size--;
 8007d08:	9e1a      	ldr	r6, [sp, #104]	; 0x68
 8007d0a:	3e01      	subs	r6, #1
 8007d0c:	961a      	str	r6, [sp, #104]	; 0x68
      sign = '-';
 8007d0e:	272d      	movs	r7, #45	; 0x2d
 8007d10:	e000      	b.n	8007d14 <ee_number+0x4c>
  sign = 0;
 8007d12:	2700      	movs	r7, #0
  }
#endif

  i = 0;

  if (num == 0)
 8007d14:	bb5a      	cbnz	r2, 8007d6e <ee_number+0xa6>
    tmp[i++] = '0';
 8007d16:	2330      	movs	r3, #48	; 0x30
 8007d18:	f88d 3004 	strb.w	r3, [sp, #4]
 8007d1c:	f04f 0c01 	mov.w	ip, #1
      tmp[i++] = dig[((unsigned long) num) % (unsigned) base];
      num = ((unsigned long) num) / (unsigned) base;
    }
  }

  if (i > precision) precision = i;
 8007d20:	45ac      	cmp	ip, r5
 8007d22:	dd00      	ble.n	8007d26 <ee_number+0x5e>
 8007d24:	4665      	mov	r5, ip
  size -= precision;
 8007d26:	9b1a      	ldr	r3, [sp, #104]	; 0x68
 8007d28:	1b5b      	subs	r3, r3, r5
  if (!(type & (ZEROPAD /* TINY option   | LEFT */))) while (size-- > 0) ASSIGN_STR(' ');
 8007d2a:	b31c      	cbz	r4, 8007d74 <ee_number+0xac>
  if (sign) ASSIGN_STR(sign);
 8007d2c:	b11f      	cbz	r7, 8007d36 <ee_number+0x6e>
 8007d2e:	f800 7b01 	strb.w	r7, [r0], #1
 8007d32:	3901      	subs	r1, #1
 8007d34:	d007      	beq.n	8007d46 <ee_number+0x7e>
    }
  }
#endif

#ifdef TINY_PRINTF
  while (size-- > 0) ASSIGN_STR(c);
 8007d36:	2b00      	cmp	r3, #0
 8007d38:	f103 33ff 	add.w	r3, r3, #4294967295
 8007d3c:	dd24      	ble.n	8007d88 <ee_number+0xc0>
 8007d3e:	f800 eb01 	strb.w	lr, [r0], #1
 8007d42:	3901      	subs	r1, #1
 8007d44:	d1f7      	bne.n	8007d36 <ee_number+0x6e>
  while (i < precision--) ASSIGN_STR('0');
  while (i-- > 0) ASSIGN_STR(tmp[i]);
  while (size-- > 0) ASSIGN_STR(' ');

  return str;
}
 8007d46:	b013      	add	sp, #76	; 0x4c
 8007d48:	e8bd 85f0 	ldmia.w	sp!, {r4, r5, r6, r7, r8, sl, pc}
      tmp[i++] = dig[((unsigned long) num) % (unsigned) base];
 8007d4c:	fbb2 f6f3 	udiv	r6, r2, r3
 8007d50:	fb03 2216 	mls	r2, r3, r6, r2
 8007d54:	f81a 8002 	ldrb.w	r8, [sl, r2]
 8007d58:	f10c 0248 	add.w	r2, ip, #72	; 0x48
 8007d5c:	446a      	add	r2, sp
 8007d5e:	f802 8c44 	strb.w	r8, [r2, #-68]
      num = ((unsigned long) num) / (unsigned) base;
 8007d62:	4632      	mov	r2, r6
      tmp[i++] = dig[((unsigned long) num) % (unsigned) base];
 8007d64:	f10c 0c01 	add.w	ip, ip, #1
    while (num != 0)
 8007d68:	2a00      	cmp	r2, #0
 8007d6a:	d1ef      	bne.n	8007d4c <ee_number+0x84>
 8007d6c:	e7d8      	b.n	8007d20 <ee_number+0x58>
  i = 0;
 8007d6e:	f04f 0c00 	mov.w	ip, #0
 8007d72:	e7f9      	b.n	8007d68 <ee_number+0xa0>
  if (!(type & (ZEROPAD /* TINY option   | LEFT */))) while (size-- > 0) ASSIGN_STR(' ');
 8007d74:	2b00      	cmp	r3, #0
 8007d76:	f103 33ff 	add.w	r3, r3, #4294967295
 8007d7a:	ddd7      	ble.n	8007d2c <ee_number+0x64>
 8007d7c:	2220      	movs	r2, #32
 8007d7e:	f800 2b01 	strb.w	r2, [r0], #1
 8007d82:	3901      	subs	r1, #1
 8007d84:	d1f6      	bne.n	8007d74 <ee_number+0xac>
 8007d86:	e7de      	b.n	8007d46 <ee_number+0x7e>
  while (i < precision--) ASSIGN_STR('0');
 8007d88:	4565      	cmp	r5, ip
 8007d8a:	f105 35ff 	add.w	r5, r5, #4294967295
 8007d8e:	dd05      	ble.n	8007d9c <ee_number+0xd4>
 8007d90:	2230      	movs	r2, #48	; 0x30
 8007d92:	f800 2b01 	strb.w	r2, [r0], #1
 8007d96:	3901      	subs	r1, #1
 8007d98:	d1f6      	bne.n	8007d88 <ee_number+0xc0>
 8007d9a:	e7d4      	b.n	8007d46 <ee_number+0x7e>
  while (i-- > 0) ASSIGN_STR(tmp[i]);
 8007d9c:	4662      	mov	r2, ip
 8007d9e:	2a00      	cmp	r2, #0
 8007da0:	f10c 3cff 	add.w	ip, ip, #4294967295
 8007da4:	dd09      	ble.n	8007dba <ee_number+0xf2>
 8007da6:	f10c 0248 	add.w	r2, ip, #72	; 0x48
 8007daa:	446a      	add	r2, sp
 8007dac:	f812 2c44 	ldrb.w	r2, [r2, #-68]
 8007db0:	f800 2b01 	strb.w	r2, [r0], #1
 8007db4:	3901      	subs	r1, #1
 8007db6:	d1f1      	bne.n	8007d9c <ee_number+0xd4>
 8007db8:	e7c5      	b.n	8007d46 <ee_number+0x7e>
  while (size-- > 0) ASSIGN_STR(' ');
 8007dba:	2b00      	cmp	r3, #0
 8007dbc:	f103 33ff 	add.w	r3, r3, #4294967295
 8007dc0:	ddc1      	ble.n	8007d46 <ee_number+0x7e>
 8007dc2:	2220      	movs	r2, #32
 8007dc4:	f800 2b01 	strb.w	r2, [r0], #1
 8007dc8:	3901      	subs	r1, #1
 8007dca:	d1f6      	bne.n	8007dba <ee_number+0xf2>
 8007dcc:	e7bb      	b.n	8007d46 <ee_number+0x7e>
  if (base < 2 || base > 36) return 0;
 8007dce:	2000      	movs	r0, #0
 8007dd0:	e7b9      	b.n	8007d46 <ee_number+0x7e>
 8007dd2:	bf00      	nop
 8007dd4:	08009848 	.word	0x08009848
 8007dd8:	08009870 	.word	0x08009870

08007ddc <tiny_vsnprintf_like>:

#define CHECK_STR_SIZE(_buf, _str, _size) \
  if ((((_str) - (_buf)) >= ((_size)-1))) { break; }

int tiny_vsnprintf_like(char *buf, const int size, const char *fmt, va_list args)
{
 8007ddc:	e92d 43f0 	stmdb	sp!, {r4, r5, r6, r7, r8, r9, lr}
 8007de0:	b087      	sub	sp, #28
 8007de2:	9205      	str	r2, [sp, #20]
 8007de4:	9304      	str	r3, [sp, #16]

  int field_width;      // Width of output field
  int precision;        // Min. # of digits for integers; max number of chars for from string
  int qualifier;        // 'h', 'l', or 'L' for integer fields

  if (size <= 0)
 8007de6:	1e0f      	subs	r7, r1, #0
 8007de8:	f340 80b8 	ble.w	8007f5c <tiny_vsnprintf_like+0x180>
 8007dec:	4606      	mov	r6, r0
  {
    return 0;
  }

  for (str = buf; *fmt || ((str - buf) >= size-1); fmt++)
 8007dee:	4604      	mov	r4, r0
 8007df0:	e004      	b.n	8007dfc <tiny_vsnprintf_like+0x20>
  {
    CHECK_STR_SIZE(buf, str, size);

    if (*fmt != '%')
    {
      *str++ = *fmt;
 8007df2:	f804 2b01 	strb.w	r2, [r4], #1
  for (str = buf; *fmt || ((str - buf) >= size-1); fmt++)
 8007df6:	9b05      	ldr	r3, [sp, #20]
 8007df8:	3301      	adds	r3, #1
 8007dfa:	9305      	str	r3, [sp, #20]
 8007dfc:	9905      	ldr	r1, [sp, #20]
 8007dfe:	780a      	ldrb	r2, [r1, #0]
 8007e00:	b922      	cbnz	r2, 8007e0c <tiny_vsnprintf_like+0x30>
 8007e02:	1ba3      	subs	r3, r4, r6
 8007e04:	1e78      	subs	r0, r7, #1
 8007e06:	4283      	cmp	r3, r0
 8007e08:	f2c0 80a2 	blt.w	8007f50 <tiny_vsnprintf_like+0x174>
    CHECK_STR_SIZE(buf, str, size);
 8007e0c:	1ba3      	subs	r3, r4, r6
 8007e0e:	f107 38ff 	add.w	r8, r7, #4294967295
 8007e12:	4543      	cmp	r3, r8
 8007e14:	f280 809c 	bge.w	8007f50 <tiny_vsnprintf_like+0x174>
    if (*fmt != '%')
 8007e18:	2a25      	cmp	r2, #37	; 0x25
 8007e1a:	d1ea      	bne.n	8007df2 <tiny_vsnprintf_like+0x16>

    // Process flags
    flags = 0;
#ifdef TINY_PRINTF
    /* Support %0, but not %-, %+, %space and %# */
    fmt++;
 8007e1c:	1c4b      	adds	r3, r1, #1
 8007e1e:	9305      	str	r3, [sp, #20]
    if (*fmt == '0')
 8007e20:	784b      	ldrb	r3, [r1, #1]
 8007e22:	2b30      	cmp	r3, #48	; 0x30
 8007e24:	d020      	beq.n	8007e68 <tiny_vsnprintf_like+0x8c>
    flags = 0;
 8007e26:	f04f 0900 	mov.w	r9, #0
    }
#endif

    // Get field width
    field_width = -1;
    if (is_digit(*fmt))
 8007e2a:	3b30      	subs	r3, #48	; 0x30
 8007e2c:	b2db      	uxtb	r3, r3
 8007e2e:	2b09      	cmp	r3, #9
 8007e30:	d91d      	bls.n	8007e6e <tiny_vsnprintf_like+0x92>
    field_width = -1;
 8007e32:	f04f 35ff 	mov.w	r5, #4294967295
#endif

    // Default base
    base = 10;

    switch (*fmt)
 8007e36:	9b05      	ldr	r3, [sp, #20]
 8007e38:	781a      	ldrb	r2, [r3, #0]
 8007e3a:	f1a2 0358 	sub.w	r3, r2, #88	; 0x58
 8007e3e:	2b20      	cmp	r3, #32
 8007e40:	d867      	bhi.n	8007f12 <tiny_vsnprintf_like+0x136>
 8007e42:	e8df f003 	tbb	[pc, r3]
 8007e46:	664a      	.short	0x664a
 8007e48:	66666666 	.word	0x66666666
 8007e4c:	66666666 	.word	0x66666666
 8007e50:	66621e66 	.word	0x66621e66
 8007e54:	62666666 	.word	0x62666666
 8007e58:	66666666 	.word	0x66666666
 8007e5c:	66666666 	.word	0x66666666
 8007e60:	19662866 	.word	0x19662866
 8007e64:	6666      	.short	0x6666
 8007e66:	7c          	.byte	0x7c
 8007e67:	00          	.byte	0x00
      flags |= ZEROPAD;
 8007e68:	f04f 0901 	mov.w	r9, #1
 8007e6c:	e7dd      	b.n	8007e2a <tiny_vsnprintf_like+0x4e>
      field_width = ee_skip_atoi(&fmt);
 8007e6e:	a805      	add	r0, sp, #20
 8007e70:	f7ff ff16 	bl	8007ca0 <ee_skip_atoi>
 8007e74:	4605      	mov	r5, r0
 8007e76:	e7de      	b.n	8007e36 <tiny_vsnprintf_like+0x5a>
    switch (*fmt)
 8007e78:	230a      	movs	r3, #10
 8007e7a:	e031      	b.n	8007ee0 <tiny_vsnprintf_like+0x104>
      case 'c':
#ifdef TINY_PRINTF
#else
        if (!(flags & LEFT))
#endif
          while (--field_width > 0) *str++ = ' ';
 8007e7c:	2320      	movs	r3, #32
 8007e7e:	f804 3b01 	strb.w	r3, [r4], #1
 8007e82:	3d01      	subs	r5, #1
 8007e84:	2d00      	cmp	r5, #0
 8007e86:	dcf9      	bgt.n	8007e7c <tiny_vsnprintf_like+0xa0>
        *str++ = (unsigned char) va_arg(args, int);
 8007e88:	9b04      	ldr	r3, [sp, #16]
 8007e8a:	1d1a      	adds	r2, r3, #4
 8007e8c:	9204      	str	r2, [sp, #16]
 8007e8e:	781b      	ldrb	r3, [r3, #0]
 8007e90:	f804 3b01 	strb.w	r3, [r4], #1
#ifdef TINY_PRINTF
#else
        while (--field_width > 0) *str++ = ' ';
#endif
        continue;
 8007e94:	e7af      	b.n	8007df6 <tiny_vsnprintf_like+0x1a>

      case 's':
        s = va_arg(args, char *);
 8007e96:	9b04      	ldr	r3, [sp, #16]
 8007e98:	1d1a      	adds	r2, r3, #4
 8007e9a:	9204      	str	r2, [sp, #16]
 8007e9c:	f8d3 8000 	ldr.w	r8, [r3]
        if (!s) s = "<NULL>";
 8007ea0:	f1b8 0f00 	cmp.w	r8, #0
 8007ea4:	d003      	beq.n	8007eae <tiny_vsnprintf_like+0xd2>
#ifdef TINY_PRINTF
        len = strlen(s);
 8007ea6:	4640      	mov	r0, r8
 8007ea8:	f7f8 f96a 	bl	8000180 <strlen>
#else
        len = strnlen(s, precision);
        if (!(flags & LEFT))
#endif
          while (len < field_width--) *str++ = ' ';
 8007eac:	e006      	b.n	8007ebc <tiny_vsnprintf_like+0xe0>
        if (!s) s = "<NULL>";
 8007eae:	f8df 80b0 	ldr.w	r8, [pc, #176]	; 8007f60 <tiny_vsnprintf_like+0x184>
 8007eb2:	e7f8      	b.n	8007ea6 <tiny_vsnprintf_like+0xca>
          while (len < field_width--) *str++ = ' ';
 8007eb4:	2220      	movs	r2, #32
 8007eb6:	f804 2b01 	strb.w	r2, [r4], #1
 8007eba:	461d      	mov	r5, r3
 8007ebc:	1e6b      	subs	r3, r5, #1
 8007ebe:	4285      	cmp	r5, r0
 8007ec0:	dcf8      	bgt.n	8007eb4 <tiny_vsnprintf_like+0xd8>
        for (i = 0; i < len; ++i) *str++ = *s++;
 8007ec2:	2200      	movs	r2, #0
 8007ec4:	e006      	b.n	8007ed4 <tiny_vsnprintf_like+0xf8>
 8007ec6:	4643      	mov	r3, r8
 8007ec8:	f813 1b01 	ldrb.w	r1, [r3], #1
 8007ecc:	f804 1b01 	strb.w	r1, [r4], #1
 8007ed0:	3201      	adds	r2, #1
 8007ed2:	4698      	mov	r8, r3
 8007ed4:	4282      	cmp	r2, r0
 8007ed6:	dbf6      	blt.n	8007ec6 <tiny_vsnprintf_like+0xea>
 8007ed8:	e78d      	b.n	8007df6 <tiny_vsnprintf_like+0x1a>
        base = 8;
        break;
#endif

      case 'X':
        flags |= UPPERCASE;
 8007eda:	f049 0940 	orr.w	r9, r9, #64	; 0x40

      case 'x':
        base = 16;
 8007ede:	2310      	movs	r3, #16
        continue;
    }

    if (qualifier == 'l')
      num = va_arg(args, unsigned long);
    else if (flags & SIGN)
 8007ee0:	f019 0f02 	tst.w	r9, #2
 8007ee4:	d02f      	beq.n	8007f46 <tiny_vsnprintf_like+0x16a>
      num = va_arg(args, int);
 8007ee6:	9a04      	ldr	r2, [sp, #16]
 8007ee8:	1d11      	adds	r1, r2, #4
 8007eea:	9104      	str	r1, [sp, #16]
 8007eec:	6812      	ldr	r2, [r2, #0]
    else
      num = va_arg(args, unsigned int);

    str = ee_number(str, ((size - 1) - (str - buf)), num, base, field_width, precision, flags);
 8007eee:	1ba1      	subs	r1, r4, r6
 8007ef0:	f8cd 9008 	str.w	r9, [sp, #8]
 8007ef4:	f04f 30ff 	mov.w	r0, #4294967295
 8007ef8:	9001      	str	r0, [sp, #4]
 8007efa:	9500      	str	r5, [sp, #0]
 8007efc:	eba8 0101 	sub.w	r1, r8, r1
 8007f00:	4620      	mov	r0, r4
 8007f02:	f7ff fee1 	bl	8007cc8 <ee_number>
 8007f06:	4604      	mov	r4, r0
 8007f08:	e775      	b.n	8007df6 <tiny_vsnprintf_like+0x1a>
        flags |= SIGN;
 8007f0a:	f049 0902 	orr.w	r9, r9, #2
    base = 10;
 8007f0e:	230a      	movs	r3, #10
 8007f10:	e7e6      	b.n	8007ee0 <tiny_vsnprintf_like+0x104>
        if (*fmt != '%') *str++ = '%';
 8007f12:	2a25      	cmp	r2, #37	; 0x25
 8007f14:	d002      	beq.n	8007f1c <tiny_vsnprintf_like+0x140>
 8007f16:	2325      	movs	r3, #37	; 0x25
 8007f18:	f804 3b01 	strb.w	r3, [r4], #1
        CHECK_STR_SIZE(buf, str, size);
 8007f1c:	1ba3      	subs	r3, r4, r6
 8007f1e:	4598      	cmp	r8, r3
 8007f20:	dd0f      	ble.n	8007f42 <tiny_vsnprintf_like+0x166>
        if (*fmt)
 8007f22:	9b05      	ldr	r3, [sp, #20]
 8007f24:	781a      	ldrb	r2, [r3, #0]
 8007f26:	b13a      	cbz	r2, 8007f38 <tiny_vsnprintf_like+0x15c>
          *str++ = *fmt;
 8007f28:	f804 2b01 	strb.w	r2, [r4], #1
        CHECK_STR_SIZE(buf, str, size);
 8007f2c:	1ba3      	subs	r3, r4, r6
 8007f2e:	4598      	cmp	r8, r3
 8007f30:	f73f af61 	bgt.w	8007df6 <tiny_vsnprintf_like+0x1a>
    base = 10;
 8007f34:	230a      	movs	r3, #10
 8007f36:	e7d3      	b.n	8007ee0 <tiny_vsnprintf_like+0x104>
          --fmt;
 8007f38:	3b01      	subs	r3, #1
 8007f3a:	9305      	str	r3, [sp, #20]
 8007f3c:	e7f6      	b.n	8007f2c <tiny_vsnprintf_like+0x150>
        base = 16;
 8007f3e:	2310      	movs	r3, #16
 8007f40:	e7ce      	b.n	8007ee0 <tiny_vsnprintf_like+0x104>
    base = 10;
 8007f42:	230a      	movs	r3, #10
 8007f44:	e7cc      	b.n	8007ee0 <tiny_vsnprintf_like+0x104>
      num = va_arg(args, unsigned int);
 8007f46:	9a04      	ldr	r2, [sp, #16]
 8007f48:	1d11      	adds	r1, r2, #4
 8007f4a:	9104      	str	r1, [sp, #16]
 8007f4c:	6812      	ldr	r2, [r2, #0]
 8007f4e:	e7ce      	b.n	8007eee <tiny_vsnprintf_like+0x112>
  }

  *str = '\0';
 8007f50:	2300      	movs	r3, #0
 8007f52:	7023      	strb	r3, [r4, #0]
  return str - buf;
 8007f54:	1ba0      	subs	r0, r4, r6
}
 8007f56:	b007      	add	sp, #28
 8007f58:	e8bd 83f0 	ldmia.w	sp!, {r4, r5, r6, r7, r8, r9, pc}
    return 0;
 8007f5c:	2000      	movs	r0, #0
 8007f5e:	e7fa      	b.n	8007f56 <tiny_vsnprintf_like+0x17a>
 8007f60:	08009898 	.word	0x08009898

08007f64 <rand>:
 8007f64:	4b16      	ldr	r3, [pc, #88]	; (8007fc0 <rand+0x5c>)
 8007f66:	b510      	push	{r4, lr}
 8007f68:	681c      	ldr	r4, [r3, #0]
 8007f6a:	6b23      	ldr	r3, [r4, #48]	; 0x30
 8007f6c:	b9b3      	cbnz	r3, 8007f9c <rand+0x38>
 8007f6e:	2018      	movs	r0, #24
 8007f70:	f000 fa6e 	bl	8008450 <malloc>
 8007f74:	4602      	mov	r2, r0
 8007f76:	6320      	str	r0, [r4, #48]	; 0x30
 8007f78:	b920      	cbnz	r0, 8007f84 <rand+0x20>
 8007f7a:	4b12      	ldr	r3, [pc, #72]	; (8007fc4 <rand+0x60>)
 8007f7c:	4812      	ldr	r0, [pc, #72]	; (8007fc8 <rand+0x64>)
 8007f7e:	2152      	movs	r1, #82	; 0x52
 8007f80:	f000 f9fe 	bl	8008380 <__assert_func>
 8007f84:	4911      	ldr	r1, [pc, #68]	; (8007fcc <rand+0x68>)
 8007f86:	4b12      	ldr	r3, [pc, #72]	; (8007fd0 <rand+0x6c>)
 8007f88:	e9c0 1300 	strd	r1, r3, [r0]
 8007f8c:	4b11      	ldr	r3, [pc, #68]	; (8007fd4 <rand+0x70>)
 8007f8e:	6083      	str	r3, [r0, #8]
 8007f90:	230b      	movs	r3, #11
 8007f92:	8183      	strh	r3, [r0, #12]
 8007f94:	2100      	movs	r1, #0
 8007f96:	2001      	movs	r0, #1
 8007f98:	e9c2 0104 	strd	r0, r1, [r2, #16]
 8007f9c:	6b21      	ldr	r1, [r4, #48]	; 0x30
 8007f9e:	480e      	ldr	r0, [pc, #56]	; (8007fd8 <rand+0x74>)
 8007fa0:	690b      	ldr	r3, [r1, #16]
 8007fa2:	694c      	ldr	r4, [r1, #20]
 8007fa4:	4a0d      	ldr	r2, [pc, #52]	; (8007fdc <rand+0x78>)
 8007fa6:	4358      	muls	r0, r3
 8007fa8:	fb02 0004 	mla	r0, r2, r4, r0
 8007fac:	fba3 3202 	umull	r3, r2, r3, r2
 8007fb0:	3301      	adds	r3, #1
 8007fb2:	eb40 0002 	adc.w	r0, r0, r2
 8007fb6:	e9c1 3004 	strd	r3, r0, [r1, #16]
 8007fba:	f020 4000 	bic.w	r0, r0, #2147483648	; 0x80000000
 8007fbe:	bd10      	pop	{r4, pc}
 8007fc0:	20000090 	.word	0x20000090
 8007fc4:	0800989f 	.word	0x0800989f
 8007fc8:	080098b6 	.word	0x080098b6
 8007fcc:	abcd330e 	.word	0xabcd330e
 8007fd0:	e66d1234 	.word	0xe66d1234
 8007fd4:	0005deec 	.word	0x0005deec
 8007fd8:	5851f42d 	.word	0x5851f42d
 8007fdc:	4c957f2d 	.word	0x4c957f2d

08007fe0 <std>:
 8007fe0:	2300      	movs	r3, #0
 8007fe2:	b510      	push	{r4, lr}
 8007fe4:	4604      	mov	r4, r0
 8007fe6:	e9c0 3300 	strd	r3, r3, [r0]
 8007fea:	e9c0 3304 	strd	r3, r3, [r0, #16]
 8007fee:	6083      	str	r3, [r0, #8]
 8007ff0:	8181      	strh	r1, [r0, #12]
 8007ff2:	6643      	str	r3, [r0, #100]	; 0x64
 8007ff4:	81c2      	strh	r2, [r0, #14]
 8007ff6:	6183      	str	r3, [r0, #24]
 8007ff8:	4619      	mov	r1, r3
 8007ffa:	2208      	movs	r2, #8
 8007ffc:	305c      	adds	r0, #92	; 0x5c
 8007ffe:	f000 f914 	bl	800822a <memset>
 8008002:	4b0d      	ldr	r3, [pc, #52]	; (8008038 <std+0x58>)
 8008004:	6263      	str	r3, [r4, #36]	; 0x24
 8008006:	4b0d      	ldr	r3, [pc, #52]	; (800803c <std+0x5c>)
 8008008:	62a3      	str	r3, [r4, #40]	; 0x28
 800800a:	4b0d      	ldr	r3, [pc, #52]	; (8008040 <std+0x60>)
 800800c:	62e3      	str	r3, [r4, #44]	; 0x2c
 800800e:	4b0d      	ldr	r3, [pc, #52]	; (8008044 <std+0x64>)
 8008010:	6323      	str	r3, [r4, #48]	; 0x30
 8008012:	4b0d      	ldr	r3, [pc, #52]	; (8008048 <std+0x68>)
 8008014:	6224      	str	r4, [r4, #32]
 8008016:	429c      	cmp	r4, r3
 8008018:	d006      	beq.n	8008028 <std+0x48>
 800801a:	f103 0268 	add.w	r2, r3, #104	; 0x68
 800801e:	4294      	cmp	r4, r2
 8008020:	d002      	beq.n	8008028 <std+0x48>
 8008022:	33d0      	adds	r3, #208	; 0xd0
 8008024:	429c      	cmp	r4, r3
 8008026:	d105      	bne.n	8008034 <std+0x54>
 8008028:	f104 0058 	add.w	r0, r4, #88	; 0x58
 800802c:	e8bd 4010 	ldmia.w	sp!, {r4, lr}
 8008030:	f000 b994 	b.w	800835c <__retarget_lock_init_recursive>
 8008034:	bd10      	pop	{r4, pc}
 8008036:	bf00      	nop
 8008038:	080081a5 	.word	0x080081a5
 800803c:	080081c7 	.word	0x080081c7
 8008040:	080081ff 	.word	0x080081ff
 8008044:	08008223 	.word	0x08008223
 8008048:	200009b0 	.word	0x200009b0

0800804c <stdio_exit_handler>:
 800804c:	4a02      	ldr	r2, [pc, #8]	; (8008058 <stdio_exit_handler+0xc>)
 800804e:	4903      	ldr	r1, [pc, #12]	; (800805c <stdio_exit_handler+0x10>)
 8008050:	4803      	ldr	r0, [pc, #12]	; (8008060 <stdio_exit_handler+0x14>)
 8008052:	f000 b869 	b.w	8008128 <_fwalk_sglue>
 8008056:	bf00      	nop
 8008058:	20000038 	.word	0x20000038
 800805c:	08008c8d 	.word	0x08008c8d
 8008060:	20000044 	.word	0x20000044

08008064 <cleanup_stdio>:
 8008064:	6841      	ldr	r1, [r0, #4]
 8008066:	4b0c      	ldr	r3, [pc, #48]	; (8008098 <cleanup_stdio+0x34>)
 8008068:	4299      	cmp	r1, r3
 800806a:	b510      	push	{r4, lr}
 800806c:	4604      	mov	r4, r0
 800806e:	d001      	beq.n	8008074 <cleanup_stdio+0x10>
 8008070:	f000 fe0c 	bl	8008c8c <_fflush_r>
 8008074:	68a1      	ldr	r1, [r4, #8]
 8008076:	4b09      	ldr	r3, [pc, #36]	; (800809c <cleanup_stdio+0x38>)
 8008078:	4299      	cmp	r1, r3
 800807a:	d002      	beq.n	8008082 <cleanup_stdio+0x1e>
 800807c:	4620      	mov	r0, r4
 800807e:	f000 fe05 	bl	8008c8c <_fflush_r>
 8008082:	68e1      	ldr	r1, [r4, #12]
 8008084:	4b06      	ldr	r3, [pc, #24]	; (80080a0 <cleanup_stdio+0x3c>)
 8008086:	4299      	cmp	r1, r3
 8008088:	d004      	beq.n	8008094 <cleanup_stdio+0x30>
 800808a:	4620      	mov	r0, r4
 800808c:	e8bd 4010 	ldmia.w	sp!, {r4, lr}
 8008090:	f000 bdfc 	b.w	8008c8c <_fflush_r>
 8008094:	bd10      	pop	{r4, pc}
 8008096:	bf00      	nop
 8008098:	200009b0 	.word	0x200009b0
 800809c:	20000a18 	.word	0x20000a18
 80080a0:	20000a80 	.word	0x20000a80

080080a4 <global_stdio_init.part.0>:
 80080a4:	b510      	push	{r4, lr}
 80080a6:	4b0b      	ldr	r3, [pc, #44]	; (80080d4 <global_stdio_init.part.0+0x30>)
 80080a8:	4c0b      	ldr	r4, [pc, #44]	; (80080d8 <global_stdio_init.part.0+0x34>)
 80080aa:	4a0c      	ldr	r2, [pc, #48]	; (80080dc <global_stdio_init.part.0+0x38>)
 80080ac:	601a      	str	r2, [r3, #0]
 80080ae:	4620      	mov	r0, r4
 80080b0:	2200      	movs	r2, #0
 80080b2:	2104      	movs	r1, #4
 80080b4:	f7ff ff94 	bl	8007fe0 <std>
 80080b8:	f104 0068 	add.w	r0, r4, #104	; 0x68
 80080bc:	2201      	movs	r2, #1
 80080be:	2109      	movs	r1, #9
 80080c0:	f7ff ff8e 	bl	8007fe0 <std>
 80080c4:	f104 00d0 	add.w	r0, r4, #208	; 0xd0
 80080c8:	2202      	movs	r2, #2
 80080ca:	e8bd 4010 	ldmia.w	sp!, {r4, lr}
 80080ce:	2112      	movs	r1, #18
 80080d0:	f7ff bf86 	b.w	8007fe0 <std>
 80080d4:	20000ae8 	.word	0x20000ae8
 80080d8:	200009b0 	.word	0x200009b0
 80080dc:	0800804d 	.word	0x0800804d

080080e0 <__sfp_lock_acquire>:
 80080e0:	4801      	ldr	r0, [pc, #4]	; (80080e8 <__sfp_lock_acquire+0x8>)
 80080e2:	f000 b93c 	b.w	800835e <__retarget_lock_acquire_recursive>
 80080e6:	bf00      	nop
 80080e8:	20000af1 	.word	0x20000af1

080080ec <__sfp_lock_release>:
 80080ec:	4801      	ldr	r0, [pc, #4]	; (80080f4 <__sfp_lock_release+0x8>)
 80080ee:	f000 b937 	b.w	8008360 <__retarget_lock_release_recursive>
 80080f2:	bf00      	nop
 80080f4:	20000af1 	.word	0x20000af1

080080f8 <__sinit>:
 80080f8:	b510      	push	{r4, lr}
 80080fa:	4604      	mov	r4, r0
 80080fc:	f7ff fff0 	bl	80080e0 <__sfp_lock_acquire>
 8008100:	6a23      	ldr	r3, [r4, #32]
 8008102:	b11b      	cbz	r3, 800810c <__sinit+0x14>
 8008104:	e8bd 4010 	ldmia.w	sp!, {r4, lr}
 8008108:	f7ff bff0 	b.w	80080ec <__sfp_lock_release>
 800810c:	4b04      	ldr	r3, [pc, #16]	; (8008120 <__sinit+0x28>)
 800810e:	6223      	str	r3, [r4, #32]
 8008110:	4b04      	ldr	r3, [pc, #16]	; (8008124 <__sinit+0x2c>)
 8008112:	681b      	ldr	r3, [r3, #0]
 8008114:	2b00      	cmp	r3, #0
 8008116:	d1f5      	bne.n	8008104 <__sinit+0xc>
 8008118:	f7ff ffc4 	bl	80080a4 <global_stdio_init.part.0>
 800811c:	e7f2      	b.n	8008104 <__sinit+0xc>
 800811e:	bf00      	nop
 8008120:	08008065 	.word	0x08008065
 8008124:	20000ae8 	.word	0x20000ae8

08008128 <_fwalk_sglue>:
 8008128:	e92d 43f8 	stmdb	sp!, {r3, r4, r5, r6, r7, r8, r9, lr}
 800812c:	4607      	mov	r7, r0
 800812e:	4688      	mov	r8, r1
 8008130:	4614      	mov	r4, r2
 8008132:	2600      	movs	r6, #0
 8008134:	e9d4 9501 	ldrd	r9, r5, [r4, #4]
 8008138:	f1b9 0901 	subs.w	r9, r9, #1
 800813c:	d505      	bpl.n	800814a <_fwalk_sglue+0x22>
 800813e:	6824      	ldr	r4, [r4, #0]
 8008140:	2c00      	cmp	r4, #0
 8008142:	d1f7      	bne.n	8008134 <_fwalk_sglue+0xc>
 8008144:	4630      	mov	r0, r6
 8008146:	e8bd 83f8 	ldmia.w	sp!, {r3, r4, r5, r6, r7, r8, r9, pc}
 800814a:	89ab      	ldrh	r3, [r5, #12]
 800814c:	2b01      	cmp	r3, #1
 800814e:	d907      	bls.n	8008160 <_fwalk_sglue+0x38>
 8008150:	f9b5 300e 	ldrsh.w	r3, [r5, #14]
 8008154:	3301      	adds	r3, #1
 8008156:	d003      	beq.n	8008160 <_fwalk_sglue+0x38>
 8008158:	4629      	mov	r1, r5
 800815a:	4638      	mov	r0, r7
 800815c:	47c0      	blx	r8
 800815e:	4306      	orrs	r6, r0
 8008160:	3568      	adds	r5, #104	; 0x68
 8008162:	e7e9      	b.n	8008138 <_fwalk_sglue+0x10>

08008164 <siprintf>:
 8008164:	b40e      	push	{r1, r2, r3}
 8008166:	b500      	push	{lr}
 8008168:	b09c      	sub	sp, #112	; 0x70
 800816a:	ab1d      	add	r3, sp, #116	; 0x74
 800816c:	9002      	str	r0, [sp, #8]
 800816e:	9006      	str	r0, [sp, #24]
 8008170:	f06f 4100 	mvn.w	r1, #2147483648	; 0x80000000
 8008174:	4809      	ldr	r0, [pc, #36]	; (800819c <siprintf+0x38>)
 8008176:	9107      	str	r1, [sp, #28]
 8008178:	9104      	str	r1, [sp, #16]
 800817a:	4909      	ldr	r1, [pc, #36]	; (80081a0 <siprintf+0x3c>)
 800817c:	f853 2b04 	ldr.w	r2, [r3], #4
 8008180:	9105      	str	r1, [sp, #20]
 8008182:	6800      	ldr	r0, [r0, #0]
 8008184:	9301      	str	r3, [sp, #4]
 8008186:	a902      	add	r1, sp, #8
 8008188:	f000 fa70 	bl	800866c <_svfiprintf_r>
 800818c:	9b02      	ldr	r3, [sp, #8]
 800818e:	2200      	movs	r2, #0
 8008190:	701a      	strb	r2, [r3, #0]
 8008192:	b01c      	add	sp, #112	; 0x70
 8008194:	f85d eb04 	ldr.w	lr, [sp], #4
 8008198:	b003      	add	sp, #12
 800819a:	4770      	bx	lr
 800819c:	20000090 	.word	0x20000090
 80081a0:	ffff0208 	.word	0xffff0208

080081a4 <__sread>:
 80081a4:	b510      	push	{r4, lr}
 80081a6:	460c      	mov	r4, r1
 80081a8:	f9b1 100e 	ldrsh.w	r1, [r1, #14]
 80081ac:	f000 f888 	bl	80082c0 <_read_r>
 80081b0:	2800      	cmp	r0, #0
 80081b2:	bfab      	itete	ge
 80081b4:	6d63      	ldrge	r3, [r4, #84]	; 0x54
 80081b6:	89a3      	ldrhlt	r3, [r4, #12]
 80081b8:	181b      	addge	r3, r3, r0
 80081ba:	f423 5380 	biclt.w	r3, r3, #4096	; 0x1000
 80081be:	bfac      	ite	ge
 80081c0:	6563      	strge	r3, [r4, #84]	; 0x54
 80081c2:	81a3      	strhlt	r3, [r4, #12]
 80081c4:	bd10      	pop	{r4, pc}

080081c6 <__swrite>:
 80081c6:	e92d 41f0 	stmdb	sp!, {r4, r5, r6, r7, r8, lr}
 80081ca:	461f      	mov	r7, r3
 80081cc:	898b      	ldrh	r3, [r1, #12]
 80081ce:	05db      	lsls	r3, r3, #23
 80081d0:	4605      	mov	r5, r0
 80081d2:	460c      	mov	r4, r1
 80081d4:	4616      	mov	r6, r2
 80081d6:	d505      	bpl.n	80081e4 <__swrite+0x1e>
 80081d8:	f9b1 100e 	ldrsh.w	r1, [r1, #14]
 80081dc:	2302      	movs	r3, #2
 80081de:	2200      	movs	r2, #0
 80081e0:	f000 f85c 	bl	800829c <_lseek_r>
 80081e4:	89a3      	ldrh	r3, [r4, #12]
 80081e6:	f9b4 100e 	ldrsh.w	r1, [r4, #14]
 80081ea:	f423 5380 	bic.w	r3, r3, #4096	; 0x1000
 80081ee:	81a3      	strh	r3, [r4, #12]
 80081f0:	4632      	mov	r2, r6
 80081f2:	463b      	mov	r3, r7
 80081f4:	4628      	mov	r0, r5
 80081f6:	e8bd 41f0 	ldmia.w	sp!, {r4, r5, r6, r7, r8, lr}
 80081fa:	f000 b873 	b.w	80082e4 <_write_r>

080081fe <__sseek>:
 80081fe:	b510      	push	{r4, lr}
 8008200:	460c      	mov	r4, r1
 8008202:	f9b1 100e 	ldrsh.w	r1, [r1, #14]
 8008206:	f000 f849 	bl	800829c <_lseek_r>
 800820a:	1c43      	adds	r3, r0, #1
 800820c:	89a3      	ldrh	r3, [r4, #12]
 800820e:	bf15      	itete	ne
 8008210:	6560      	strne	r0, [r4, #84]	; 0x54
 8008212:	f423 5380 	biceq.w	r3, r3, #4096	; 0x1000
 8008216:	f443 5380 	orrne.w	r3, r3, #4096	; 0x1000
 800821a:	81a3      	strheq	r3, [r4, #12]
 800821c:	bf18      	it	ne
 800821e:	81a3      	strhne	r3, [r4, #12]
 8008220:	bd10      	pop	{r4, pc}

08008222 <__sclose>:
 8008222:	f9b1 100e 	ldrsh.w	r1, [r1, #14]
 8008226:	f000 b829 	b.w	800827c <_close_r>

0800822a <memset>:
 800822a:	4402      	add	r2, r0
 800822c:	4603      	mov	r3, r0
 800822e:	4293      	cmp	r3, r2
 8008230:	d100      	bne.n	8008234 <memset+0xa>
 8008232:	4770      	bx	lr
 8008234:	f803 1b01 	strb.w	r1, [r3], #1
 8008238:	e7f9      	b.n	800822e <memset+0x4>

0800823a <strcat>:
 800823a:	b510      	push	{r4, lr}
 800823c:	4602      	mov	r2, r0
 800823e:	7814      	ldrb	r4, [r2, #0]
 8008240:	4613      	mov	r3, r2
 8008242:	3201      	adds	r2, #1
 8008244:	2c00      	cmp	r4, #0
 8008246:	d1fa      	bne.n	800823e <strcat+0x4>
 8008248:	3b01      	subs	r3, #1
 800824a:	f811 2b01 	ldrb.w	r2, [r1], #1
 800824e:	f803 2f01 	strb.w	r2, [r3, #1]!
 8008252:	2a00      	cmp	r2, #0
 8008254:	d1f9      	bne.n	800824a <strcat+0x10>
 8008256:	bd10      	pop	{r4, pc}

08008258 <strncmp>:
 8008258:	b510      	push	{r4, lr}
 800825a:	b16a      	cbz	r2, 8008278 <strncmp+0x20>
 800825c:	3901      	subs	r1, #1
 800825e:	1884      	adds	r4, r0, r2
 8008260:	f810 2b01 	ldrb.w	r2, [r0], #1
 8008264:	f811 3f01 	ldrb.w	r3, [r1, #1]!
 8008268:	429a      	cmp	r2, r3
 800826a:	d103      	bne.n	8008274 <strncmp+0x1c>
 800826c:	42a0      	cmp	r0, r4
 800826e:	d001      	beq.n	8008274 <strncmp+0x1c>
 8008270:	2a00      	cmp	r2, #0
 8008272:	d1f5      	bne.n	8008260 <strncmp+0x8>
 8008274:	1ad0      	subs	r0, r2, r3
 8008276:	bd10      	pop	{r4, pc}
 8008278:	4610      	mov	r0, r2
 800827a:	e7fc      	b.n	8008276 <strncmp+0x1e>

0800827c <_close_r>:
 800827c:	b538      	push	{r3, r4, r5, lr}
 800827e:	4d06      	ldr	r5, [pc, #24]	; (8008298 <_close_r+0x1c>)
 8008280:	2300      	movs	r3, #0
 8008282:	4604      	mov	r4, r0
 8008284:	4608      	mov	r0, r1
 8008286:	602b      	str	r3, [r5, #0]
 8008288:	f7f8 fc10 	bl	8000aac <_close>
 800828c:	1c43      	adds	r3, r0, #1
 800828e:	d102      	bne.n	8008296 <_close_r+0x1a>
 8008290:	682b      	ldr	r3, [r5, #0]
 8008292:	b103      	cbz	r3, 8008296 <_close_r+0x1a>
 8008294:	6023      	str	r3, [r4, #0]
 8008296:	bd38      	pop	{r3, r4, r5, pc}
 8008298:	20000aec 	.word	0x20000aec

0800829c <_lseek_r>:
 800829c:	b538      	push	{r3, r4, r5, lr}
 800829e:	4d07      	ldr	r5, [pc, #28]	; (80082bc <_lseek_r+0x20>)
 80082a0:	4604      	mov	r4, r0
 80082a2:	4608      	mov	r0, r1
 80082a4:	4611      	mov	r1, r2
 80082a6:	2200      	movs	r2, #0
 80082a8:	602a      	str	r2, [r5, #0]
 80082aa:	461a      	mov	r2, r3
 80082ac:	f7f8 fc08 	bl	8000ac0 <_lseek>
 80082b0:	1c43      	adds	r3, r0, #1
 80082b2:	d102      	bne.n	80082ba <_lseek_r+0x1e>
 80082b4:	682b      	ldr	r3, [r5, #0]
 80082b6:	b103      	cbz	r3, 80082ba <_lseek_r+0x1e>
 80082b8:	6023      	str	r3, [r4, #0]
 80082ba:	bd38      	pop	{r3, r4, r5, pc}
 80082bc:	20000aec 	.word	0x20000aec

080082c0 <_read_r>:
 80082c0:	b538      	push	{r3, r4, r5, lr}
 80082c2:	4d07      	ldr	r5, [pc, #28]	; (80082e0 <_read_r+0x20>)
 80082c4:	4604      	mov	r4, r0
 80082c6:	4608      	mov	r0, r1
 80082c8:	4611      	mov	r1, r2
 80082ca:	2200      	movs	r2, #0
 80082cc:	602a      	str	r2, [r5, #0]
 80082ce:	461a      	mov	r2, r3
 80082d0:	f7f8 fbce 	bl	8000a70 <_read>
 80082d4:	1c43      	adds	r3, r0, #1
 80082d6:	d102      	bne.n	80082de <_read_r+0x1e>
 80082d8:	682b      	ldr	r3, [r5, #0]
 80082da:	b103      	cbz	r3, 80082de <_read_r+0x1e>
 80082dc:	6023      	str	r3, [r4, #0]
 80082de:	bd38      	pop	{r3, r4, r5, pc}
 80082e0:	20000aec 	.word	0x20000aec

080082e4 <_write_r>:
 80082e4:	b538      	push	{r3, r4, r5, lr}
 80082e6:	4d07      	ldr	r5, [pc, #28]	; (8008304 <_write_r+0x20>)
 80082e8:	4604      	mov	r4, r0
 80082ea:	4608      	mov	r0, r1
 80082ec:	4611      	mov	r1, r2
 80082ee:	2200      	movs	r2, #0
 80082f0:	602a      	str	r2, [r5, #0]
 80082f2:	461a      	mov	r2, r3
 80082f4:	f7f8 fbcc 	bl	8000a90 <_write>
 80082f8:	1c43      	adds	r3, r0, #1
 80082fa:	d102      	bne.n	8008302 <_write_r+0x1e>
 80082fc:	682b      	ldr	r3, [r5, #0]
 80082fe:	b103      	cbz	r3, 8008302 <_write_r+0x1e>
 8008300:	6023      	str	r3, [r4, #0]
 8008302:	bd38      	pop	{r3, r4, r5, pc}
 8008304:	20000aec 	.word	0x20000aec

08008308 <__errno>:
 8008308:	4b01      	ldr	r3, [pc, #4]	; (8008310 <__errno+0x8>)
 800830a:	6818      	ldr	r0, [r3, #0]
 800830c:	4770      	bx	lr
 800830e:	bf00      	nop
 8008310:	20000090 	.word	0x20000090

08008314 <__libc_init_array>:
 8008314:	b570      	push	{r4, r5, r6, lr}
 8008316:	4d0d      	ldr	r5, [pc, #52]	; (800834c <__libc_init_array+0x38>)
 8008318:	4c0d      	ldr	r4, [pc, #52]	; (8008350 <__libc_init_array+0x3c>)
 800831a:	1b64      	subs	r4, r4, r5
 800831c:	10a4      	asrs	r4, r4, #2
 800831e:	2600      	movs	r6, #0
 8008320:	42a6      	cmp	r6, r4
 8008322:	d109      	bne.n	8008338 <__libc_init_array+0x24>
 8008324:	4d0b      	ldr	r5, [pc, #44]	; (8008354 <__libc_init_array+0x40>)
 8008326:	4c0c      	ldr	r4, [pc, #48]	; (8008358 <__libc_init_array+0x44>)
 8008328:	f000 fff2 	bl	8009310 <_init>
 800832c:	1b64      	subs	r4, r4, r5
 800832e:	10a4      	asrs	r4, r4, #2
 8008330:	2600      	movs	r6, #0
 8008332:	42a6      	cmp	r6, r4
 8008334:	d105      	bne.n	8008342 <__libc_init_array+0x2e>
 8008336:	bd70      	pop	{r4, r5, r6, pc}
 8008338:	f855 3b04 	ldr.w	r3, [r5], #4
 800833c:	4798      	blx	r3
 800833e:	3601      	adds	r6, #1
 8008340:	e7ee      	b.n	8008320 <__libc_init_array+0xc>
 8008342:	f855 3b04 	ldr.w	r3, [r5], #4
 8008346:	4798      	blx	r3
 8008348:	3601      	adds	r6, #1
 800834a:	e7f2      	b.n	8008332 <__libc_init_array+0x1e>
 800834c:	08009988 	.word	0x08009988
 8008350:	08009988 	.word	0x08009988
 8008354:	08009988 	.word	0x08009988
 8008358:	0800998c 	.word	0x0800998c

0800835c <__retarget_lock_init_recursive>:
 800835c:	4770      	bx	lr

0800835e <__retarget_lock_acquire_recursive>:
 800835e:	4770      	bx	lr

08008360 <__retarget_lock_release_recursive>:
 8008360:	4770      	bx	lr

08008362 <memcpy>:
 8008362:	440a      	add	r2, r1
 8008364:	4291      	cmp	r1, r2
 8008366:	f100 33ff 	add.w	r3, r0, #4294967295
 800836a:	d100      	bne.n	800836e <memcpy+0xc>
 800836c:	4770      	bx	lr
 800836e:	b510      	push	{r4, lr}
 8008370:	f811 4b01 	ldrb.w	r4, [r1], #1
 8008374:	f803 4f01 	strb.w	r4, [r3, #1]!
 8008378:	4291      	cmp	r1, r2
 800837a:	d1f9      	bne.n	8008370 <memcpy+0xe>
 800837c:	bd10      	pop	{r4, pc}
	...

08008380 <__assert_func>:
 8008380:	b51f      	push	{r0, r1, r2, r3, r4, lr}
 8008382:	4614      	mov	r4, r2
 8008384:	461a      	mov	r2, r3
 8008386:	4b09      	ldr	r3, [pc, #36]	; (80083ac <__assert_func+0x2c>)
 8008388:	681b      	ldr	r3, [r3, #0]
 800838a:	4605      	mov	r5, r0
 800838c:	68d8      	ldr	r0, [r3, #12]
 800838e:	b14c      	cbz	r4, 80083a4 <__assert_func+0x24>
 8008390:	4b07      	ldr	r3, [pc, #28]	; (80083b0 <__assert_func+0x30>)
 8008392:	9100      	str	r1, [sp, #0]
 8008394:	e9cd 3401 	strd	r3, r4, [sp, #4]
 8008398:	4906      	ldr	r1, [pc, #24]	; (80083b4 <__assert_func+0x34>)
 800839a:	462b      	mov	r3, r5
 800839c:	f000 fc9e 	bl	8008cdc <fiprintf>
 80083a0:	f000 fcd8 	bl	8008d54 <abort>
 80083a4:	4b04      	ldr	r3, [pc, #16]	; (80083b8 <__assert_func+0x38>)
 80083a6:	461c      	mov	r4, r3
 80083a8:	e7f3      	b.n	8008392 <__assert_func+0x12>
 80083aa:	bf00      	nop
 80083ac:	20000090 	.word	0x20000090
 80083b0:	0800990e 	.word	0x0800990e
 80083b4:	0800991b 	.word	0x0800991b
 80083b8:	08009949 	.word	0x08009949

080083bc <_free_r>:
 80083bc:	b538      	push	{r3, r4, r5, lr}
 80083be:	4605      	mov	r5, r0
 80083c0:	2900      	cmp	r1, #0
 80083c2:	d041      	beq.n	8008448 <_free_r+0x8c>
 80083c4:	f851 3c04 	ldr.w	r3, [r1, #-4]
 80083c8:	1f0c      	subs	r4, r1, #4
 80083ca:	2b00      	cmp	r3, #0
 80083cc:	bfb8      	it	lt
 80083ce:	18e4      	addlt	r4, r4, r3
 80083d0:	f000 f8e6 	bl	80085a0 <__malloc_lock>
 80083d4:	4a1d      	ldr	r2, [pc, #116]	; (800844c <_free_r+0x90>)
 80083d6:	6813      	ldr	r3, [r2, #0]
 80083d8:	b933      	cbnz	r3, 80083e8 <_free_r+0x2c>
 80083da:	6063      	str	r3, [r4, #4]
 80083dc:	6014      	str	r4, [r2, #0]
 80083de:	4628      	mov	r0, r5
 80083e0:	e8bd 4038 	ldmia.w	sp!, {r3, r4, r5, lr}
 80083e4:	f000 b8e2 	b.w	80085ac <__malloc_unlock>
 80083e8:	42a3      	cmp	r3, r4
 80083ea:	d908      	bls.n	80083fe <_free_r+0x42>
 80083ec:	6820      	ldr	r0, [r4, #0]
 80083ee:	1821      	adds	r1, r4, r0
 80083f0:	428b      	cmp	r3, r1
 80083f2:	bf01      	itttt	eq
 80083f4:	6819      	ldreq	r1, [r3, #0]
 80083f6:	685b      	ldreq	r3, [r3, #4]
 80083f8:	1809      	addeq	r1, r1, r0
 80083fa:	6021      	streq	r1, [r4, #0]
 80083fc:	e7ed      	b.n	80083da <_free_r+0x1e>
 80083fe:	461a      	mov	r2, r3
 8008400:	685b      	ldr	r3, [r3, #4]
 8008402:	b10b      	cbz	r3, 8008408 <_free_r+0x4c>
 8008404:	42a3      	cmp	r3, r4
 8008406:	d9fa      	bls.n	80083fe <_free_r+0x42>
 8008408:	6811      	ldr	r1, [r2, #0]
 800840a:	1850      	adds	r0, r2, r1
 800840c:	42a0      	cmp	r0, r4
 800840e:	d10b      	bne.n	8008428 <_free_r+0x6c>
 8008410:	6820      	ldr	r0, [r4, #0]
 8008412:	4401      	add	r1, r0
 8008414:	1850      	adds	r0, r2, r1
 8008416:	4283      	cmp	r3, r0
 8008418:	6011      	str	r1, [r2, #0]
 800841a:	d1e0      	bne.n	80083de <_free_r+0x22>
 800841c:	6818      	ldr	r0, [r3, #0]
 800841e:	685b      	ldr	r3, [r3, #4]
 8008420:	6053      	str	r3, [r2, #4]
 8008422:	4408      	add	r0, r1
 8008424:	6010      	str	r0, [r2, #0]
 8008426:	e7da      	b.n	80083de <_free_r+0x22>
 8008428:	d902      	bls.n	8008430 <_free_r+0x74>
 800842a:	230c      	movs	r3, #12
 800842c:	602b      	str	r3, [r5, #0]
 800842e:	e7d6      	b.n	80083de <_free_r+0x22>
 8008430:	6820      	ldr	r0, [r4, #0]
 8008432:	1821      	adds	r1, r4, r0
 8008434:	428b      	cmp	r3, r1
 8008436:	bf04      	itt	eq
 8008438:	6819      	ldreq	r1, [r3, #0]
 800843a:	685b      	ldreq	r3, [r3, #4]
 800843c:	6063      	str	r3, [r4, #4]
 800843e:	bf04      	itt	eq
 8008440:	1809      	addeq	r1, r1, r0
 8008442:	6021      	streq	r1, [r4, #0]
 8008444:	6054      	str	r4, [r2, #4]
 8008446:	e7ca      	b.n	80083de <_free_r+0x22>
 8008448:	bd38      	pop	{r3, r4, r5, pc}
 800844a:	bf00      	nop
 800844c:	20000af4 	.word	0x20000af4

08008450 <malloc>:
 8008450:	4b02      	ldr	r3, [pc, #8]	; (800845c <malloc+0xc>)
 8008452:	4601      	mov	r1, r0
 8008454:	6818      	ldr	r0, [r3, #0]
 8008456:	f000 b823 	b.w	80084a0 <_malloc_r>
 800845a:	bf00      	nop
 800845c:	20000090 	.word	0x20000090

08008460 <sbrk_aligned>:
 8008460:	b570      	push	{r4, r5, r6, lr}
 8008462:	4e0e      	ldr	r6, [pc, #56]	; (800849c <sbrk_aligned+0x3c>)
 8008464:	460c      	mov	r4, r1
 8008466:	6831      	ldr	r1, [r6, #0]
 8008468:	4605      	mov	r5, r0
 800846a:	b911      	cbnz	r1, 8008472 <sbrk_aligned+0x12>
 800846c:	f000 fc62 	bl	8008d34 <_sbrk_r>
 8008470:	6030      	str	r0, [r6, #0]
 8008472:	4621      	mov	r1, r4
 8008474:	4628      	mov	r0, r5
 8008476:	f000 fc5d 	bl	8008d34 <_sbrk_r>
 800847a:	1c43      	adds	r3, r0, #1
 800847c:	d00a      	beq.n	8008494 <sbrk_aligned+0x34>
 800847e:	1cc4      	adds	r4, r0, #3
 8008480:	f024 0403 	bic.w	r4, r4, #3
 8008484:	42a0      	cmp	r0, r4
 8008486:	d007      	beq.n	8008498 <sbrk_aligned+0x38>
 8008488:	1a21      	subs	r1, r4, r0
 800848a:	4628      	mov	r0, r5
 800848c:	f000 fc52 	bl	8008d34 <_sbrk_r>
 8008490:	3001      	adds	r0, #1
 8008492:	d101      	bne.n	8008498 <sbrk_aligned+0x38>
 8008494:	f04f 34ff 	mov.w	r4, #4294967295
 8008498:	4620      	mov	r0, r4
 800849a:	bd70      	pop	{r4, r5, r6, pc}
 800849c:	20000af8 	.word	0x20000af8

080084a0 <_malloc_r>:
 80084a0:	e92d 43f8 	stmdb	sp!, {r3, r4, r5, r6, r7, r8, r9, lr}
 80084a4:	1ccd      	adds	r5, r1, #3
 80084a6:	f025 0503 	bic.w	r5, r5, #3
 80084aa:	3508      	adds	r5, #8
 80084ac:	2d0c      	cmp	r5, #12
 80084ae:	bf38      	it	cc
 80084b0:	250c      	movcc	r5, #12
 80084b2:	2d00      	cmp	r5, #0
 80084b4:	4607      	mov	r7, r0
 80084b6:	db01      	blt.n	80084bc <_malloc_r+0x1c>
 80084b8:	42a9      	cmp	r1, r5
 80084ba:	d905      	bls.n	80084c8 <_malloc_r+0x28>
 80084bc:	230c      	movs	r3, #12
 80084be:	603b      	str	r3, [r7, #0]
 80084c0:	2600      	movs	r6, #0
 80084c2:	4630      	mov	r0, r6
 80084c4:	e8bd 83f8 	ldmia.w	sp!, {r3, r4, r5, r6, r7, r8, r9, pc}
 80084c8:	f8df 80d0 	ldr.w	r8, [pc, #208]	; 800859c <_malloc_r+0xfc>
 80084cc:	f000 f868 	bl	80085a0 <__malloc_lock>
 80084d0:	f8d8 3000 	ldr.w	r3, [r8]
 80084d4:	461c      	mov	r4, r3
 80084d6:	bb5c      	cbnz	r4, 8008530 <_malloc_r+0x90>
 80084d8:	4629      	mov	r1, r5
 80084da:	4638      	mov	r0, r7
 80084dc:	f7ff ffc0 	bl	8008460 <sbrk_aligned>
 80084e0:	1c43      	adds	r3, r0, #1
 80084e2:	4604      	mov	r4, r0
 80084e4:	d155      	bne.n	8008592 <_malloc_r+0xf2>
 80084e6:	f8d8 4000 	ldr.w	r4, [r8]
 80084ea:	4626      	mov	r6, r4
 80084ec:	2e00      	cmp	r6, #0
 80084ee:	d145      	bne.n	800857c <_malloc_r+0xdc>
 80084f0:	2c00      	cmp	r4, #0
 80084f2:	d048      	beq.n	8008586 <_malloc_r+0xe6>
 80084f4:	6823      	ldr	r3, [r4, #0]
 80084f6:	4631      	mov	r1, r6
 80084f8:	4638      	mov	r0, r7
 80084fa:	eb04 0903 	add.w	r9, r4, r3
 80084fe:	f000 fc19 	bl	8008d34 <_sbrk_r>
 8008502:	4581      	cmp	r9, r0
 8008504:	d13f      	bne.n	8008586 <_malloc_r+0xe6>
 8008506:	6821      	ldr	r1, [r4, #0]
 8008508:	1a6d      	subs	r5, r5, r1
 800850a:	4629      	mov	r1, r5
 800850c:	4638      	mov	r0, r7
 800850e:	f7ff ffa7 	bl	8008460 <sbrk_aligned>
 8008512:	3001      	adds	r0, #1
 8008514:	d037      	beq.n	8008586 <_malloc_r+0xe6>
 8008516:	6823      	ldr	r3, [r4, #0]
 8008518:	442b      	add	r3, r5
 800851a:	6023      	str	r3, [r4, #0]
 800851c:	f8d8 3000 	ldr.w	r3, [r8]
 8008520:	2b00      	cmp	r3, #0
 8008522:	d038      	beq.n	8008596 <_malloc_r+0xf6>
 8008524:	685a      	ldr	r2, [r3, #4]
 8008526:	42a2      	cmp	r2, r4
 8008528:	d12b      	bne.n	8008582 <_malloc_r+0xe2>
 800852a:	2200      	movs	r2, #0
 800852c:	605a      	str	r2, [r3, #4]
 800852e:	e00f      	b.n	8008550 <_malloc_r+0xb0>
 8008530:	6822      	ldr	r2, [r4, #0]
 8008532:	1b52      	subs	r2, r2, r5
 8008534:	d41f      	bmi.n	8008576 <_malloc_r+0xd6>
 8008536:	2a0b      	cmp	r2, #11
 8008538:	d917      	bls.n	800856a <_malloc_r+0xca>
 800853a:	1961      	adds	r1, r4, r5
 800853c:	42a3      	cmp	r3, r4
 800853e:	6025      	str	r5, [r4, #0]
 8008540:	bf18      	it	ne
 8008542:	6059      	strne	r1, [r3, #4]
 8008544:	6863      	ldr	r3, [r4, #4]
 8008546:	bf08      	it	eq
 8008548:	f8c8 1000 	streq.w	r1, [r8]
 800854c:	5162      	str	r2, [r4, r5]
 800854e:	604b      	str	r3, [r1, #4]
 8008550:	4638      	mov	r0, r7
 8008552:	f104 060b 	add.w	r6, r4, #11
 8008556:	f000 f829 	bl	80085ac <__malloc_unlock>
 800855a:	f026 0607 	bic.w	r6, r6, #7
 800855e:	1d23      	adds	r3, r4, #4
 8008560:	1af2      	subs	r2, r6, r3
 8008562:	d0ae      	beq.n	80084c2 <_malloc_r+0x22>
 8008564:	1b9b      	subs	r3, r3, r6
 8008566:	50a3      	str	r3, [r4, r2]
 8008568:	e7ab      	b.n	80084c2 <_malloc_r+0x22>
 800856a:	42a3      	cmp	r3, r4
 800856c:	6862      	ldr	r2, [r4, #4]
 800856e:	d1dd      	bne.n	800852c <_malloc_r+0x8c>
 8008570:	f8c8 2000 	str.w	r2, [r8]
 8008574:	e7ec      	b.n	8008550 <_malloc_r+0xb0>
 8008576:	4623      	mov	r3, r4
 8008578:	6864      	ldr	r4, [r4, #4]
 800857a:	e7ac      	b.n	80084d6 <_malloc_r+0x36>
 800857c:	4634      	mov	r4, r6
 800857e:	6876      	ldr	r6, [r6, #4]
 8008580:	e7b4      	b.n	80084ec <_malloc_r+0x4c>
 8008582:	4613      	mov	r3, r2
 8008584:	e7cc      	b.n	8008520 <_malloc_r+0x80>
 8008586:	230c      	movs	r3, #12
 8008588:	603b      	str	r3, [r7, #0]
 800858a:	4638      	mov	r0, r7
 800858c:	f000 f80e 	bl	80085ac <__malloc_unlock>
 8008590:	e797      	b.n	80084c2 <_malloc_r+0x22>
 8008592:	6025      	str	r5, [r4, #0]
 8008594:	e7dc      	b.n	8008550 <_malloc_r+0xb0>
 8008596:	605b      	str	r3, [r3, #4]
 8008598:	deff      	udf	#255	; 0xff
 800859a:	bf00      	nop
 800859c:	20000af4 	.word	0x20000af4

080085a0 <__malloc_lock>:
 80085a0:	4801      	ldr	r0, [pc, #4]	; (80085a8 <__malloc_lock+0x8>)
 80085a2:	f7ff bedc 	b.w	800835e <__retarget_lock_acquire_recursive>
 80085a6:	bf00      	nop
 80085a8:	20000af0 	.word	0x20000af0

080085ac <__malloc_unlock>:
 80085ac:	4801      	ldr	r0, [pc, #4]	; (80085b4 <__malloc_unlock+0x8>)
 80085ae:	f7ff bed7 	b.w	8008360 <__retarget_lock_release_recursive>
 80085b2:	bf00      	nop
 80085b4:	20000af0 	.word	0x20000af0

080085b8 <__ssputs_r>:
 80085b8:	e92d 47f0 	stmdb	sp!, {r4, r5, r6, r7, r8, r9, sl, lr}
 80085bc:	688e      	ldr	r6, [r1, #8]
 80085be:	461f      	mov	r7, r3
 80085c0:	42be      	cmp	r6, r7
 80085c2:	680b      	ldr	r3, [r1, #0]
 80085c4:	4682      	mov	sl, r0
 80085c6:	460c      	mov	r4, r1
 80085c8:	4690      	mov	r8, r2
 80085ca:	d82c      	bhi.n	8008626 <__ssputs_r+0x6e>
 80085cc:	898a      	ldrh	r2, [r1, #12]
 80085ce:	f412 6f90 	tst.w	r2, #1152	; 0x480
 80085d2:	d026      	beq.n	8008622 <__ssputs_r+0x6a>
 80085d4:	6965      	ldr	r5, [r4, #20]
 80085d6:	6909      	ldr	r1, [r1, #16]
 80085d8:	eb05 0545 	add.w	r5, r5, r5, lsl #1
 80085dc:	eba3 0901 	sub.w	r9, r3, r1
 80085e0:	eb05 75d5 	add.w	r5, r5, r5, lsr #31
 80085e4:	1c7b      	adds	r3, r7, #1
 80085e6:	444b      	add	r3, r9
 80085e8:	106d      	asrs	r5, r5, #1
 80085ea:	429d      	cmp	r5, r3
 80085ec:	bf38      	it	cc
 80085ee:	461d      	movcc	r5, r3
 80085f0:	0553      	lsls	r3, r2, #21
 80085f2:	d527      	bpl.n	8008644 <__ssputs_r+0x8c>
 80085f4:	4629      	mov	r1, r5
 80085f6:	f7ff ff53 	bl	80084a0 <_malloc_r>
 80085fa:	4606      	mov	r6, r0
 80085fc:	b360      	cbz	r0, 8008658 <__ssputs_r+0xa0>
 80085fe:	6921      	ldr	r1, [r4, #16]
 8008600:	464a      	mov	r2, r9
 8008602:	f7ff feae 	bl	8008362 <memcpy>
 8008606:	89a3      	ldrh	r3, [r4, #12]
 8008608:	f423 6390 	bic.w	r3, r3, #1152	; 0x480
 800860c:	f043 0380 	orr.w	r3, r3, #128	; 0x80
 8008610:	81a3      	strh	r3, [r4, #12]
 8008612:	6126      	str	r6, [r4, #16]
 8008614:	6165      	str	r5, [r4, #20]
 8008616:	444e      	add	r6, r9
 8008618:	eba5 0509 	sub.w	r5, r5, r9
 800861c:	6026      	str	r6, [r4, #0]
 800861e:	60a5      	str	r5, [r4, #8]
 8008620:	463e      	mov	r6, r7
 8008622:	42be      	cmp	r6, r7
 8008624:	d900      	bls.n	8008628 <__ssputs_r+0x70>
 8008626:	463e      	mov	r6, r7
 8008628:	6820      	ldr	r0, [r4, #0]
 800862a:	4632      	mov	r2, r6
 800862c:	4641      	mov	r1, r8
 800862e:	f000 fb67 	bl	8008d00 <memmove>
 8008632:	68a3      	ldr	r3, [r4, #8]
 8008634:	1b9b      	subs	r3, r3, r6
 8008636:	60a3      	str	r3, [r4, #8]
 8008638:	6823      	ldr	r3, [r4, #0]
 800863a:	4433      	add	r3, r6
 800863c:	6023      	str	r3, [r4, #0]
 800863e:	2000      	movs	r0, #0
 8008640:	e8bd 87f0 	ldmia.w	sp!, {r4, r5, r6, r7, r8, r9, sl, pc}
 8008644:	462a      	mov	r2, r5
 8008646:	f000 fb8c 	bl	8008d62 <_realloc_r>
 800864a:	4606      	mov	r6, r0
 800864c:	2800      	cmp	r0, #0
 800864e:	d1e0      	bne.n	8008612 <__ssputs_r+0x5a>
 8008650:	6921      	ldr	r1, [r4, #16]
 8008652:	4650      	mov	r0, sl
 8008654:	f7ff feb2 	bl	80083bc <_free_r>
 8008658:	230c      	movs	r3, #12
 800865a:	f8ca 3000 	str.w	r3, [sl]
 800865e:	89a3      	ldrh	r3, [r4, #12]
 8008660:	f043 0340 	orr.w	r3, r3, #64	; 0x40
 8008664:	81a3      	strh	r3, [r4, #12]
 8008666:	f04f 30ff 	mov.w	r0, #4294967295
 800866a:	e7e9      	b.n	8008640 <__ssputs_r+0x88>

0800866c <_svfiprintf_r>:
 800866c:	e92d 4ff0 	stmdb	sp!, {r4, r5, r6, r7, r8, r9, sl, fp, lr}
 8008670:	4698      	mov	r8, r3
 8008672:	898b      	ldrh	r3, [r1, #12]
 8008674:	061b      	lsls	r3, r3, #24
 8008676:	b09d      	sub	sp, #116	; 0x74
 8008678:	4607      	mov	r7, r0
 800867a:	460d      	mov	r5, r1
 800867c:	4614      	mov	r4, r2
 800867e:	d50e      	bpl.n	800869e <_svfiprintf_r+0x32>
 8008680:	690b      	ldr	r3, [r1, #16]
 8008682:	b963      	cbnz	r3, 800869e <_svfiprintf_r+0x32>
 8008684:	2140      	movs	r1, #64	; 0x40
 8008686:	f7ff ff0b 	bl	80084a0 <_malloc_r>
 800868a:	6028      	str	r0, [r5, #0]
 800868c:	6128      	str	r0, [r5, #16]
 800868e:	b920      	cbnz	r0, 800869a <_svfiprintf_r+0x2e>
 8008690:	230c      	movs	r3, #12
 8008692:	603b      	str	r3, [r7, #0]
 8008694:	f04f 30ff 	mov.w	r0, #4294967295
 8008698:	e0d0      	b.n	800883c <_svfiprintf_r+0x1d0>
 800869a:	2340      	movs	r3, #64	; 0x40
 800869c:	616b      	str	r3, [r5, #20]
 800869e:	2300      	movs	r3, #0
 80086a0:	9309      	str	r3, [sp, #36]	; 0x24
 80086a2:	2320      	movs	r3, #32
 80086a4:	f88d 3029 	strb.w	r3, [sp, #41]	; 0x29
 80086a8:	f8cd 800c 	str.w	r8, [sp, #12]
 80086ac:	2330      	movs	r3, #48	; 0x30
 80086ae:	f8df 81a4 	ldr.w	r8, [pc, #420]	; 8008854 <_svfiprintf_r+0x1e8>
 80086b2:	f88d 302a 	strb.w	r3, [sp, #42]	; 0x2a
 80086b6:	f04f 0901 	mov.w	r9, #1
 80086ba:	4623      	mov	r3, r4
 80086bc:	469a      	mov	sl, r3
 80086be:	f813 2b01 	ldrb.w	r2, [r3], #1
 80086c2:	b10a      	cbz	r2, 80086c8 <_svfiprintf_r+0x5c>
 80086c4:	2a25      	cmp	r2, #37	; 0x25
 80086c6:	d1f9      	bne.n	80086bc <_svfiprintf_r+0x50>
 80086c8:	ebba 0b04 	subs.w	fp, sl, r4
 80086cc:	d00b      	beq.n	80086e6 <_svfiprintf_r+0x7a>
 80086ce:	465b      	mov	r3, fp
 80086d0:	4622      	mov	r2, r4
 80086d2:	4629      	mov	r1, r5
 80086d4:	4638      	mov	r0, r7
 80086d6:	f7ff ff6f 	bl	80085b8 <__ssputs_r>
 80086da:	3001      	adds	r0, #1
 80086dc:	f000 80a9 	beq.w	8008832 <_svfiprintf_r+0x1c6>
 80086e0:	9a09      	ldr	r2, [sp, #36]	; 0x24
 80086e2:	445a      	add	r2, fp
 80086e4:	9209      	str	r2, [sp, #36]	; 0x24
 80086e6:	f89a 3000 	ldrb.w	r3, [sl]
 80086ea:	2b00      	cmp	r3, #0
 80086ec:	f000 80a1 	beq.w	8008832 <_svfiprintf_r+0x1c6>
 80086f0:	2300      	movs	r3, #0
 80086f2:	f04f 32ff 	mov.w	r2, #4294967295
 80086f6:	e9cd 2305 	strd	r2, r3, [sp, #20]
 80086fa:	f10a 0a01 	add.w	sl, sl, #1
 80086fe:	9304      	str	r3, [sp, #16]
 8008700:	9307      	str	r3, [sp, #28]
 8008702:	f88d 3053 	strb.w	r3, [sp, #83]	; 0x53
 8008706:	931a      	str	r3, [sp, #104]	; 0x68
 8008708:	4654      	mov	r4, sl
 800870a:	2205      	movs	r2, #5
 800870c:	f814 1b01 	ldrb.w	r1, [r4], #1
 8008710:	4850      	ldr	r0, [pc, #320]	; (8008854 <_svfiprintf_r+0x1e8>)
 8008712:	f7f7 fd3d 	bl	8000190 <memchr>
 8008716:	9a04      	ldr	r2, [sp, #16]
 8008718:	b9d8      	cbnz	r0, 8008752 <_svfiprintf_r+0xe6>
 800871a:	06d0      	lsls	r0, r2, #27
 800871c:	bf44      	itt	mi
 800871e:	2320      	movmi	r3, #32
 8008720:	f88d 3053 	strbmi.w	r3, [sp, #83]	; 0x53
 8008724:	0711      	lsls	r1, r2, #28
 8008726:	bf44      	itt	mi
 8008728:	232b      	movmi	r3, #43	; 0x2b
 800872a:	f88d 3053 	strbmi.w	r3, [sp, #83]	; 0x53
 800872e:	f89a 3000 	ldrb.w	r3, [sl]
 8008732:	2b2a      	cmp	r3, #42	; 0x2a
 8008734:	d015      	beq.n	8008762 <_svfiprintf_r+0xf6>
 8008736:	9a07      	ldr	r2, [sp, #28]
 8008738:	4654      	mov	r4, sl
 800873a:	2000      	movs	r0, #0
 800873c:	f04f 0c0a 	mov.w	ip, #10
 8008740:	4621      	mov	r1, r4
 8008742:	f811 3b01 	ldrb.w	r3, [r1], #1
 8008746:	3b30      	subs	r3, #48	; 0x30
 8008748:	2b09      	cmp	r3, #9
 800874a:	d94d      	bls.n	80087e8 <_svfiprintf_r+0x17c>
 800874c:	b1b0      	cbz	r0, 800877c <_svfiprintf_r+0x110>
 800874e:	9207      	str	r2, [sp, #28]
 8008750:	e014      	b.n	800877c <_svfiprintf_r+0x110>
 8008752:	eba0 0308 	sub.w	r3, r0, r8
 8008756:	fa09 f303 	lsl.w	r3, r9, r3
 800875a:	4313      	orrs	r3, r2
 800875c:	9304      	str	r3, [sp, #16]
 800875e:	46a2      	mov	sl, r4
 8008760:	e7d2      	b.n	8008708 <_svfiprintf_r+0x9c>
 8008762:	9b03      	ldr	r3, [sp, #12]
 8008764:	1d19      	adds	r1, r3, #4
 8008766:	681b      	ldr	r3, [r3, #0]
 8008768:	9103      	str	r1, [sp, #12]
 800876a:	2b00      	cmp	r3, #0
 800876c:	bfbb      	ittet	lt
 800876e:	425b      	neglt	r3, r3
 8008770:	f042 0202 	orrlt.w	r2, r2, #2
 8008774:	9307      	strge	r3, [sp, #28]
 8008776:	9307      	strlt	r3, [sp, #28]
 8008778:	bfb8      	it	lt
 800877a:	9204      	strlt	r2, [sp, #16]
 800877c:	7823      	ldrb	r3, [r4, #0]
 800877e:	2b2e      	cmp	r3, #46	; 0x2e
 8008780:	d10c      	bne.n	800879c <_svfiprintf_r+0x130>
 8008782:	7863      	ldrb	r3, [r4, #1]
 8008784:	2b2a      	cmp	r3, #42	; 0x2a
 8008786:	d134      	bne.n	80087f2 <_svfiprintf_r+0x186>
 8008788:	9b03      	ldr	r3, [sp, #12]
 800878a:	1d1a      	adds	r2, r3, #4
 800878c:	681b      	ldr	r3, [r3, #0]
 800878e:	9203      	str	r2, [sp, #12]
 8008790:	2b00      	cmp	r3, #0
 8008792:	bfb8      	it	lt
 8008794:	f04f 33ff 	movlt.w	r3, #4294967295
 8008798:	3402      	adds	r4, #2
 800879a:	9305      	str	r3, [sp, #20]
 800879c:	f8df a0b8 	ldr.w	sl, [pc, #184]	; 8008858 <_svfiprintf_r+0x1ec>
 80087a0:	7821      	ldrb	r1, [r4, #0]
 80087a2:	2203      	movs	r2, #3
 80087a4:	4650      	mov	r0, sl
 80087a6:	f7f7 fcf3 	bl	8000190 <memchr>
 80087aa:	b138      	cbz	r0, 80087bc <_svfiprintf_r+0x150>
 80087ac:	9b04      	ldr	r3, [sp, #16]
 80087ae:	eba0 000a 	sub.w	r0, r0, sl
 80087b2:	2240      	movs	r2, #64	; 0x40
 80087b4:	4082      	lsls	r2, r0
 80087b6:	4313      	orrs	r3, r2
 80087b8:	3401      	adds	r4, #1
 80087ba:	9304      	str	r3, [sp, #16]
 80087bc:	f814 1b01 	ldrb.w	r1, [r4], #1
 80087c0:	4826      	ldr	r0, [pc, #152]	; (800885c <_svfiprintf_r+0x1f0>)
 80087c2:	f88d 1028 	strb.w	r1, [sp, #40]	; 0x28
 80087c6:	2206      	movs	r2, #6
 80087c8:	f7f7 fce2 	bl	8000190 <memchr>
 80087cc:	2800      	cmp	r0, #0
 80087ce:	d038      	beq.n	8008842 <_svfiprintf_r+0x1d6>
 80087d0:	4b23      	ldr	r3, [pc, #140]	; (8008860 <_svfiprintf_r+0x1f4>)
 80087d2:	bb1b      	cbnz	r3, 800881c <_svfiprintf_r+0x1b0>
 80087d4:	9b03      	ldr	r3, [sp, #12]
 80087d6:	3307      	adds	r3, #7
 80087d8:	f023 0307 	bic.w	r3, r3, #7
 80087dc:	3308      	adds	r3, #8
 80087de:	9303      	str	r3, [sp, #12]
 80087e0:	9b09      	ldr	r3, [sp, #36]	; 0x24
 80087e2:	4433      	add	r3, r6
 80087e4:	9309      	str	r3, [sp, #36]	; 0x24
 80087e6:	e768      	b.n	80086ba <_svfiprintf_r+0x4e>
 80087e8:	fb0c 3202 	mla	r2, ip, r2, r3
 80087ec:	460c      	mov	r4, r1
 80087ee:	2001      	movs	r0, #1
 80087f0:	e7a6      	b.n	8008740 <_svfiprintf_r+0xd4>
 80087f2:	2300      	movs	r3, #0
 80087f4:	3401      	adds	r4, #1
 80087f6:	9305      	str	r3, [sp, #20]
 80087f8:	4619      	mov	r1, r3
 80087fa:	f04f 0c0a 	mov.w	ip, #10
 80087fe:	4620      	mov	r0, r4
 8008800:	f810 2b01 	ldrb.w	r2, [r0], #1
 8008804:	3a30      	subs	r2, #48	; 0x30
 8008806:	2a09      	cmp	r2, #9
 8008808:	d903      	bls.n	8008812 <_svfiprintf_r+0x1a6>
 800880a:	2b00      	cmp	r3, #0
 800880c:	d0c6      	beq.n	800879c <_svfiprintf_r+0x130>
 800880e:	9105      	str	r1, [sp, #20]
 8008810:	e7c4      	b.n	800879c <_svfiprintf_r+0x130>
 8008812:	fb0c 2101 	mla	r1, ip, r1, r2
 8008816:	4604      	mov	r4, r0
 8008818:	2301      	movs	r3, #1
 800881a:	e7f0      	b.n	80087fe <_svfiprintf_r+0x192>
 800881c:	ab03      	add	r3, sp, #12
 800881e:	9300      	str	r3, [sp, #0]
 8008820:	462a      	mov	r2, r5
 8008822:	4b10      	ldr	r3, [pc, #64]	; (8008864 <_svfiprintf_r+0x1f8>)
 8008824:	a904      	add	r1, sp, #16
 8008826:	4638      	mov	r0, r7
 8008828:	f3af 8000 	nop.w
 800882c:	1c42      	adds	r2, r0, #1
 800882e:	4606      	mov	r6, r0
 8008830:	d1d6      	bne.n	80087e0 <_svfiprintf_r+0x174>
 8008832:	89ab      	ldrh	r3, [r5, #12]
 8008834:	065b      	lsls	r3, r3, #25
 8008836:	f53f af2d 	bmi.w	8008694 <_svfiprintf_r+0x28>
 800883a:	9809      	ldr	r0, [sp, #36]	; 0x24
 800883c:	b01d      	add	sp, #116	; 0x74
 800883e:	e8bd 8ff0 	ldmia.w	sp!, {r4, r5, r6, r7, r8, r9, sl, fp, pc}
 8008842:	ab03      	add	r3, sp, #12
 8008844:	9300      	str	r3, [sp, #0]
 8008846:	462a      	mov	r2, r5
 8008848:	4b06      	ldr	r3, [pc, #24]	; (8008864 <_svfiprintf_r+0x1f8>)
 800884a:	a904      	add	r1, sp, #16
 800884c:	4638      	mov	r0, r7
 800884e:	f000 f879 	bl	8008944 <_printf_i>
 8008852:	e7eb      	b.n	800882c <_svfiprintf_r+0x1c0>
 8008854:	0800994a 	.word	0x0800994a
 8008858:	08009950 	.word	0x08009950
 800885c:	08009954 	.word	0x08009954
 8008860:	00000000 	.word	0x00000000
 8008864:	080085b9 	.word	0x080085b9

08008868 <_printf_common>:
 8008868:	e92d 47f0 	stmdb	sp!, {r4, r5, r6, r7, r8, r9, sl, lr}
 800886c:	4616      	mov	r6, r2
 800886e:	4699      	mov	r9, r3
 8008870:	688a      	ldr	r2, [r1, #8]
 8008872:	690b      	ldr	r3, [r1, #16]
 8008874:	f8dd 8020 	ldr.w	r8, [sp, #32]
 8008878:	4293      	cmp	r3, r2
 800887a:	bfb8      	it	lt
 800887c:	4613      	movlt	r3, r2
 800887e:	6033      	str	r3, [r6, #0]
 8008880:	f891 2043 	ldrb.w	r2, [r1, #67]	; 0x43
 8008884:	4607      	mov	r7, r0
 8008886:	460c      	mov	r4, r1
 8008888:	b10a      	cbz	r2, 800888e <_printf_common+0x26>
 800888a:	3301      	adds	r3, #1
 800888c:	6033      	str	r3, [r6, #0]
 800888e:	6823      	ldr	r3, [r4, #0]
 8008890:	0699      	lsls	r1, r3, #26
 8008892:	bf42      	ittt	mi
 8008894:	6833      	ldrmi	r3, [r6, #0]
 8008896:	3302      	addmi	r3, #2
 8008898:	6033      	strmi	r3, [r6, #0]
 800889a:	6825      	ldr	r5, [r4, #0]
 800889c:	f015 0506 	ands.w	r5, r5, #6
 80088a0:	d106      	bne.n	80088b0 <_printf_common+0x48>
 80088a2:	f104 0a19 	add.w	sl, r4, #25
 80088a6:	68e3      	ldr	r3, [r4, #12]
 80088a8:	6832      	ldr	r2, [r6, #0]
 80088aa:	1a9b      	subs	r3, r3, r2
 80088ac:	42ab      	cmp	r3, r5
 80088ae:	dc26      	bgt.n	80088fe <_printf_common+0x96>
 80088b0:	f894 2043 	ldrb.w	r2, [r4, #67]	; 0x43
 80088b4:	1e13      	subs	r3, r2, #0
 80088b6:	6822      	ldr	r2, [r4, #0]
 80088b8:	bf18      	it	ne
 80088ba:	2301      	movne	r3, #1
 80088bc:	0692      	lsls	r2, r2, #26
 80088be:	d42b      	bmi.n	8008918 <_printf_common+0xb0>
 80088c0:	f104 0243 	add.w	r2, r4, #67	; 0x43
 80088c4:	4649      	mov	r1, r9
 80088c6:	4638      	mov	r0, r7
 80088c8:	47c0      	blx	r8
 80088ca:	3001      	adds	r0, #1
 80088cc:	d01e      	beq.n	800890c <_printf_common+0xa4>
 80088ce:	6823      	ldr	r3, [r4, #0]
 80088d0:	6922      	ldr	r2, [r4, #16]
 80088d2:	f003 0306 	and.w	r3, r3, #6
 80088d6:	2b04      	cmp	r3, #4
 80088d8:	bf02      	ittt	eq
 80088da:	68e5      	ldreq	r5, [r4, #12]
 80088dc:	6833      	ldreq	r3, [r6, #0]
 80088de:	1aed      	subeq	r5, r5, r3
 80088e0:	68a3      	ldr	r3, [r4, #8]
 80088e2:	bf0c      	ite	eq
 80088e4:	ea25 75e5 	biceq.w	r5, r5, r5, asr #31
 80088e8:	2500      	movne	r5, #0
 80088ea:	4293      	cmp	r3, r2
 80088ec:	bfc4      	itt	gt
 80088ee:	1a9b      	subgt	r3, r3, r2
 80088f0:	18ed      	addgt	r5, r5, r3
 80088f2:	2600      	movs	r6, #0
 80088f4:	341a      	adds	r4, #26
 80088f6:	42b5      	cmp	r5, r6
 80088f8:	d11a      	bne.n	8008930 <_printf_common+0xc8>
 80088fa:	2000      	movs	r0, #0
 80088fc:	e008      	b.n	8008910 <_printf_common+0xa8>
 80088fe:	2301      	movs	r3, #1
 8008900:	4652      	mov	r2, sl
 8008902:	4649      	mov	r1, r9
 8008904:	4638      	mov	r0, r7
 8008906:	47c0      	blx	r8
 8008908:	3001      	adds	r0, #1
 800890a:	d103      	bne.n	8008914 <_printf_common+0xac>
 800890c:	f04f 30ff 	mov.w	r0, #4294967295
 8008910:	e8bd 87f0 	ldmia.w	sp!, {r4, r5, r6, r7, r8, r9, sl, pc}
 8008914:	3501      	adds	r5, #1
 8008916:	e7c6      	b.n	80088a6 <_printf_common+0x3e>
 8008918:	18e1      	adds	r1, r4, r3
 800891a:	1c5a      	adds	r2, r3, #1
 800891c:	2030      	movs	r0, #48	; 0x30
 800891e:	f881 0043 	strb.w	r0, [r1, #67]	; 0x43
 8008922:	4422      	add	r2, r4
 8008924:	f894 1045 	ldrb.w	r1, [r4, #69]	; 0x45
 8008928:	f882 1043 	strb.w	r1, [r2, #67]	; 0x43
 800892c:	3302      	adds	r3, #2
 800892e:	e7c7      	b.n	80088c0 <_printf_common+0x58>
 8008930:	2301      	movs	r3, #1
 8008932:	4622      	mov	r2, r4
 8008934:	4649      	mov	r1, r9
 8008936:	4638      	mov	r0, r7
 8008938:	47c0      	blx	r8
 800893a:	3001      	adds	r0, #1
 800893c:	d0e6      	beq.n	800890c <_printf_common+0xa4>
 800893e:	3601      	adds	r6, #1
 8008940:	e7d9      	b.n	80088f6 <_printf_common+0x8e>
	...

08008944 <_printf_i>:
 8008944:	e92d 47ff 	stmdb	sp!, {r0, r1, r2, r3, r4, r5, r6, r7, r8, r9, sl, lr}
 8008948:	7e0f      	ldrb	r7, [r1, #24]
 800894a:	9d0c      	ldr	r5, [sp, #48]	; 0x30
 800894c:	2f78      	cmp	r7, #120	; 0x78
 800894e:	4691      	mov	r9, r2
 8008950:	4680      	mov	r8, r0
 8008952:	460c      	mov	r4, r1
 8008954:	469a      	mov	sl, r3
 8008956:	f101 0243 	add.w	r2, r1, #67	; 0x43
 800895a:	d807      	bhi.n	800896c <_printf_i+0x28>
 800895c:	2f62      	cmp	r7, #98	; 0x62
 800895e:	d80a      	bhi.n	8008976 <_printf_i+0x32>
 8008960:	2f00      	cmp	r7, #0
 8008962:	f000 80d4 	beq.w	8008b0e <_printf_i+0x1ca>
 8008966:	2f58      	cmp	r7, #88	; 0x58
 8008968:	f000 80c0 	beq.w	8008aec <_printf_i+0x1a8>
 800896c:	f104 0542 	add.w	r5, r4, #66	; 0x42
 8008970:	f884 7042 	strb.w	r7, [r4, #66]	; 0x42
 8008974:	e03a      	b.n	80089ec <_printf_i+0xa8>
 8008976:	f1a7 0363 	sub.w	r3, r7, #99	; 0x63
 800897a:	2b15      	cmp	r3, #21
 800897c:	d8f6      	bhi.n	800896c <_printf_i+0x28>
 800897e:	a101      	add	r1, pc, #4	; (adr r1, 8008984 <_printf_i+0x40>)
 8008980:	f851 f023 	ldr.w	pc, [r1, r3, lsl #2]
 8008984:	080089dd 	.word	0x080089dd
 8008988:	080089f1 	.word	0x080089f1
 800898c:	0800896d 	.word	0x0800896d
 8008990:	0800896d 	.word	0x0800896d
 8008994:	0800896d 	.word	0x0800896d
 8008998:	0800896d 	.word	0x0800896d
 800899c:	080089f1 	.word	0x080089f1
 80089a0:	0800896d 	.word	0x0800896d
 80089a4:	0800896d 	.word	0x0800896d
 80089a8:	0800896d 	.word	0x0800896d
 80089ac:	0800896d 	.word	0x0800896d
 80089b0:	08008af5 	.word	0x08008af5
 80089b4:	08008a1d 	.word	0x08008a1d
 80089b8:	08008aaf 	.word	0x08008aaf
 80089bc:	0800896d 	.word	0x0800896d
 80089c0:	0800896d 	.word	0x0800896d
 80089c4:	08008b17 	.word	0x08008b17
 80089c8:	0800896d 	.word	0x0800896d
 80089cc:	08008a1d 	.word	0x08008a1d
 80089d0:	0800896d 	.word	0x0800896d
 80089d4:	0800896d 	.word	0x0800896d
 80089d8:	08008ab7 	.word	0x08008ab7
 80089dc:	682b      	ldr	r3, [r5, #0]
 80089de:	1d1a      	adds	r2, r3, #4
 80089e0:	681b      	ldr	r3, [r3, #0]
 80089e2:	602a      	str	r2, [r5, #0]
 80089e4:	f104 0542 	add.w	r5, r4, #66	; 0x42
 80089e8:	f884 3042 	strb.w	r3, [r4, #66]	; 0x42
 80089ec:	2301      	movs	r3, #1
 80089ee:	e09f      	b.n	8008b30 <_printf_i+0x1ec>
 80089f0:	6820      	ldr	r0, [r4, #0]
 80089f2:	682b      	ldr	r3, [r5, #0]
 80089f4:	0607      	lsls	r7, r0, #24
 80089f6:	f103 0104 	add.w	r1, r3, #4
 80089fa:	6029      	str	r1, [r5, #0]
 80089fc:	d501      	bpl.n	8008a02 <_printf_i+0xbe>
 80089fe:	681e      	ldr	r6, [r3, #0]
 8008a00:	e003      	b.n	8008a0a <_printf_i+0xc6>
 8008a02:	0646      	lsls	r6, r0, #25
 8008a04:	d5fb      	bpl.n	80089fe <_printf_i+0xba>
 8008a06:	f9b3 6000 	ldrsh.w	r6, [r3]
 8008a0a:	2e00      	cmp	r6, #0
 8008a0c:	da03      	bge.n	8008a16 <_printf_i+0xd2>
 8008a0e:	232d      	movs	r3, #45	; 0x2d
 8008a10:	4276      	negs	r6, r6
 8008a12:	f884 3043 	strb.w	r3, [r4, #67]	; 0x43
 8008a16:	485a      	ldr	r0, [pc, #360]	; (8008b80 <_printf_i+0x23c>)
 8008a18:	230a      	movs	r3, #10
 8008a1a:	e012      	b.n	8008a42 <_printf_i+0xfe>
 8008a1c:	682b      	ldr	r3, [r5, #0]
 8008a1e:	6820      	ldr	r0, [r4, #0]
 8008a20:	1d19      	adds	r1, r3, #4
 8008a22:	6029      	str	r1, [r5, #0]
 8008a24:	0605      	lsls	r5, r0, #24
 8008a26:	d501      	bpl.n	8008a2c <_printf_i+0xe8>
 8008a28:	681e      	ldr	r6, [r3, #0]
 8008a2a:	e002      	b.n	8008a32 <_printf_i+0xee>
 8008a2c:	0641      	lsls	r1, r0, #25
 8008a2e:	d5fb      	bpl.n	8008a28 <_printf_i+0xe4>
 8008a30:	881e      	ldrh	r6, [r3, #0]
 8008a32:	4853      	ldr	r0, [pc, #332]	; (8008b80 <_printf_i+0x23c>)
 8008a34:	2f6f      	cmp	r7, #111	; 0x6f
 8008a36:	bf0c      	ite	eq
 8008a38:	2308      	moveq	r3, #8
 8008a3a:	230a      	movne	r3, #10
 8008a3c:	2100      	movs	r1, #0
 8008a3e:	f884 1043 	strb.w	r1, [r4, #67]	; 0x43
 8008a42:	6865      	ldr	r5, [r4, #4]
 8008a44:	60a5      	str	r5, [r4, #8]
 8008a46:	2d00      	cmp	r5, #0
 8008a48:	bfa2      	ittt	ge
 8008a4a:	6821      	ldrge	r1, [r4, #0]
 8008a4c:	f021 0104 	bicge.w	r1, r1, #4
 8008a50:	6021      	strge	r1, [r4, #0]
 8008a52:	b90e      	cbnz	r6, 8008a58 <_printf_i+0x114>
 8008a54:	2d00      	cmp	r5, #0
 8008a56:	d04b      	beq.n	8008af0 <_printf_i+0x1ac>
 8008a58:	4615      	mov	r5, r2
 8008a5a:	fbb6 f1f3 	udiv	r1, r6, r3
 8008a5e:	fb03 6711 	mls	r7, r3, r1, r6
 8008a62:	5dc7      	ldrb	r7, [r0, r7]
 8008a64:	f805 7d01 	strb.w	r7, [r5, #-1]!
 8008a68:	4637      	mov	r7, r6
 8008a6a:	42bb      	cmp	r3, r7
 8008a6c:	460e      	mov	r6, r1
 8008a6e:	d9f4      	bls.n	8008a5a <_printf_i+0x116>
 8008a70:	2b08      	cmp	r3, #8
 8008a72:	d10b      	bne.n	8008a8c <_printf_i+0x148>
 8008a74:	6823      	ldr	r3, [r4, #0]
 8008a76:	07de      	lsls	r6, r3, #31
 8008a78:	d508      	bpl.n	8008a8c <_printf_i+0x148>
 8008a7a:	6923      	ldr	r3, [r4, #16]
 8008a7c:	6861      	ldr	r1, [r4, #4]
 8008a7e:	4299      	cmp	r1, r3
 8008a80:	bfde      	ittt	le
 8008a82:	2330      	movle	r3, #48	; 0x30
 8008a84:	f805 3c01 	strble.w	r3, [r5, #-1]
 8008a88:	f105 35ff 	addle.w	r5, r5, #4294967295
 8008a8c:	1b52      	subs	r2, r2, r5
 8008a8e:	6122      	str	r2, [r4, #16]
 8008a90:	f8cd a000 	str.w	sl, [sp]
 8008a94:	464b      	mov	r3, r9
 8008a96:	aa03      	add	r2, sp, #12
 8008a98:	4621      	mov	r1, r4
 8008a9a:	4640      	mov	r0, r8
 8008a9c:	f7ff fee4 	bl	8008868 <_printf_common>
 8008aa0:	3001      	adds	r0, #1
 8008aa2:	d14a      	bne.n	8008b3a <_printf_i+0x1f6>
 8008aa4:	f04f 30ff 	mov.w	r0, #4294967295
 8008aa8:	b004      	add	sp, #16
 8008aaa:	e8bd 87f0 	ldmia.w	sp!, {r4, r5, r6, r7, r8, r9, sl, pc}
 8008aae:	6823      	ldr	r3, [r4, #0]
 8008ab0:	f043 0320 	orr.w	r3, r3, #32
 8008ab4:	6023      	str	r3, [r4, #0]
 8008ab6:	4833      	ldr	r0, [pc, #204]	; (8008b84 <_printf_i+0x240>)
 8008ab8:	2778      	movs	r7, #120	; 0x78
 8008aba:	f884 7045 	strb.w	r7, [r4, #69]	; 0x45
 8008abe:	6823      	ldr	r3, [r4, #0]
 8008ac0:	6829      	ldr	r1, [r5, #0]
 8008ac2:	061f      	lsls	r7, r3, #24
 8008ac4:	f851 6b04 	ldr.w	r6, [r1], #4
 8008ac8:	d402      	bmi.n	8008ad0 <_printf_i+0x18c>
 8008aca:	065f      	lsls	r7, r3, #25
 8008acc:	bf48      	it	mi
 8008ace:	b2b6      	uxthmi	r6, r6
 8008ad0:	07df      	lsls	r7, r3, #31
 8008ad2:	bf48      	it	mi
 8008ad4:	f043 0320 	orrmi.w	r3, r3, #32
 8008ad8:	6029      	str	r1, [r5, #0]
 8008ada:	bf48      	it	mi
 8008adc:	6023      	strmi	r3, [r4, #0]
 8008ade:	b91e      	cbnz	r6, 8008ae8 <_printf_i+0x1a4>
 8008ae0:	6823      	ldr	r3, [r4, #0]
 8008ae2:	f023 0320 	bic.w	r3, r3, #32
 8008ae6:	6023      	str	r3, [r4, #0]
 8008ae8:	2310      	movs	r3, #16
 8008aea:	e7a7      	b.n	8008a3c <_printf_i+0xf8>
 8008aec:	4824      	ldr	r0, [pc, #144]	; (8008b80 <_printf_i+0x23c>)
 8008aee:	e7e4      	b.n	8008aba <_printf_i+0x176>
 8008af0:	4615      	mov	r5, r2
 8008af2:	e7bd      	b.n	8008a70 <_printf_i+0x12c>
 8008af4:	682b      	ldr	r3, [r5, #0]
 8008af6:	6826      	ldr	r6, [r4, #0]
 8008af8:	6961      	ldr	r1, [r4, #20]
 8008afa:	1d18      	adds	r0, r3, #4
 8008afc:	6028      	str	r0, [r5, #0]
 8008afe:	0635      	lsls	r5, r6, #24
 8008b00:	681b      	ldr	r3, [r3, #0]
 8008b02:	d501      	bpl.n	8008b08 <_printf_i+0x1c4>
 8008b04:	6019      	str	r1, [r3, #0]
 8008b06:	e002      	b.n	8008b0e <_printf_i+0x1ca>
 8008b08:	0670      	lsls	r0, r6, #25
 8008b0a:	d5fb      	bpl.n	8008b04 <_printf_i+0x1c0>
 8008b0c:	8019      	strh	r1, [r3, #0]
 8008b0e:	2300      	movs	r3, #0
 8008b10:	6123      	str	r3, [r4, #16]
 8008b12:	4615      	mov	r5, r2
 8008b14:	e7bc      	b.n	8008a90 <_printf_i+0x14c>
 8008b16:	682b      	ldr	r3, [r5, #0]
 8008b18:	1d1a      	adds	r2, r3, #4
 8008b1a:	602a      	str	r2, [r5, #0]
 8008b1c:	681d      	ldr	r5, [r3, #0]
 8008b1e:	6862      	ldr	r2, [r4, #4]
 8008b20:	2100      	movs	r1, #0
 8008b22:	4628      	mov	r0, r5
 8008b24:	f7f7 fb34 	bl	8000190 <memchr>
 8008b28:	b108      	cbz	r0, 8008b2e <_printf_i+0x1ea>
 8008b2a:	1b40      	subs	r0, r0, r5
 8008b2c:	6060      	str	r0, [r4, #4]
 8008b2e:	6863      	ldr	r3, [r4, #4]
 8008b30:	6123      	str	r3, [r4, #16]
 8008b32:	2300      	movs	r3, #0
 8008b34:	f884 3043 	strb.w	r3, [r4, #67]	; 0x43
 8008b38:	e7aa      	b.n	8008a90 <_printf_i+0x14c>
 8008b3a:	6923      	ldr	r3, [r4, #16]
 8008b3c:	462a      	mov	r2, r5
 8008b3e:	4649      	mov	r1, r9
 8008b40:	4640      	mov	r0, r8
 8008b42:	47d0      	blx	sl
 8008b44:	3001      	adds	r0, #1
 8008b46:	d0ad      	beq.n	8008aa4 <_printf_i+0x160>
 8008b48:	6823      	ldr	r3, [r4, #0]
 8008b4a:	079b      	lsls	r3, r3, #30
 8008b4c:	d413      	bmi.n	8008b76 <_printf_i+0x232>
 8008b4e:	68e0      	ldr	r0, [r4, #12]
 8008b50:	9b03      	ldr	r3, [sp, #12]
 8008b52:	4298      	cmp	r0, r3
 8008b54:	bfb8      	it	lt
 8008b56:	4618      	movlt	r0, r3
 8008b58:	e7a6      	b.n	8008aa8 <_printf_i+0x164>
 8008b5a:	2301      	movs	r3, #1
 8008b5c:	4632      	mov	r2, r6
 8008b5e:	4649      	mov	r1, r9
 8008b60:	4640      	mov	r0, r8
 8008b62:	47d0      	blx	sl
 8008b64:	3001      	adds	r0, #1
 8008b66:	d09d      	beq.n	8008aa4 <_printf_i+0x160>
 8008b68:	3501      	adds	r5, #1
 8008b6a:	68e3      	ldr	r3, [r4, #12]
 8008b6c:	9903      	ldr	r1, [sp, #12]
 8008b6e:	1a5b      	subs	r3, r3, r1
 8008b70:	42ab      	cmp	r3, r5
 8008b72:	dcf2      	bgt.n	8008b5a <_printf_i+0x216>
 8008b74:	e7eb      	b.n	8008b4e <_printf_i+0x20a>
 8008b76:	2500      	movs	r5, #0
 8008b78:	f104 0619 	add.w	r6, r4, #25
 8008b7c:	e7f5      	b.n	8008b6a <_printf_i+0x226>
 8008b7e:	bf00      	nop
 8008b80:	0800995b 	.word	0x0800995b
 8008b84:	0800996c 	.word	0x0800996c

08008b88 <__sflush_r>:
 8008b88:	898a      	ldrh	r2, [r1, #12]
 8008b8a:	b5f8      	push	{r3, r4, r5, r6, r7, lr}
 8008b8c:	4605      	mov	r5, r0
 8008b8e:	0710      	lsls	r0, r2, #28
 8008b90:	460c      	mov	r4, r1
 8008b92:	d457      	bmi.n	8008c44 <__sflush_r+0xbc>
 8008b94:	684b      	ldr	r3, [r1, #4]
 8008b96:	2b00      	cmp	r3, #0
 8008b98:	dc04      	bgt.n	8008ba4 <__sflush_r+0x1c>
 8008b9a:	6c0b      	ldr	r3, [r1, #64]	; 0x40
 8008b9c:	2b00      	cmp	r3, #0
 8008b9e:	dc01      	bgt.n	8008ba4 <__sflush_r+0x1c>
 8008ba0:	2000      	movs	r0, #0
 8008ba2:	bdf8      	pop	{r3, r4, r5, r6, r7, pc}
 8008ba4:	6ae6      	ldr	r6, [r4, #44]	; 0x2c
 8008ba6:	2e00      	cmp	r6, #0
 8008ba8:	d0fa      	beq.n	8008ba0 <__sflush_r+0x18>
 8008baa:	2300      	movs	r3, #0
 8008bac:	f412 5280 	ands.w	r2, r2, #4096	; 0x1000
 8008bb0:	682f      	ldr	r7, [r5, #0]
 8008bb2:	6a21      	ldr	r1, [r4, #32]
 8008bb4:	602b      	str	r3, [r5, #0]
 8008bb6:	d032      	beq.n	8008c1e <__sflush_r+0x96>
 8008bb8:	6d60      	ldr	r0, [r4, #84]	; 0x54
 8008bba:	89a3      	ldrh	r3, [r4, #12]
 8008bbc:	075a      	lsls	r2, r3, #29
 8008bbe:	d505      	bpl.n	8008bcc <__sflush_r+0x44>
 8008bc0:	6863      	ldr	r3, [r4, #4]
 8008bc2:	1ac0      	subs	r0, r0, r3
 8008bc4:	6b63      	ldr	r3, [r4, #52]	; 0x34
 8008bc6:	b10b      	cbz	r3, 8008bcc <__sflush_r+0x44>
 8008bc8:	6c23      	ldr	r3, [r4, #64]	; 0x40
 8008bca:	1ac0      	subs	r0, r0, r3
 8008bcc:	2300      	movs	r3, #0
 8008bce:	4602      	mov	r2, r0
 8008bd0:	6ae6      	ldr	r6, [r4, #44]	; 0x2c
 8008bd2:	6a21      	ldr	r1, [r4, #32]
 8008bd4:	4628      	mov	r0, r5
 8008bd6:	47b0      	blx	r6
 8008bd8:	1c43      	adds	r3, r0, #1
 8008bda:	89a3      	ldrh	r3, [r4, #12]
 8008bdc:	d106      	bne.n	8008bec <__sflush_r+0x64>
 8008bde:	6829      	ldr	r1, [r5, #0]
 8008be0:	291d      	cmp	r1, #29
 8008be2:	d82b      	bhi.n	8008c3c <__sflush_r+0xb4>
 8008be4:	4a28      	ldr	r2, [pc, #160]	; (8008c88 <__sflush_r+0x100>)
 8008be6:	410a      	asrs	r2, r1
 8008be8:	07d6      	lsls	r6, r2, #31
 8008bea:	d427      	bmi.n	8008c3c <__sflush_r+0xb4>
 8008bec:	2200      	movs	r2, #0
 8008bee:	6062      	str	r2, [r4, #4]
 8008bf0:	04d9      	lsls	r1, r3, #19
 8008bf2:	6922      	ldr	r2, [r4, #16]
 8008bf4:	6022      	str	r2, [r4, #0]
 8008bf6:	d504      	bpl.n	8008c02 <__sflush_r+0x7a>
 8008bf8:	1c42      	adds	r2, r0, #1
 8008bfa:	d101      	bne.n	8008c00 <__sflush_r+0x78>
 8008bfc:	682b      	ldr	r3, [r5, #0]
 8008bfe:	b903      	cbnz	r3, 8008c02 <__sflush_r+0x7a>
 8008c00:	6560      	str	r0, [r4, #84]	; 0x54
 8008c02:	6b61      	ldr	r1, [r4, #52]	; 0x34
 8008c04:	602f      	str	r7, [r5, #0]
 8008c06:	2900      	cmp	r1, #0
 8008c08:	d0ca      	beq.n	8008ba0 <__sflush_r+0x18>
 8008c0a:	f104 0344 	add.w	r3, r4, #68	; 0x44
 8008c0e:	4299      	cmp	r1, r3
 8008c10:	d002      	beq.n	8008c18 <__sflush_r+0x90>
 8008c12:	4628      	mov	r0, r5
 8008c14:	f7ff fbd2 	bl	80083bc <_free_r>
 8008c18:	2000      	movs	r0, #0
 8008c1a:	6360      	str	r0, [r4, #52]	; 0x34
 8008c1c:	e7c1      	b.n	8008ba2 <__sflush_r+0x1a>
 8008c1e:	2301      	movs	r3, #1
 8008c20:	4628      	mov	r0, r5
 8008c22:	47b0      	blx	r6
 8008c24:	1c41      	adds	r1, r0, #1
 8008c26:	d1c8      	bne.n	8008bba <__sflush_r+0x32>
 8008c28:	682b      	ldr	r3, [r5, #0]
 8008c2a:	2b00      	cmp	r3, #0
 8008c2c:	d0c5      	beq.n	8008bba <__sflush_r+0x32>
 8008c2e:	2b1d      	cmp	r3, #29
 8008c30:	d001      	beq.n	8008c36 <__sflush_r+0xae>
 8008c32:	2b16      	cmp	r3, #22
 8008c34:	d101      	bne.n	8008c3a <__sflush_r+0xb2>
 8008c36:	602f      	str	r7, [r5, #0]
 8008c38:	e7b2      	b.n	8008ba0 <__sflush_r+0x18>
 8008c3a:	89a3      	ldrh	r3, [r4, #12]
 8008c3c:	f043 0340 	orr.w	r3, r3, #64	; 0x40
 8008c40:	81a3      	strh	r3, [r4, #12]
 8008c42:	e7ae      	b.n	8008ba2 <__sflush_r+0x1a>
 8008c44:	690f      	ldr	r7, [r1, #16]
 8008c46:	2f00      	cmp	r7, #0
 8008c48:	d0aa      	beq.n	8008ba0 <__sflush_r+0x18>
 8008c4a:	0793      	lsls	r3, r2, #30
 8008c4c:	680e      	ldr	r6, [r1, #0]
 8008c4e:	bf08      	it	eq
 8008c50:	694b      	ldreq	r3, [r1, #20]
 8008c52:	600f      	str	r7, [r1, #0]
 8008c54:	bf18      	it	ne
 8008c56:	2300      	movne	r3, #0
 8008c58:	1bf6      	subs	r6, r6, r7
 8008c5a:	608b      	str	r3, [r1, #8]
 8008c5c:	2e00      	cmp	r6, #0
 8008c5e:	dd9f      	ble.n	8008ba0 <__sflush_r+0x18>
 8008c60:	6a21      	ldr	r1, [r4, #32]
 8008c62:	f8d4 c028 	ldr.w	ip, [r4, #40]	; 0x28
 8008c66:	4633      	mov	r3, r6
 8008c68:	463a      	mov	r2, r7
 8008c6a:	4628      	mov	r0, r5
 8008c6c:	47e0      	blx	ip
 8008c6e:	2800      	cmp	r0, #0
 8008c70:	dc06      	bgt.n	8008c80 <__sflush_r+0xf8>
 8008c72:	89a3      	ldrh	r3, [r4, #12]
 8008c74:	f043 0340 	orr.w	r3, r3, #64	; 0x40
 8008c78:	81a3      	strh	r3, [r4, #12]
 8008c7a:	f04f 30ff 	mov.w	r0, #4294967295
 8008c7e:	e790      	b.n	8008ba2 <__sflush_r+0x1a>
 8008c80:	4407      	add	r7, r0
 8008c82:	1a36      	subs	r6, r6, r0
 8008c84:	e7ea      	b.n	8008c5c <__sflush_r+0xd4>
 8008c86:	bf00      	nop
 8008c88:	dfbffffe 	.word	0xdfbffffe

08008c8c <_fflush_r>:
 8008c8c:	b538      	push	{r3, r4, r5, lr}
 8008c8e:	690b      	ldr	r3, [r1, #16]
 8008c90:	4605      	mov	r5, r0
 8008c92:	460c      	mov	r4, r1
 8008c94:	b913      	cbnz	r3, 8008c9c <_fflush_r+0x10>
 8008c96:	2500      	movs	r5, #0
 8008c98:	4628      	mov	r0, r5
 8008c9a:	bd38      	pop	{r3, r4, r5, pc}
 8008c9c:	b118      	cbz	r0, 8008ca6 <_fflush_r+0x1a>
 8008c9e:	6a03      	ldr	r3, [r0, #32]
 8008ca0:	b90b      	cbnz	r3, 8008ca6 <_fflush_r+0x1a>
 8008ca2:	f7ff fa29 	bl	80080f8 <__sinit>
 8008ca6:	f9b4 300c 	ldrsh.w	r3, [r4, #12]
 8008caa:	2b00      	cmp	r3, #0
 8008cac:	d0f3      	beq.n	8008c96 <_fflush_r+0xa>
 8008cae:	6e62      	ldr	r2, [r4, #100]	; 0x64
 8008cb0:	07d0      	lsls	r0, r2, #31
 8008cb2:	d404      	bmi.n	8008cbe <_fflush_r+0x32>
 8008cb4:	0599      	lsls	r1, r3, #22
 8008cb6:	d402      	bmi.n	8008cbe <_fflush_r+0x32>
 8008cb8:	6da0      	ldr	r0, [r4, #88]	; 0x58
 8008cba:	f7ff fb50 	bl	800835e <__retarget_lock_acquire_recursive>
 8008cbe:	4628      	mov	r0, r5
 8008cc0:	4621      	mov	r1, r4
 8008cc2:	f7ff ff61 	bl	8008b88 <__sflush_r>
 8008cc6:	6e63      	ldr	r3, [r4, #100]	; 0x64
 8008cc8:	07da      	lsls	r2, r3, #31
 8008cca:	4605      	mov	r5, r0
 8008ccc:	d4e4      	bmi.n	8008c98 <_fflush_r+0xc>
 8008cce:	89a3      	ldrh	r3, [r4, #12]
 8008cd0:	059b      	lsls	r3, r3, #22
 8008cd2:	d4e1      	bmi.n	8008c98 <_fflush_r+0xc>
 8008cd4:	6da0      	ldr	r0, [r4, #88]	; 0x58
 8008cd6:	f7ff fb43 	bl	8008360 <__retarget_lock_release_recursive>
 8008cda:	e7dd      	b.n	8008c98 <_fflush_r+0xc>

08008cdc <fiprintf>:
 8008cdc:	b40e      	push	{r1, r2, r3}
 8008cde:	b503      	push	{r0, r1, lr}
 8008ce0:	4601      	mov	r1, r0
 8008ce2:	ab03      	add	r3, sp, #12
 8008ce4:	4805      	ldr	r0, [pc, #20]	; (8008cfc <fiprintf+0x20>)
 8008ce6:	f853 2b04 	ldr.w	r2, [r3], #4
 8008cea:	6800      	ldr	r0, [r0, #0]
 8008cec:	9301      	str	r3, [sp, #4]
 8008cee:	f000 f88f 	bl	8008e10 <_vfiprintf_r>
 8008cf2:	b002      	add	sp, #8
 8008cf4:	f85d eb04 	ldr.w	lr, [sp], #4
 8008cf8:	b003      	add	sp, #12
 8008cfa:	4770      	bx	lr
 8008cfc:	20000090 	.word	0x20000090

08008d00 <memmove>:
 8008d00:	4288      	cmp	r0, r1
 8008d02:	b510      	push	{r4, lr}
 8008d04:	eb01 0402 	add.w	r4, r1, r2
 8008d08:	d902      	bls.n	8008d10 <memmove+0x10>
 8008d0a:	4284      	cmp	r4, r0
 8008d0c:	4623      	mov	r3, r4
 8008d0e:	d807      	bhi.n	8008d20 <memmove+0x20>
 8008d10:	1e43      	subs	r3, r0, #1
 8008d12:	42a1      	cmp	r1, r4
 8008d14:	d008      	beq.n	8008d28 <memmove+0x28>
 8008d16:	f811 2b01 	ldrb.w	r2, [r1], #1
 8008d1a:	f803 2f01 	strb.w	r2, [r3, #1]!
 8008d1e:	e7f8      	b.n	8008d12 <memmove+0x12>
 8008d20:	4402      	add	r2, r0
 8008d22:	4601      	mov	r1, r0
 8008d24:	428a      	cmp	r2, r1
 8008d26:	d100      	bne.n	8008d2a <memmove+0x2a>
 8008d28:	bd10      	pop	{r4, pc}
 8008d2a:	f813 4d01 	ldrb.w	r4, [r3, #-1]!
 8008d2e:	f802 4d01 	strb.w	r4, [r2, #-1]!
 8008d32:	e7f7      	b.n	8008d24 <memmove+0x24>

08008d34 <_sbrk_r>:
 8008d34:	b538      	push	{r3, r4, r5, lr}
 8008d36:	4d06      	ldr	r5, [pc, #24]	; (8008d50 <_sbrk_r+0x1c>)
 8008d38:	2300      	movs	r3, #0
 8008d3a:	4604      	mov	r4, r0
 8008d3c:	4608      	mov	r0, r1
 8008d3e:	602b      	str	r3, [r5, #0]
 8008d40:	f7f7 fec0 	bl	8000ac4 <_sbrk>
 8008d44:	1c43      	adds	r3, r0, #1
 8008d46:	d102      	bne.n	8008d4e <_sbrk_r+0x1a>
 8008d48:	682b      	ldr	r3, [r5, #0]
 8008d4a:	b103      	cbz	r3, 8008d4e <_sbrk_r+0x1a>
 8008d4c:	6023      	str	r3, [r4, #0]
 8008d4e:	bd38      	pop	{r3, r4, r5, pc}
 8008d50:	20000aec 	.word	0x20000aec

08008d54 <abort>:
 8008d54:	b508      	push	{r3, lr}
 8008d56:	2006      	movs	r0, #6
 8008d58:	f000 fa32 	bl	80091c0 <raise>
 8008d5c:	2001      	movs	r0, #1
 8008d5e:	f7f7 fe81 	bl	8000a64 <_exit>

08008d62 <_realloc_r>:
 8008d62:	e92d 41f0 	stmdb	sp!, {r4, r5, r6, r7, r8, lr}
 8008d66:	4680      	mov	r8, r0
 8008d68:	4614      	mov	r4, r2
 8008d6a:	460e      	mov	r6, r1
 8008d6c:	b921      	cbnz	r1, 8008d78 <_realloc_r+0x16>
 8008d6e:	e8bd 41f0 	ldmia.w	sp!, {r4, r5, r6, r7, r8, lr}
 8008d72:	4611      	mov	r1, r2
 8008d74:	f7ff bb94 	b.w	80084a0 <_malloc_r>
 8008d78:	b92a      	cbnz	r2, 8008d86 <_realloc_r+0x24>
 8008d7a:	f7ff fb1f 	bl	80083bc <_free_r>
 8008d7e:	4625      	mov	r5, r4
 8008d80:	4628      	mov	r0, r5
 8008d82:	e8bd 81f0 	ldmia.w	sp!, {r4, r5, r6, r7, r8, pc}
 8008d86:	f000 fa37 	bl	80091f8 <_malloc_usable_size_r>
 8008d8a:	4284      	cmp	r4, r0
 8008d8c:	4607      	mov	r7, r0
 8008d8e:	d802      	bhi.n	8008d96 <_realloc_r+0x34>
 8008d90:	ebb4 0f50 	cmp.w	r4, r0, lsr #1
 8008d94:	d812      	bhi.n	8008dbc <_realloc_r+0x5a>
 8008d96:	4621      	mov	r1, r4
 8008d98:	4640      	mov	r0, r8
 8008d9a:	f7ff fb81 	bl	80084a0 <_malloc_r>
 8008d9e:	4605      	mov	r5, r0
 8008da0:	2800      	cmp	r0, #0
 8008da2:	d0ed      	beq.n	8008d80 <_realloc_r+0x1e>
 8008da4:	42bc      	cmp	r4, r7
 8008da6:	4622      	mov	r2, r4
 8008da8:	4631      	mov	r1, r6
 8008daa:	bf28      	it	cs
 8008dac:	463a      	movcs	r2, r7
 8008dae:	f7ff fad8 	bl	8008362 <memcpy>
 8008db2:	4631      	mov	r1, r6
 8008db4:	4640      	mov	r0, r8
 8008db6:	f7ff fb01 	bl	80083bc <_free_r>
 8008dba:	e7e1      	b.n	8008d80 <_realloc_r+0x1e>
 8008dbc:	4635      	mov	r5, r6
 8008dbe:	e7df      	b.n	8008d80 <_realloc_r+0x1e>

08008dc0 <__sfputc_r>:
 8008dc0:	6893      	ldr	r3, [r2, #8]
 8008dc2:	3b01      	subs	r3, #1
 8008dc4:	2b00      	cmp	r3, #0
 8008dc6:	b410      	push	{r4}
 8008dc8:	6093      	str	r3, [r2, #8]
 8008dca:	da07      	bge.n	8008ddc <__sfputc_r+0x1c>
 8008dcc:	6994      	ldr	r4, [r2, #24]
 8008dce:	42a3      	cmp	r3, r4
 8008dd0:	db01      	blt.n	8008dd6 <__sfputc_r+0x16>
 8008dd2:	290a      	cmp	r1, #10
 8008dd4:	d102      	bne.n	8008ddc <__sfputc_r+0x1c>
 8008dd6:	bc10      	pop	{r4}
 8008dd8:	f000 b934 	b.w	8009044 <__swbuf_r>
 8008ddc:	6813      	ldr	r3, [r2, #0]
 8008dde:	1c58      	adds	r0, r3, #1
 8008de0:	6010      	str	r0, [r2, #0]
 8008de2:	7019      	strb	r1, [r3, #0]
 8008de4:	4608      	mov	r0, r1
 8008de6:	bc10      	pop	{r4}
 8008de8:	4770      	bx	lr

08008dea <__sfputs_r>:
 8008dea:	b5f8      	push	{r3, r4, r5, r6, r7, lr}
 8008dec:	4606      	mov	r6, r0
 8008dee:	460f      	mov	r7, r1
 8008df0:	4614      	mov	r4, r2
 8008df2:	18d5      	adds	r5, r2, r3
 8008df4:	42ac      	cmp	r4, r5
 8008df6:	d101      	bne.n	8008dfc <__sfputs_r+0x12>
 8008df8:	2000      	movs	r0, #0
 8008dfa:	e007      	b.n	8008e0c <__sfputs_r+0x22>
 8008dfc:	f814 1b01 	ldrb.w	r1, [r4], #1
 8008e00:	463a      	mov	r2, r7
 8008e02:	4630      	mov	r0, r6
 8008e04:	f7ff ffdc 	bl	8008dc0 <__sfputc_r>
 8008e08:	1c43      	adds	r3, r0, #1
 8008e0a:	d1f3      	bne.n	8008df4 <__sfputs_r+0xa>
 8008e0c:	bdf8      	pop	{r3, r4, r5, r6, r7, pc}
	...

08008e10 <_vfiprintf_r>:
 8008e10:	e92d 4ff0 	stmdb	sp!, {r4, r5, r6, r7, r8, r9, sl, fp, lr}
 8008e14:	460d      	mov	r5, r1
 8008e16:	b09d      	sub	sp, #116	; 0x74
 8008e18:	4614      	mov	r4, r2
 8008e1a:	4698      	mov	r8, r3
 8008e1c:	4606      	mov	r6, r0
 8008e1e:	b118      	cbz	r0, 8008e28 <_vfiprintf_r+0x18>
 8008e20:	6a03      	ldr	r3, [r0, #32]
 8008e22:	b90b      	cbnz	r3, 8008e28 <_vfiprintf_r+0x18>
 8008e24:	f7ff f968 	bl	80080f8 <__sinit>
 8008e28:	6e6b      	ldr	r3, [r5, #100]	; 0x64
 8008e2a:	07d9      	lsls	r1, r3, #31
 8008e2c:	d405      	bmi.n	8008e3a <_vfiprintf_r+0x2a>
 8008e2e:	89ab      	ldrh	r3, [r5, #12]
 8008e30:	059a      	lsls	r2, r3, #22
 8008e32:	d402      	bmi.n	8008e3a <_vfiprintf_r+0x2a>
 8008e34:	6da8      	ldr	r0, [r5, #88]	; 0x58
 8008e36:	f7ff fa92 	bl	800835e <__retarget_lock_acquire_recursive>
 8008e3a:	89ab      	ldrh	r3, [r5, #12]
 8008e3c:	071b      	lsls	r3, r3, #28
 8008e3e:	d501      	bpl.n	8008e44 <_vfiprintf_r+0x34>
 8008e40:	692b      	ldr	r3, [r5, #16]
 8008e42:	b99b      	cbnz	r3, 8008e6c <_vfiprintf_r+0x5c>
 8008e44:	4629      	mov	r1, r5
 8008e46:	4630      	mov	r0, r6
 8008e48:	f000 f93a 	bl	80090c0 <__swsetup_r>
 8008e4c:	b170      	cbz	r0, 8008e6c <_vfiprintf_r+0x5c>
 8008e4e:	6e6b      	ldr	r3, [r5, #100]	; 0x64
 8008e50:	07dc      	lsls	r4, r3, #31
 8008e52:	d504      	bpl.n	8008e5e <_vfiprintf_r+0x4e>
 8008e54:	f04f 30ff 	mov.w	r0, #4294967295
 8008e58:	b01d      	add	sp, #116	; 0x74
 8008e5a:	e8bd 8ff0 	ldmia.w	sp!, {r4, r5, r6, r7, r8, r9, sl, fp, pc}
 8008e5e:	89ab      	ldrh	r3, [r5, #12]
 8008e60:	0598      	lsls	r0, r3, #22
 8008e62:	d4f7      	bmi.n	8008e54 <_vfiprintf_r+0x44>
 8008e64:	6da8      	ldr	r0, [r5, #88]	; 0x58
 8008e66:	f7ff fa7b 	bl	8008360 <__retarget_lock_release_recursive>
 8008e6a:	e7f3      	b.n	8008e54 <_vfiprintf_r+0x44>
 8008e6c:	2300      	movs	r3, #0
 8008e6e:	9309      	str	r3, [sp, #36]	; 0x24
 8008e70:	2320      	movs	r3, #32
 8008e72:	f88d 3029 	strb.w	r3, [sp, #41]	; 0x29
 8008e76:	f8cd 800c 	str.w	r8, [sp, #12]
 8008e7a:	2330      	movs	r3, #48	; 0x30
 8008e7c:	f8df 81b0 	ldr.w	r8, [pc, #432]	; 8009030 <_vfiprintf_r+0x220>
 8008e80:	f88d 302a 	strb.w	r3, [sp, #42]	; 0x2a
 8008e84:	f04f 0901 	mov.w	r9, #1
 8008e88:	4623      	mov	r3, r4
 8008e8a:	469a      	mov	sl, r3
 8008e8c:	f813 2b01 	ldrb.w	r2, [r3], #1
 8008e90:	b10a      	cbz	r2, 8008e96 <_vfiprintf_r+0x86>
 8008e92:	2a25      	cmp	r2, #37	; 0x25
 8008e94:	d1f9      	bne.n	8008e8a <_vfiprintf_r+0x7a>
 8008e96:	ebba 0b04 	subs.w	fp, sl, r4
 8008e9a:	d00b      	beq.n	8008eb4 <_vfiprintf_r+0xa4>
 8008e9c:	465b      	mov	r3, fp
 8008e9e:	4622      	mov	r2, r4
 8008ea0:	4629      	mov	r1, r5
 8008ea2:	4630      	mov	r0, r6
 8008ea4:	f7ff ffa1 	bl	8008dea <__sfputs_r>
 8008ea8:	3001      	adds	r0, #1
 8008eaa:	f000 80a9 	beq.w	8009000 <_vfiprintf_r+0x1f0>
 8008eae:	9a09      	ldr	r2, [sp, #36]	; 0x24
 8008eb0:	445a      	add	r2, fp
 8008eb2:	9209      	str	r2, [sp, #36]	; 0x24
 8008eb4:	f89a 3000 	ldrb.w	r3, [sl]
 8008eb8:	2b00      	cmp	r3, #0
 8008eba:	f000 80a1 	beq.w	8009000 <_vfiprintf_r+0x1f0>
 8008ebe:	2300      	movs	r3, #0
 8008ec0:	f04f 32ff 	mov.w	r2, #4294967295
 8008ec4:	e9cd 2305 	strd	r2, r3, [sp, #20]
 8008ec8:	f10a 0a01 	add.w	sl, sl, #1
 8008ecc:	9304      	str	r3, [sp, #16]
 8008ece:	9307      	str	r3, [sp, #28]
 8008ed0:	f88d 3053 	strb.w	r3, [sp, #83]	; 0x53
 8008ed4:	931a      	str	r3, [sp, #104]	; 0x68
 8008ed6:	4654      	mov	r4, sl
 8008ed8:	2205      	movs	r2, #5
 8008eda:	f814 1b01 	ldrb.w	r1, [r4], #1
 8008ede:	4854      	ldr	r0, [pc, #336]	; (8009030 <_vfiprintf_r+0x220>)
 8008ee0:	f7f7 f956 	bl	8000190 <memchr>
 8008ee4:	9a04      	ldr	r2, [sp, #16]
 8008ee6:	b9d8      	cbnz	r0, 8008f20 <_vfiprintf_r+0x110>
 8008ee8:	06d1      	lsls	r1, r2, #27
 8008eea:	bf44      	itt	mi
 8008eec:	2320      	movmi	r3, #32
 8008eee:	f88d 3053 	strbmi.w	r3, [sp, #83]	; 0x53
 8008ef2:	0713      	lsls	r3, r2, #28
 8008ef4:	bf44      	itt	mi
 8008ef6:	232b      	movmi	r3, #43	; 0x2b
 8008ef8:	f88d 3053 	strbmi.w	r3, [sp, #83]	; 0x53
 8008efc:	f89a 3000 	ldrb.w	r3, [sl]
 8008f00:	2b2a      	cmp	r3, #42	; 0x2a
 8008f02:	d015      	beq.n	8008f30 <_vfiprintf_r+0x120>
 8008f04:	9a07      	ldr	r2, [sp, #28]
 8008f06:	4654      	mov	r4, sl
 8008f08:	2000      	movs	r0, #0
 8008f0a:	f04f 0c0a 	mov.w	ip, #10
 8008f0e:	4621      	mov	r1, r4
 8008f10:	f811 3b01 	ldrb.w	r3, [r1], #1
 8008f14:	3b30      	subs	r3, #48	; 0x30
 8008f16:	2b09      	cmp	r3, #9
 8008f18:	d94d      	bls.n	8008fb6 <_vfiprintf_r+0x1a6>
 8008f1a:	b1b0      	cbz	r0, 8008f4a <_vfiprintf_r+0x13a>
 8008f1c:	9207      	str	r2, [sp, #28]
 8008f1e:	e014      	b.n	8008f4a <_vfiprintf_r+0x13a>
 8008f20:	eba0 0308 	sub.w	r3, r0, r8
 8008f24:	fa09 f303 	lsl.w	r3, r9, r3
 8008f28:	4313      	orrs	r3, r2
 8008f2a:	9304      	str	r3, [sp, #16]
 8008f2c:	46a2      	mov	sl, r4
 8008f2e:	e7d2      	b.n	8008ed6 <_vfiprintf_r+0xc6>
 8008f30:	9b03      	ldr	r3, [sp, #12]
 8008f32:	1d19      	adds	r1, r3, #4
 8008f34:	681b      	ldr	r3, [r3, #0]
 8008f36:	9103      	str	r1, [sp, #12]
 8008f38:	2b00      	cmp	r3, #0
 8008f3a:	bfbb      	ittet	lt
 8008f3c:	425b      	neglt	r3, r3
 8008f3e:	f042 0202 	orrlt.w	r2, r2, #2
 8008f42:	9307      	strge	r3, [sp, #28]
 8008f44:	9307      	strlt	r3, [sp, #28]
 8008f46:	bfb8      	it	lt
 8008f48:	9204      	strlt	r2, [sp, #16]
 8008f4a:	7823      	ldrb	r3, [r4, #0]
 8008f4c:	2b2e      	cmp	r3, #46	; 0x2e
 8008f4e:	d10c      	bne.n	8008f6a <_vfiprintf_r+0x15a>
 8008f50:	7863      	ldrb	r3, [r4, #1]
 8008f52:	2b2a      	cmp	r3, #42	; 0x2a
 8008f54:	d134      	bne.n	8008fc0 <_vfiprintf_r+0x1b0>
 8008f56:	9b03      	ldr	r3, [sp, #12]
 8008f58:	1d1a      	adds	r2, r3, #4
 8008f5a:	681b      	ldr	r3, [r3, #0]
 8008f5c:	9203      	str	r2, [sp, #12]
 8008f5e:	2b00      	cmp	r3, #0
 8008f60:	bfb8      	it	lt
 8008f62:	f04f 33ff 	movlt.w	r3, #4294967295
 8008f66:	3402      	adds	r4, #2
 8008f68:	9305      	str	r3, [sp, #20]
 8008f6a:	f8df a0c8 	ldr.w	sl, [pc, #200]	; 8009034 <_vfiprintf_r+0x224>
 8008f6e:	7821      	ldrb	r1, [r4, #0]
 8008f70:	2203      	movs	r2, #3
 8008f72:	4650      	mov	r0, sl
 8008f74:	f7f7 f90c 	bl	8000190 <memchr>
 8008f78:	b138      	cbz	r0, 8008f8a <_vfiprintf_r+0x17a>
 8008f7a:	9b04      	ldr	r3, [sp, #16]
 8008f7c:	eba0 000a 	sub.w	r0, r0, sl
 8008f80:	2240      	movs	r2, #64	; 0x40
 8008f82:	4082      	lsls	r2, r0
 8008f84:	4313      	orrs	r3, r2
 8008f86:	3401      	adds	r4, #1
 8008f88:	9304      	str	r3, [sp, #16]
 8008f8a:	f814 1b01 	ldrb.w	r1, [r4], #1
 8008f8e:	482a      	ldr	r0, [pc, #168]	; (8009038 <_vfiprintf_r+0x228>)
 8008f90:	f88d 1028 	strb.w	r1, [sp, #40]	; 0x28
 8008f94:	2206      	movs	r2, #6
 8008f96:	f7f7 f8fb 	bl	8000190 <memchr>
 8008f9a:	2800      	cmp	r0, #0
 8008f9c:	d03f      	beq.n	800901e <_vfiprintf_r+0x20e>
 8008f9e:	4b27      	ldr	r3, [pc, #156]	; (800903c <_vfiprintf_r+0x22c>)
 8008fa0:	bb1b      	cbnz	r3, 8008fea <_vfiprintf_r+0x1da>
 8008fa2:	9b03      	ldr	r3, [sp, #12]
 8008fa4:	3307      	adds	r3, #7
 8008fa6:	f023 0307 	bic.w	r3, r3, #7
 8008faa:	3308      	adds	r3, #8
 8008fac:	9303      	str	r3, [sp, #12]
 8008fae:	9b09      	ldr	r3, [sp, #36]	; 0x24
 8008fb0:	443b      	add	r3, r7
 8008fb2:	9309      	str	r3, [sp, #36]	; 0x24
 8008fb4:	e768      	b.n	8008e88 <_vfiprintf_r+0x78>
 8008fb6:	fb0c 3202 	mla	r2, ip, r2, r3
 8008fba:	460c      	mov	r4, r1
 8008fbc:	2001      	movs	r0, #1
 8008fbe:	e7a6      	b.n	8008f0e <_vfiprintf_r+0xfe>
 8008fc0:	2300      	movs	r3, #0
 8008fc2:	3401      	adds	r4, #1
 8008fc4:	9305      	str	r3, [sp, #20]
 8008fc6:	4619      	mov	r1, r3
 8008fc8:	f04f 0c0a 	mov.w	ip, #10
 8008fcc:	4620      	mov	r0, r4
 8008fce:	f810 2b01 	ldrb.w	r2, [r0], #1
 8008fd2:	3a30      	subs	r2, #48	; 0x30
 8008fd4:	2a09      	cmp	r2, #9
 8008fd6:	d903      	bls.n	8008fe0 <_vfiprintf_r+0x1d0>
 8008fd8:	2b00      	cmp	r3, #0
 8008fda:	d0c6      	beq.n	8008f6a <_vfiprintf_r+0x15a>
 8008fdc:	9105      	str	r1, [sp, #20]
 8008fde:	e7c4      	b.n	8008f6a <_vfiprintf_r+0x15a>
 8008fe0:	fb0c 2101 	mla	r1, ip, r1, r2
 8008fe4:	4604      	mov	r4, r0
 8008fe6:	2301      	movs	r3, #1
 8008fe8:	e7f0      	b.n	8008fcc <_vfiprintf_r+0x1bc>
 8008fea:	ab03      	add	r3, sp, #12
 8008fec:	9300      	str	r3, [sp, #0]
 8008fee:	462a      	mov	r2, r5
 8008ff0:	4b13      	ldr	r3, [pc, #76]	; (8009040 <_vfiprintf_r+0x230>)
 8008ff2:	a904      	add	r1, sp, #16
 8008ff4:	4630      	mov	r0, r6
 8008ff6:	f3af 8000 	nop.w
 8008ffa:	4607      	mov	r7, r0
 8008ffc:	1c78      	adds	r0, r7, #1
 8008ffe:	d1d6      	bne.n	8008fae <_vfiprintf_r+0x19e>
 8009000:	6e6b      	ldr	r3, [r5, #100]	; 0x64
 8009002:	07d9      	lsls	r1, r3, #31
 8009004:	d405      	bmi.n	8009012 <_vfiprintf_r+0x202>
 8009006:	89ab      	ldrh	r3, [r5, #12]
 8009008:	059a      	lsls	r2, r3, #22
 800900a:	d402      	bmi.n	8009012 <_vfiprintf_r+0x202>
 800900c:	6da8      	ldr	r0, [r5, #88]	; 0x58
 800900e:	f7ff f9a7 	bl	8008360 <__retarget_lock_release_recursive>
 8009012:	89ab      	ldrh	r3, [r5, #12]
 8009014:	065b      	lsls	r3, r3, #25
 8009016:	f53f af1d 	bmi.w	8008e54 <_vfiprintf_r+0x44>
 800901a:	9809      	ldr	r0, [sp, #36]	; 0x24
 800901c:	e71c      	b.n	8008e58 <_vfiprintf_r+0x48>
 800901e:	ab03      	add	r3, sp, #12
 8009020:	9300      	str	r3, [sp, #0]
 8009022:	462a      	mov	r2, r5
 8009024:	4b06      	ldr	r3, [pc, #24]	; (8009040 <_vfiprintf_r+0x230>)
 8009026:	a904      	add	r1, sp, #16
 8009028:	4630      	mov	r0, r6
 800902a:	f7ff fc8b 	bl	8008944 <_printf_i>
 800902e:	e7e4      	b.n	8008ffa <_vfiprintf_r+0x1ea>
 8009030:	0800994a 	.word	0x0800994a
 8009034:	08009950 	.word	0x08009950
 8009038:	08009954 	.word	0x08009954
 800903c:	00000000 	.word	0x00000000
 8009040:	08008deb 	.word	0x08008deb

08009044 <__swbuf_r>:
 8009044:	b5f8      	push	{r3, r4, r5, r6, r7, lr}
 8009046:	460e      	mov	r6, r1
 8009048:	4614      	mov	r4, r2
 800904a:	4605      	mov	r5, r0
 800904c:	b118      	cbz	r0, 8009056 <__swbuf_r+0x12>
 800904e:	6a03      	ldr	r3, [r0, #32]
 8009050:	b90b      	cbnz	r3, 8009056 <__swbuf_r+0x12>
 8009052:	f7ff f851 	bl	80080f8 <__sinit>
 8009056:	69a3      	ldr	r3, [r4, #24]
 8009058:	60a3      	str	r3, [r4, #8]
 800905a:	89a3      	ldrh	r3, [r4, #12]
 800905c:	071a      	lsls	r2, r3, #28
 800905e:	d525      	bpl.n	80090ac <__swbuf_r+0x68>
 8009060:	6923      	ldr	r3, [r4, #16]
 8009062:	b31b      	cbz	r3, 80090ac <__swbuf_r+0x68>
 8009064:	6823      	ldr	r3, [r4, #0]
 8009066:	6922      	ldr	r2, [r4, #16]
 8009068:	1a98      	subs	r0, r3, r2
 800906a:	6963      	ldr	r3, [r4, #20]
 800906c:	b2f6      	uxtb	r6, r6
 800906e:	4283      	cmp	r3, r0
 8009070:	4637      	mov	r7, r6
 8009072:	dc04      	bgt.n	800907e <__swbuf_r+0x3a>
 8009074:	4621      	mov	r1, r4
 8009076:	4628      	mov	r0, r5
 8009078:	f7ff fe08 	bl	8008c8c <_fflush_r>
 800907c:	b9e0      	cbnz	r0, 80090b8 <__swbuf_r+0x74>
 800907e:	68a3      	ldr	r3, [r4, #8]
 8009080:	3b01      	subs	r3, #1
 8009082:	60a3      	str	r3, [r4, #8]
 8009084:	6823      	ldr	r3, [r4, #0]
 8009086:	1c5a      	adds	r2, r3, #1
 8009088:	6022      	str	r2, [r4, #0]
 800908a:	701e      	strb	r6, [r3, #0]
 800908c:	6962      	ldr	r2, [r4, #20]
 800908e:	1c43      	adds	r3, r0, #1
 8009090:	429a      	cmp	r2, r3
 8009092:	d004      	beq.n	800909e <__swbuf_r+0x5a>
 8009094:	89a3      	ldrh	r3, [r4, #12]
 8009096:	07db      	lsls	r3, r3, #31
 8009098:	d506      	bpl.n	80090a8 <__swbuf_r+0x64>
 800909a:	2e0a      	cmp	r6, #10
 800909c:	d104      	bne.n	80090a8 <__swbuf_r+0x64>
 800909e:	4621      	mov	r1, r4
 80090a0:	4628      	mov	r0, r5
 80090a2:	f7ff fdf3 	bl	8008c8c <_fflush_r>
 80090a6:	b938      	cbnz	r0, 80090b8 <__swbuf_r+0x74>
 80090a8:	4638      	mov	r0, r7
 80090aa:	bdf8      	pop	{r3, r4, r5, r6, r7, pc}
 80090ac:	4621      	mov	r1, r4
 80090ae:	4628      	mov	r0, r5
 80090b0:	f000 f806 	bl	80090c0 <__swsetup_r>
 80090b4:	2800      	cmp	r0, #0
 80090b6:	d0d5      	beq.n	8009064 <__swbuf_r+0x20>
 80090b8:	f04f 37ff 	mov.w	r7, #4294967295
 80090bc:	e7f4      	b.n	80090a8 <__swbuf_r+0x64>
	...

080090c0 <__swsetup_r>:
 80090c0:	b538      	push	{r3, r4, r5, lr}
 80090c2:	4b2a      	ldr	r3, [pc, #168]	; (800916c <__swsetup_r+0xac>)
 80090c4:	4605      	mov	r5, r0
 80090c6:	6818      	ldr	r0, [r3, #0]
 80090c8:	460c      	mov	r4, r1
 80090ca:	b118      	cbz	r0, 80090d4 <__swsetup_r+0x14>
 80090cc:	6a03      	ldr	r3, [r0, #32]
 80090ce:	b90b      	cbnz	r3, 80090d4 <__swsetup_r+0x14>
 80090d0:	f7ff f812 	bl	80080f8 <__sinit>
 80090d4:	89a3      	ldrh	r3, [r4, #12]
 80090d6:	f9b4 200c 	ldrsh.w	r2, [r4, #12]
 80090da:	0718      	lsls	r0, r3, #28
 80090dc:	d422      	bmi.n	8009124 <__swsetup_r+0x64>
 80090de:	06d9      	lsls	r1, r3, #27
 80090e0:	d407      	bmi.n	80090f2 <__swsetup_r+0x32>
 80090e2:	2309      	movs	r3, #9
 80090e4:	602b      	str	r3, [r5, #0]
 80090e6:	f042 0340 	orr.w	r3, r2, #64	; 0x40
 80090ea:	81a3      	strh	r3, [r4, #12]
 80090ec:	f04f 30ff 	mov.w	r0, #4294967295
 80090f0:	e034      	b.n	800915c <__swsetup_r+0x9c>
 80090f2:	0758      	lsls	r0, r3, #29
 80090f4:	d512      	bpl.n	800911c <__swsetup_r+0x5c>
 80090f6:	6b61      	ldr	r1, [r4, #52]	; 0x34
 80090f8:	b141      	cbz	r1, 800910c <__swsetup_r+0x4c>
 80090fa:	f104 0344 	add.w	r3, r4, #68	; 0x44
 80090fe:	4299      	cmp	r1, r3
 8009100:	d002      	beq.n	8009108 <__swsetup_r+0x48>
 8009102:	4628      	mov	r0, r5
 8009104:	f7ff f95a 	bl	80083bc <_free_r>
 8009108:	2300      	movs	r3, #0
 800910a:	6363      	str	r3, [r4, #52]	; 0x34
 800910c:	89a3      	ldrh	r3, [r4, #12]
 800910e:	f023 0324 	bic.w	r3, r3, #36	; 0x24
 8009112:	81a3      	strh	r3, [r4, #12]
 8009114:	2300      	movs	r3, #0
 8009116:	6063      	str	r3, [r4, #4]
 8009118:	6923      	ldr	r3, [r4, #16]
 800911a:	6023      	str	r3, [r4, #0]
 800911c:	89a3      	ldrh	r3, [r4, #12]
 800911e:	f043 0308 	orr.w	r3, r3, #8
 8009122:	81a3      	strh	r3, [r4, #12]
 8009124:	6923      	ldr	r3, [r4, #16]
 8009126:	b94b      	cbnz	r3, 800913c <__swsetup_r+0x7c>
 8009128:	89a3      	ldrh	r3, [r4, #12]
 800912a:	f403 7320 	and.w	r3, r3, #640	; 0x280
 800912e:	f5b3 7f00 	cmp.w	r3, #512	; 0x200
 8009132:	d003      	beq.n	800913c <__swsetup_r+0x7c>
 8009134:	4621      	mov	r1, r4
 8009136:	4628      	mov	r0, r5
 8009138:	f000 f88c 	bl	8009254 <__smakebuf_r>
 800913c:	89a0      	ldrh	r0, [r4, #12]
 800913e:	f9b4 200c 	ldrsh.w	r2, [r4, #12]
 8009142:	f010 0301 	ands.w	r3, r0, #1
 8009146:	d00a      	beq.n	800915e <__swsetup_r+0x9e>
 8009148:	2300      	movs	r3, #0
 800914a:	60a3      	str	r3, [r4, #8]
 800914c:	6963      	ldr	r3, [r4, #20]
 800914e:	425b      	negs	r3, r3
 8009150:	61a3      	str	r3, [r4, #24]
 8009152:	6923      	ldr	r3, [r4, #16]
 8009154:	b943      	cbnz	r3, 8009168 <__swsetup_r+0xa8>
 8009156:	f010 0080 	ands.w	r0, r0, #128	; 0x80
 800915a:	d1c4      	bne.n	80090e6 <__swsetup_r+0x26>
 800915c:	bd38      	pop	{r3, r4, r5, pc}
 800915e:	0781      	lsls	r1, r0, #30
 8009160:	bf58      	it	pl
 8009162:	6963      	ldrpl	r3, [r4, #20]
 8009164:	60a3      	str	r3, [r4, #8]
 8009166:	e7f4      	b.n	8009152 <__swsetup_r+0x92>
 8009168:	2000      	movs	r0, #0
 800916a:	e7f7      	b.n	800915c <__swsetup_r+0x9c>
 800916c:	20000090 	.word	0x20000090

08009170 <_raise_r>:
 8009170:	291f      	cmp	r1, #31
 8009172:	b538      	push	{r3, r4, r5, lr}
 8009174:	4604      	mov	r4, r0
 8009176:	460d      	mov	r5, r1
 8009178:	d904      	bls.n	8009184 <_raise_r+0x14>
 800917a:	2316      	movs	r3, #22
 800917c:	6003      	str	r3, [r0, #0]
 800917e:	f04f 30ff 	mov.w	r0, #4294967295
 8009182:	bd38      	pop	{r3, r4, r5, pc}
 8009184:	6bc2      	ldr	r2, [r0, #60]	; 0x3c
 8009186:	b112      	cbz	r2, 800918e <_raise_r+0x1e>
 8009188:	f852 3021 	ldr.w	r3, [r2, r1, lsl #2]
 800918c:	b94b      	cbnz	r3, 80091a2 <_raise_r+0x32>
 800918e:	4620      	mov	r0, r4
 8009190:	f000 f830 	bl	80091f4 <_getpid_r>
 8009194:	462a      	mov	r2, r5
 8009196:	4601      	mov	r1, r0
 8009198:	4620      	mov	r0, r4
 800919a:	e8bd 4038 	ldmia.w	sp!, {r3, r4, r5, lr}
 800919e:	f000 b817 	b.w	80091d0 <_kill_r>
 80091a2:	2b01      	cmp	r3, #1
 80091a4:	d00a      	beq.n	80091bc <_raise_r+0x4c>
 80091a6:	1c59      	adds	r1, r3, #1
 80091a8:	d103      	bne.n	80091b2 <_raise_r+0x42>
 80091aa:	2316      	movs	r3, #22
 80091ac:	6003      	str	r3, [r0, #0]
 80091ae:	2001      	movs	r0, #1
 80091b0:	e7e7      	b.n	8009182 <_raise_r+0x12>
 80091b2:	2400      	movs	r4, #0
 80091b4:	f842 4025 	str.w	r4, [r2, r5, lsl #2]
 80091b8:	4628      	mov	r0, r5
 80091ba:	4798      	blx	r3
 80091bc:	2000      	movs	r0, #0
 80091be:	e7e0      	b.n	8009182 <_raise_r+0x12>

080091c0 <raise>:
 80091c0:	4b02      	ldr	r3, [pc, #8]	; (80091cc <raise+0xc>)
 80091c2:	4601      	mov	r1, r0
 80091c4:	6818      	ldr	r0, [r3, #0]
 80091c6:	f7ff bfd3 	b.w	8009170 <_raise_r>
 80091ca:	bf00      	nop
 80091cc:	20000090 	.word	0x20000090

080091d0 <_kill_r>:
 80091d0:	b538      	push	{r3, r4, r5, lr}
 80091d2:	4d07      	ldr	r5, [pc, #28]	; (80091f0 <_kill_r+0x20>)
 80091d4:	2300      	movs	r3, #0
 80091d6:	4604      	mov	r4, r0
 80091d8:	4608      	mov	r0, r1
 80091da:	4611      	mov	r1, r2
 80091dc:	602b      	str	r3, [r5, #0]
 80091de:	f7f7 fc39 	bl	8000a54 <_kill>
 80091e2:	1c43      	adds	r3, r0, #1
 80091e4:	d102      	bne.n	80091ec <_kill_r+0x1c>
 80091e6:	682b      	ldr	r3, [r5, #0]
 80091e8:	b103      	cbz	r3, 80091ec <_kill_r+0x1c>
 80091ea:	6023      	str	r3, [r4, #0]
 80091ec:	bd38      	pop	{r3, r4, r5, pc}
 80091ee:	bf00      	nop
 80091f0:	20000aec 	.word	0x20000aec

080091f4 <_getpid_r>:
 80091f4:	f7f7 bc2c 	b.w	8000a50 <_getpid>

080091f8 <_malloc_usable_size_r>:
 80091f8:	f851 3c04 	ldr.w	r3, [r1, #-4]
 80091fc:	1f18      	subs	r0, r3, #4
 80091fe:	2b00      	cmp	r3, #0
 8009200:	bfbc      	itt	lt
 8009202:	580b      	ldrlt	r3, [r1, r0]
 8009204:	18c0      	addlt	r0, r0, r3
 8009206:	4770      	bx	lr

08009208 <__swhatbuf_r>:
 8009208:	b570      	push	{r4, r5, r6, lr}
 800920a:	460c      	mov	r4, r1
 800920c:	f9b1 100e 	ldrsh.w	r1, [r1, #14]
 8009210:	2900      	cmp	r1, #0
 8009212:	b096      	sub	sp, #88	; 0x58
 8009214:	4615      	mov	r5, r2
 8009216:	461e      	mov	r6, r3
 8009218:	da0d      	bge.n	8009236 <__swhatbuf_r+0x2e>
 800921a:	89a3      	ldrh	r3, [r4, #12]
 800921c:	f013 0f80 	tst.w	r3, #128	; 0x80
 8009220:	f04f 0100 	mov.w	r1, #0
 8009224:	bf0c      	ite	eq
 8009226:	f44f 6380 	moveq.w	r3, #1024	; 0x400
 800922a:	2340      	movne	r3, #64	; 0x40
 800922c:	2000      	movs	r0, #0
 800922e:	6031      	str	r1, [r6, #0]
 8009230:	602b      	str	r3, [r5, #0]
 8009232:	b016      	add	sp, #88	; 0x58
 8009234:	bd70      	pop	{r4, r5, r6, pc}
 8009236:	466a      	mov	r2, sp
 8009238:	f000 f848 	bl	80092cc <_fstat_r>
 800923c:	2800      	cmp	r0, #0
 800923e:	dbec      	blt.n	800921a <__swhatbuf_r+0x12>
 8009240:	9901      	ldr	r1, [sp, #4]
 8009242:	f401 4170 	and.w	r1, r1, #61440	; 0xf000
 8009246:	f5a1 5300 	sub.w	r3, r1, #8192	; 0x2000
 800924a:	4259      	negs	r1, r3
 800924c:	4159      	adcs	r1, r3
 800924e:	f44f 6380 	mov.w	r3, #1024	; 0x400
 8009252:	e7eb      	b.n	800922c <__swhatbuf_r+0x24>

08009254 <__smakebuf_r>:
 8009254:	898b      	ldrh	r3, [r1, #12]
 8009256:	b573      	push	{r0, r1, r4, r5, r6, lr}
 8009258:	079d      	lsls	r5, r3, #30
 800925a:	4606      	mov	r6, r0
 800925c:	460c      	mov	r4, r1
 800925e:	d507      	bpl.n	8009270 <__smakebuf_r+0x1c>
 8009260:	f104 0347 	add.w	r3, r4, #71	; 0x47
 8009264:	6023      	str	r3, [r4, #0]
 8009266:	6123      	str	r3, [r4, #16]
 8009268:	2301      	movs	r3, #1
 800926a:	6163      	str	r3, [r4, #20]
 800926c:	b002      	add	sp, #8
 800926e:	bd70      	pop	{r4, r5, r6, pc}
 8009270:	ab01      	add	r3, sp, #4
 8009272:	466a      	mov	r2, sp
 8009274:	f7ff ffc8 	bl	8009208 <__swhatbuf_r>
 8009278:	9900      	ldr	r1, [sp, #0]
 800927a:	4605      	mov	r5, r0
 800927c:	4630      	mov	r0, r6
 800927e:	f7ff f90f 	bl	80084a0 <_malloc_r>
 8009282:	b948      	cbnz	r0, 8009298 <__smakebuf_r+0x44>
 8009284:	f9b4 300c 	ldrsh.w	r3, [r4, #12]
 8009288:	059a      	lsls	r2, r3, #22
 800928a:	d4ef      	bmi.n	800926c <__smakebuf_r+0x18>
 800928c:	f023 0303 	bic.w	r3, r3, #3
 8009290:	f043 0302 	orr.w	r3, r3, #2
 8009294:	81a3      	strh	r3, [r4, #12]
 8009296:	e7e3      	b.n	8009260 <__smakebuf_r+0xc>
 8009298:	89a3      	ldrh	r3, [r4, #12]
 800929a:	6020      	str	r0, [r4, #0]
 800929c:	f043 0380 	orr.w	r3, r3, #128	; 0x80
 80092a0:	81a3      	strh	r3, [r4, #12]
 80092a2:	9b00      	ldr	r3, [sp, #0]
 80092a4:	6163      	str	r3, [r4, #20]
 80092a6:	9b01      	ldr	r3, [sp, #4]
 80092a8:	6120      	str	r0, [r4, #16]
 80092aa:	b15b      	cbz	r3, 80092c4 <__smakebuf_r+0x70>
 80092ac:	f9b4 100e 	ldrsh.w	r1, [r4, #14]
 80092b0:	4630      	mov	r0, r6
 80092b2:	f000 f81d 	bl	80092f0 <_isatty_r>
 80092b6:	b128      	cbz	r0, 80092c4 <__smakebuf_r+0x70>
 80092b8:	89a3      	ldrh	r3, [r4, #12]
 80092ba:	f023 0303 	bic.w	r3, r3, #3
 80092be:	f043 0301 	orr.w	r3, r3, #1
 80092c2:	81a3      	strh	r3, [r4, #12]
 80092c4:	89a3      	ldrh	r3, [r4, #12]
 80092c6:	431d      	orrs	r5, r3
 80092c8:	81a5      	strh	r5, [r4, #12]
 80092ca:	e7cf      	b.n	800926c <__smakebuf_r+0x18>

080092cc <_fstat_r>:
 80092cc:	b538      	push	{r3, r4, r5, lr}
 80092ce:	4d07      	ldr	r5, [pc, #28]	; (80092ec <_fstat_r+0x20>)
 80092d0:	2300      	movs	r3, #0
 80092d2:	4604      	mov	r4, r0
 80092d4:	4608      	mov	r0, r1
 80092d6:	4611      	mov	r1, r2
 80092d8:	602b      	str	r3, [r5, #0]
 80092da:	f7f7 fbea 	bl	8000ab2 <_fstat>
 80092de:	1c43      	adds	r3, r0, #1
 80092e0:	d102      	bne.n	80092e8 <_fstat_r+0x1c>
 80092e2:	682b      	ldr	r3, [r5, #0]
 80092e4:	b103      	cbz	r3, 80092e8 <_fstat_r+0x1c>
 80092e6:	6023      	str	r3, [r4, #0]
 80092e8:	bd38      	pop	{r3, r4, r5, pc}
 80092ea:	bf00      	nop
 80092ec:	20000aec 	.word	0x20000aec

080092f0 <_isatty_r>:
 80092f0:	b538      	push	{r3, r4, r5, lr}
 80092f2:	4d06      	ldr	r5, [pc, #24]	; (800930c <_isatty_r+0x1c>)
 80092f4:	2300      	movs	r3, #0
 80092f6:	4604      	mov	r4, r0
 80092f8:	4608      	mov	r0, r1
 80092fa:	602b      	str	r3, [r5, #0]
 80092fc:	f7f7 fbde 	bl	8000abc <_isatty>
 8009300:	1c43      	adds	r3, r0, #1
 8009302:	d102      	bne.n	800930a <_isatty_r+0x1a>
 8009304:	682b      	ldr	r3, [r5, #0]
 8009306:	b103      	cbz	r3, 800930a <_isatty_r+0x1a>
 8009308:	6023      	str	r3, [r4, #0]
 800930a:	bd38      	pop	{r3, r4, r5, pc}
 800930c:	20000aec 	.word	0x20000aec

08009310 <_init>:
 8009310:	b5f8      	push	{r3, r4, r5, r6, r7, lr}
 8009312:	bf00      	nop
 8009314:	bcf8      	pop	{r3, r4, r5, r6, r7}
 8009316:	bc08      	pop	{r3}
 8009318:	469e      	mov	lr, r3
 800931a:	4770      	bx	lr

0800931c <_fini>:
 800931c:	b5f8      	push	{r3, r4, r5, r6, r7, lr}
 800931e:	bf00      	nop
 8009320:	bcf8      	pop	{r3, r4, r5, r6, r7}
 8009322:	bc08      	pop	{r3}
 8009324:	469e      	mov	lr, r3
 8009326:	4770      	bx	lr
